
0423Version.elf:     file format elf32-littleriscv
0423Version.elf
architecture: riscv:rv32, flags 0x00000112:
EXEC_P, HAS_SYMS, D_PAGED
start address 0x00000000

Program Header:
    LOAD off    0x00001000 vaddr 0x00000000 paddr 0x00000000 align 2**12
         filesz 0x00007ac0 memsz 0x00007ac0 flags r-x
    LOAD off    0x00009000 vaddr 0x20000000 paddr 0x00007ac0 align 2**12
         filesz 0x00000098 memsz 0x000004f4 flags rw-
    LOAD off    0x00009800 vaddr 0x20007800 paddr 0x20007800 align 2**12
         filesz 0x00000000 memsz 0x00000800 flags rw-

Sections:
Idx Name          Size      VMA       LMA       File off  Algn
  0 .init         00000038  00000000  00000000  00001000  2**1
                  CONTENTS, ALLOC, LOAD, READONLY, CODE
  1 .vector       000001c8  00000038  00000038  00001038  2**1
                  CONTENTS, ALLOC, LOAD, READONLY, CODE
  2 .text         000078c0  00000200  00000200  00001200  2**2
                  CONTENTS, ALLOC, LOAD, READONLY, CODE
  3 .fini         00000000  00007ac0  00007ac0  00009098  2**0
                  CONTENTS, ALLOC, LOAD, CODE
  4 .dalign       00000000  20000000  20000000  00009098  2**0
                  CONTENTS
  5 .dlalign      00000000  00007ac0  00007ac0  00009098  2**0
                  CONTENTS
  6 .data         00000098  20000000  00007ac0  00009000  2**2
                  CONTENTS, ALLOC, LOAD, DATA
  7 .bss          0000045c  20000098  00007b58  00009098  2**2
                  ALLOC
  8 .stack        00000800  20007800  20007800  00009800  2**0
                  ALLOC
  9 .debug_info   00012a42  00000000  00000000  00009098  2**0
                  CONTENTS, READONLY, DEBUGGING
 10 .debug_abbrev 0000279d  00000000  00000000  0001bada  2**0
                  CONTENTS, READONLY, DEBUGGING
 11 .debug_loc    0000733a  00000000  00000000  0001e277  2**0
                  CONTENTS, READONLY, DEBUGGING
 12 .debug_aranges 00000698  00000000  00000000  000255b8  2**3
                  CONTENTS, READONLY, DEBUGGING
 13 .debug_ranges 00000bf8  00000000  00000000  00025c50  2**3
                  CONTENTS, READONLY, DEBUGGING
 14 .debug_line   0000e5e1  00000000  00000000  00026848  2**0
                  CONTENTS, READONLY, DEBUGGING
 15 .debug_str    000026fd  00000000  00000000  00034e29  2**0
                  CONTENTS, READONLY, DEBUGGING
 16 .comment      00000033  00000000  00000000  00037526  2**0
                  CONTENTS, READONLY
 17 .debug_frame  00001938  00000000  00000000  0003755c  2**2
                  CONTENTS, READONLY, DEBUGGING
 18 .stab         00000084  00000000  00000000  00038e94  2**2
                  CONTENTS, READONLY, DEBUGGING
 19 .stabstr      00000117  00000000  00000000  00038f18  2**0
                  CONTENTS, READONLY, DEBUGGING
SYMBOL TABLE:
00000000 l    d  .init	00000000 .init
00000038 l    d  .vector	00000000 .vector
00000200 l    d  .text	00000000 .text
00007ac0 l    d  .fini	00000000 .fini
20000000 l    d  .dalign	00000000 .dalign
00007ac0 l    d  .dlalign	00000000 .dlalign
20000000 l    d  .data	00000000 .data
20000098 l    d  .bss	00000000 .bss
20007800 l    d  .stack	00000000 .stack
00000000 l    d  .debug_info	00000000 .debug_info
00000000 l    d  .debug_abbrev	00000000 .debug_abbrev
00000000 l    d  .debug_loc	00000000 .debug_loc
00000000 l    d  .debug_aranges	00000000 .debug_aranges
00000000 l    d  .debug_ranges	00000000 .debug_ranges
00000000 l    d  .debug_line	00000000 .debug_line
00000000 l    d  .debug_str	00000000 .debug_str
00000000 l    d  .comment	00000000 .comment
00000000 l    d  .debug_frame	00000000 .debug_frame
00000000 l    d  .stab	00000000 .stab
00000000 l    d  .stabstr	00000000 .stabstr
00000000 l    df *ABS*	00000000 ./Startup/startup_ch32v30x_D8C.o
00000038 l       .vector	00000000 _vector_base
00000000 l    df *ABS*	00000000 L610.c
00000000 l    df *ABS*	00000000 ch32v30x_it.c
00000000 l    df *ABS*	00000000 lcd.c
00000000 l    df *ABS*	00000000 main.c
00000000 l    df *ABS*	00000000 pages.c
00000000 l    df *ABS*	00000000 system_ch32v30x.c
00000000 l    df *ABS*	00000000 ch32v30x_fsmc.c
00000000 l    df *ABS*	00000000 ch32v30x_gpio.c
00000000 l    df *ABS*	00000000 ch32v30x_misc.c
00000000 l    df *ABS*	00000000 ch32v30x_rcc.c
20000010 l     O .data	00000010 APBAHBPrescTable
20000088 l     O .data	00000004 ADCPrescTable
00000000 l    df *ABS*	00000000 ch32v30x_usart.c
00000000 l    df *ABS*	00000000 usart.c
00000000 l    df *ABS*	00000000 debug.c
200000a4 l     O .bss	00000002 p_ms
200000a6 l     O .bss	00000001 p_us
2000008c l     O .data	00000004 curbrk.5226
00000000 l    df *ABS*	00000000 memcmp.c
00000000 l    df *ABS*	00000000 printf.c
00000000 l    df *ABS*	00000000 puts.c
00000000 l    df *ABS*	00000000 strstr.c
00000000 l    df *ABS*	00000000 wbuf.c
00000000 l    df *ABS*	00000000 wsetup.c
00000000 l    df *ABS*	00000000 fflush.c
00000000 l    df *ABS*	00000000 findfp.c
000039da l     F .text	0000006a std
00000000 l    df *ABS*	00000000 fwalk.c
00000000 l    df *ABS*	00000000 makebuf.c
00000000 l    df *ABS*	00000000 nano-mallocr.c
00000000 l    df *ABS*	00000000 nano-mallocr.c
00000000 l    df *ABS*	00000000 nano-vfprintf.c
00003e76 l     F .text	0000002a __sfputc_r
00000000 l    df *ABS*	00000000 nano-vfprintf_i.c
00000000 l    df *ABS*	00000000 sbrkr.c
00000000 l    df *ABS*	00000000 stdio.c
00000000 l    df *ABS*	00000000 writer.c
00000000 l    df *ABS*	00000000 closer.c
00000000 l    df *ABS*	00000000 fstatr.c
00000000 l    df *ABS*	00000000 isattyr.c
00000000 l    df *ABS*	00000000 lseekr.c
00000000 l    df *ABS*	00000000 memchr.c
00000000 l    df *ABS*	00000000 mlock.c
00000000 l    df *ABS*	00000000 readr.c
00000000 l    df *ABS*	00000000 close.c
00000000 l    df *ABS*	00000000 fstat.c
00000000 l    df *ABS*	00000000 isatty.c
00000000 l    df *ABS*	00000000 lseek.c
00000000 l    df *ABS*	00000000 read.c
00000000 l    df *ABS*	00000000 impure.c
20000020 l     O .data	00000060 impure_data
00000000 l    df *ABS*	00000000 reent.c
00002954  w      .text	00000000 EXTI2_IRQHandler
0000299e  w      .text	00000000 TIM8_TRG_COM_IRQHandler
000029a0  w      .text	00000000 TIM8_CC_IRQHandler
00004696 g     F .text	00000028 _isatty_r
0000202a g     F .text	00000172 LCD_ShowChar
0000354c g     F .text	000000da _puts_r
000046be g     F .text	0000002c _lseek_r
00003160 g     F .text	0000001c USARTx_SendByte
000029d6  w      .text	00000000 UART8_IRQHandler
20000080 g     O .data	00000002 BACK_COLOR
0000350c g     F .text	00000040 printf
20000880 g       .data	00000000 __global_pointer$
0000297a  w      .text	00000000 TIM1_CC_IRQHandler
000045da g     F .text	00000036 __sseek
00003a94 g     F .text	00000066 __sinit
0000366e g     F .text	000000c0 __swbuf_r
00000754 g     F .text	00000002 HardFault_Handler
00003a4e g     F .text	00000046 __sfmoreglue
00004706 g     F .text	00000002 __malloc_unlock
000029b0  w      .text	00000000 TIM6_IRQHandler
00002940  w      .text	00000000 SysTick_Handler
00002c26 g     F .text	000000b8 NVIC_Init
000002a8 g     F .text	00000032 L610_Init
00002946  w      .text	00000000 PVD_IRQHandler
000029a6  w      .text	00000000 SDIO_IRQHandler
000029d8  w      .text	00000000 TIM9_BRK_IRQHandler
000029ec  w      .text	00000000 DMA2_Channel8_IRQHandler
00000750 g     F .text	00000004 NMI_Handler
000029c6  w      .text	00000000 CAN2_RX1_IRQHandler
00002956  w      .text	00000000 EXTI3_IRQHandler
00004a34 g     O .text	00000474 asc2_1206
000029ce  w      .text	00000000 USBHS_IRQHandler
000008e8 g     F .text	0000003e LCD_Clear
00002f84 g     F .text	0000000c USART_GetFlagStatus
000029ee  w      .text	00000000 DMA2_Channel9_IRQHandler
0000466c g     F .text	0000002a _fstat_r
000029e6  w      .text	00000000 TIM10_CC_IRQHandler
200004f0 g     O .bss	00000004 errno
20000098 g       .bss	00000000 _sbss
00000800 g       *ABS*	00000000 __stack_size
0000340c g     F .text	00000064 USART_Printf_Init
20000098 g     O .bss	00000002 POINT_COLOR
0000049a g     F .text	00000164 L610_SetAndConnect
000007e6 g     F .text	000000b8 LCD_Scan_Dir
00002b38 g     F .text	0000001e FSMC_NORSRAMCmd
00003a44 g     F .text	0000000a _cleanup_r
0000078a g     F .text	0000000e LCD_WriteRAM_Prepare
00002950  w      .text	00000000 EXTI0_IRQHandler
00002986  w      .text	00000000 I2C2_EV_IRQHandler
000029e4  w      .text	00000000 TIM10_TRG_COM_IRQHandler
00003626 g     F .text	0000000a puts
200000d0 g     O .bss	00000004 endptr
20000084 g     O .data	00000004 SystemCoreClock
00002f7a g     F .text	0000000a USART_ReceiveData
0000229a g     F .text	000000b2 LCD_DrawLine
00004740 g     F .text	0000000c _fstat
00000038 g       .init	00000000 _einit
00002e0a g     F .text	0000001e RCC_APB2PeriphClockCmd
000029c8  w      .text	00000000 CAN2_SCE_IRQHandler
00002968  w      .text	00000000 ADC1_2_IRQHandler
00002b56 g     F .text	000000c2 GPIO_Init
0000293e  w      .text	00000000 Break_Point_Handler
2000009c g     O .bss	00000004 NVIC_Priority_Group
0000298a  w      .text	00000000 SPI1_IRQHandler
00002f1e g     F .text	0000001c USART_Cmd
00004532 g     F .text	0000002a _sbrk_r
00002948  w      .text	00000000 TAMPER_IRQHandler
00005498 g     O .text	00000d5c asc2_2412
00004708 g     F .text	0000002c _read_r
00002fd4 g     F .text	00000016 USART_ClearITPendingBit
000029c4  w      .text	00000000 CAN2_RX0_IRQHandler
200000a2 g     O .bss	00000001 recv_ok
0000299c  w      .text	00000000 TIM8_UP_IRQHandler
00002e28 g     F .text	0000001e RCC_APB1PeriphClockCmd
0000293a  w      .text	00000000 Ecall_M_Mode_Handler
20007800 g       .stack	00000000 _heap_end
0000474c g     F .text	0000000c _isatty
000033b0 g     F .text	0000002e Delay_Us
20000094 g     O .data	00000004 _global_impure_ptr
000029b6  w      .text	00000000 DMA2_Channel2_IRQHandler
00002dec g     F .text	0000001e RCC_AHBPeriphClockCmd
00002960  w      .text	00000000 DMA1_Channel4_IRQHandler
000034c0 g     F .text	00000026 _sbrk
200000b0 g     O .bss	00000020 uart_buf
000029da  w      .text	00000000 TIM9_UP_IRQHandler
000032e2 g     F .text	000000a4 USART3_IRQHandler
0000294a  w      .text	00000000 RTC_IRQHandler
0000249c g     F .text	00000040 LCD_Reset_GPIO_Init
200004f4 g       .bss	00000000 _ebss
00002f90 g     F .text	00000044 USART_GetITStatus
200000d4 g     O .bss	00000004 number
00002966  w      .text	00000000 DMA1_Channel7_IRQHandler
0000296e  w      .text	00000000 CAN1_RX1_IRQHandler
00003386 g     F .text	0000002a Delay_Init
000029d0  w      .text	00000000 DVP_IRQHandler
000029ae  w      .text	00000000 UART5_IRQHandler
200000a1 g     O .bss	00000001 USART_Tbuffer_Num
00002c18 g     F .text	00000004 GPIO_SetBits
00002980  w      .text	00000000 TIM4_IRQHandler
00002fea g     F .text	00000176 USARTx_Init
000029b4  w      .text	00000000 DMA2_Channel1_IRQHandler
00007a24 g     O .text	00000020 __sf_fake_stderr
00002982  w      .text	00000000 I2C1_EV_IRQHandler
00002cde g     F .text	0000010e RCC_GetClocksFreq
200000d8 g     O .bss	00000004 strx
00002964  w      .text	00000000 DMA1_Channel6_IRQHandler
00003ea0 g     F .text	00000042 __sfputs_r
000029ac  w      .text	00000000 UART4_IRQHandler
0000089e g     F .text	0000004a LCD_Display_Dir
000029ba  w      .text	00000000 DMA2_Channel4_IRQHandler
000046ea g     F .text	0000001a memchr
00002e46 g     F .text	000000d8 USART_Init
00003cfa g     F .text	000000a8 _free_r
0000297e  w      .text	00000000 TIM3_IRQHandler
0000294e  w      .text	00000000 RCC_IRQHandler
00000798 g     F .text	0000004e LCD_SetCursor
00002978  w      .text	00000000 TIM1_TRG_COM_IRQHandler
0000295a  w      .text	00000000 DMA1_Channel1_IRQHandler
00000000 g       .init	00000000 _start
000029ea  w      .text	00000000 DMA2_Channel7_IRQHandler
20000000 g     O .data	00000010 AHBPrescTable
00003630 g     F .text	0000003e strstr
00004758 g     F .text	0000000c _lseek
00002994  w      .text	00000000 EXTI15_10_IRQHandler
00002f3a g     F .text	00000036 USART_ITConfig
00002c1c g     F .text	00000004 GPIO_ResetBits
000029b2  w      .text	00000000 TIM7_IRQHandler
00004644 g     F .text	00000028 _close_r
000029c2  w      .text	00000000 CAN2_TX_IRQHandler
20000000 g       .dalign	00000000 _data_vma
000029a8  w      .text	00000000 TIM5_IRQHandler
000034e6 g     F .text	00000026 memcmp
00002a7e g     F .text	000000ba FSMC_NORSRAMInit
0000372e g     F .text	0000010c __swsetup_r
00002972  w      .text	00000000 EXTI9_5_IRQHandler
00003afa g     F .text	0000009c __sfp
000003f6 g     F .text	000000a4 L610_RequestIP
0000455c g     F .text	00000030 __sread
000029c0  w      .text	00000000 ETH_WKUP_IRQHandler
00004704 g     F .text	00000002 __malloc_lock
00003976 g     F .text	00000064 _fflush_r
0000298c  w      .text	00000000 SPI2_IRQHandler
00007a44 g     O .text	00000020 __sf_fake_stdin
00000926 g     F .text	00001694 LCD_Init
00000200 g     F .text	000000a8 memset
000024dc g     F .text	0000006a main
00004ea8 g     O .text	000005f0 asc2_1608
000029e0  w      .text	00000000 TIM10_BRK_IRQHandler
00002224 g     F .text	00000076 LCD_Color_Fill
000029de  w      .text	00000000 TIM9_CC_IRQHandler
00004610 g     F .text	00000006 __sclose
000029bc  w      .text	00000000 DMA2_Channel5_IRQHandler
00003da2 g     F .text	000000d4 _malloc_r
00002962  w      .text	00000000 DMA1_Channel5_IRQHandler
00001fba g     F .text	00000070 LCD_Fast_DrawPoint
00002958  w      .text	00000000 EXTI4_IRQHandler
000033de g     F .text	0000002e Delay_Ms
0000296c  w      .text	00000000 USB_LP_CAN1_RX0_IRQHandler
200000dc g     O .bss	00000400 USART_Rbuffer
0000278c g     F .text	000000fa SystemInit
000029a2  w      .text	00000000 RNG_IRQHandler
0000350c g     F .text	00000040 iprintf
0000296a  w      .text	00000000 USB_HP_CAN1_TX_IRQHandler
00000000 g       .init	00000000 _sinit
00002546 g     F .text	00000246 renderMainPage
200004e0 g     O .bss	0000000e lcddev
00004616 g     F .text	0000002e _write_r
0000295e  w      .text	00000000 DMA1_Channel3_IRQHandler
000029a4  w      .text	00000000 FSMC_IRQHandler
000029be  w      .text	00000000 ETH_IRQHandler
0000417c g     F .text	0000010c _printf_common
20000090 g     O .data	00000004 _impure_ptr
00002976  w      .text	00000000 TIM1_UP_IRQHandler
0000383a g     F .text	0000013c __sflush_r
0000238e g     F .text	0000010e LCD_Draw_Circle
00002944  w      .text	00000000 WWDG_IRQHandler
000029cc  w      .text	00000000 USBHSWakeup_IRQHandler
000029f2  w      .text	00000000 DMA2_Channel11_IRQHandler
0000293c  w      .text	00000000 Ecall_U_Mode_Handler
000029e8  w      .text	00000000 DMA2_Channel6_IRQHandler
0000297c  w      .text	00000000 TIM2_IRQHandler
20008000 g       .stack	00000000 _eusrstack
00002942  w      .text	00000000 SW_Handler
00002974  w      .text	00000000 TIM1_BRK_IRQHandler
00003c02 g     F .text	0000005a __swhatbuf_r
00002f70 g     F .text	0000000a USART_SendData
000029f0  w      .text	00000000 DMA2_Channel10_IRQHandler
000002da g     F .text	0000011c L610_Lookup
00002952  w      .text	00000000 EXTI1_IRQHandler
0000069e g     F .text	000000b2 L610_Pub
200000a0 g     O .bss	00000001 USART_Rbuffer_Num
00003470 g     F .text	00000050 _write
20000098 g       .data	00000000 _edata
200004f4 g       .bss	00000000 _end
000005fe g     F .text	000000a0 L610_Sub
000061f4 g     O .text	000017c0 asc2_3216
00002996  w      .text	00000000 RTCAlarm_IRQHandler
00007ac0 g       .dlalign	00000000 _data_lma
000029e2  w      .text	00000000 TIM10_UP_IRQHandler
000029dc  w      .text	00000000 TIM9_TRG_COM_IRQHandler
000029d4  w      .text	00000000 UART7_IRQHandler
00003242 g     F .text	000000a0 USART2_IRQHandler
000029d2  w      .text	00000000 UART6_IRQHandler
0000458c g     F .text	0000004e __swrite
00003ee2 g     F .text	0000029a _vfiprintf_r
00003b96 g     F .text	0000006c _fwalk_reent
00002886 g     F .text	000000b0 SystemCoreClockUpdate
00002988  w      .text	00000000 I2C2_ER_IRQHandler
0000295c  w      .text	00000000 DMA1_Channel2_IRQHandler
00007a64 g     O .text	00000020 __sf_fake_stdout
0000299a  w      .text	00000000 TIM8_BRK_IRQHandler
00004764 g     F .text	0000000c _read
000029f4  w      .text	00000000 handle_reset
00002970  w      .text	00000000 CAN1_SCE_IRQHandler
0000294c  w      .text	00000000 FLASH_IRQHandler
0000219c g     F .text	00000088 LCD_ShowString
200000a3 g     O .bss	00000001 uart_cnt
0000317c g     F .text	000000c6 USART1_IRQHandler
00003c5c g     F .text	0000009e __smakebuf_r
000029ca  w      .text	00000000 OTG_FS_IRQHandler
00004288 g     F .text	000002aa _printf_i
000029aa  w      .text	00000000 SPI3_IRQHandler
200000ac g     O .bss	00000004 __malloc_sbrk_start
00002984  w      .text	00000000 I2C1_ER_IRQHandler
00002c20 g     F .text	00000006 NVIC_PriorityGroupConfig
200000a8 g     O .bss	00000004 __malloc_free_list
200004dc g     O .bss	00000004 len
00003ee2 g     F .text	0000029a _vfprintf_r
00000756 g     F .text	0000001c LCD_RD_DATA
00000772 g     F .text	00000018 LCD_ReadReg
00002998  w      .text	00000000 USBWakeUp_IRQHandler
00004734 g     F .text	0000000c _close
0000234c g     F .text	00000042 LCD_DrawRectangle
000029b8  w      .text	00000000 DMA2_Channel3_IRQHandler



Disassembly of section .init:

00000000 <_sinit>:
   0:	1f50206f          	j	29f4 <handle_reset>
   4:	00000013          	nop
   8:	00000013          	nop
   c:	00000013          	nop
  10:	00000013          	nop
  14:	00000013          	nop
  18:	00000013          	nop
  1c:	00000013          	nop
  20:	00000013          	nop
  24:	00000013          	nop
  28:	00000013          	nop
  2c:	00000013          	nop
  30:	00000013          	nop
  34:	00100073          	ebreak

Disassembly of section .vector:

00000038 <_vector_base>:
	...
  40:	0750                	addi	a2,sp,900
  42:	0000                	unimp
  44:	0754                	addi	a3,sp,900
  46:	0000                	unimp
  48:	0000                	unimp
  4a:	0000                	unimp
  4c:	293a                	fld	fs2,392(sp)
	...
  56:	0000                	unimp
  58:	293c                	fld	fa5,80(a0)
  5a:	0000                	unimp
  5c:	293e                	fld	fs2,456(sp)
	...
  66:	0000                	unimp
  68:	2940                	fld	fs0,144(a0)
  6a:	0000                	unimp
  6c:	0000                	unimp
  6e:	0000                	unimp
  70:	2942                	fld	fs2,16(sp)
  72:	0000                	unimp
  74:	0000                	unimp
  76:	0000                	unimp
  78:	2944                	fld	fs1,144(a0)
  7a:	0000                	unimp
  7c:	2946                	fld	fs2,80(sp)
  7e:	0000                	unimp
  80:	2948                	fld	fa0,144(a0)
  82:	0000                	unimp
  84:	294a                	fld	fs2,144(sp)
  86:	0000                	unimp
  88:	294c                	fld	fa1,144(a0)
  8a:	0000                	unimp
  8c:	294e                	fld	fs2,208(sp)
  8e:	0000                	unimp
  90:	2950                	fld	fa2,144(a0)
  92:	0000                	unimp
  94:	2952                	fld	fs2,272(sp)
  96:	0000                	unimp
  98:	2954                	fld	fa3,144(a0)
  9a:	0000                	unimp
  9c:	2956                	fld	fs2,336(sp)
  9e:	0000                	unimp
  a0:	2958                	fld	fa4,144(a0)
  a2:	0000                	unimp
  a4:	295a                	fld	fs2,400(sp)
  a6:	0000                	unimp
  a8:	295c                	fld	fa5,144(a0)
  aa:	0000                	unimp
  ac:	295e                	fld	fs2,464(sp)
  ae:	0000                	unimp
  b0:	2960                	fld	fs0,208(a0)
  b2:	0000                	unimp
  b4:	2962                	fld	fs2,24(sp)
  b6:	0000                	unimp
  b8:	2964                	fld	fs1,208(a0)
  ba:	0000                	unimp
  bc:	2966                	fld	fs2,88(sp)
  be:	0000                	unimp
  c0:	2968                	fld	fa0,208(a0)
  c2:	0000                	unimp
  c4:	296a                	fld	fs2,152(sp)
  c6:	0000                	unimp
  c8:	296c                	fld	fa1,208(a0)
  ca:	0000                	unimp
  cc:	296e                	fld	fs2,216(sp)
  ce:	0000                	unimp
  d0:	2970                	fld	fa2,208(a0)
  d2:	0000                	unimp
  d4:	2972                	fld	fs2,280(sp)
  d6:	0000                	unimp
  d8:	2974                	fld	fa3,208(a0)
  da:	0000                	unimp
  dc:	2976                	fld	fs2,344(sp)
  de:	0000                	unimp
  e0:	2978                	fld	fa4,208(a0)
  e2:	0000                	unimp
  e4:	297a                	fld	fs2,408(sp)
  e6:	0000                	unimp
  e8:	297c                	fld	fa5,208(a0)
  ea:	0000                	unimp
  ec:	297e                	fld	fs2,472(sp)
  ee:	0000                	unimp
  f0:	2980                	fld	fs0,16(a1)
  f2:	0000                	unimp
  f4:	2982                	fld	fs3,0(sp)
  f6:	0000                	unimp
  f8:	2984                	fld	fs1,16(a1)
  fa:	0000                	unimp
  fc:	2986                	fld	fs3,64(sp)
  fe:	0000                	unimp
 100:	2988                	fld	fa0,16(a1)
 102:	0000                	unimp
 104:	298a                	fld	fs3,128(sp)
 106:	0000                	unimp
 108:	298c                	fld	fa1,16(a1)
 10a:	0000                	unimp
 10c:	317c                	fld	fa5,224(a0)
 10e:	0000                	unimp
 110:	3242                	fld	ft4,48(sp)
 112:	0000                	unimp
 114:	32e2                	fld	ft5,56(sp)
 116:	0000                	unimp
 118:	2994                	fld	fa3,16(a1)
 11a:	0000                	unimp
 11c:	2996                	fld	fs3,320(sp)
 11e:	0000                	unimp
 120:	2998                	fld	fa4,16(a1)
 122:	0000                	unimp
 124:	299a                	fld	fs3,384(sp)
 126:	0000                	unimp
 128:	299c                	fld	fa5,16(a1)
 12a:	0000                	unimp
 12c:	299e                	fld	fs3,448(sp)
 12e:	0000                	unimp
 130:	29a0                	fld	fs0,80(a1)
 132:	0000                	unimp
 134:	29a2                	fld	fs3,8(sp)
 136:	0000                	unimp
 138:	29a4                	fld	fs1,80(a1)
 13a:	0000                	unimp
 13c:	29a6                	fld	fs3,72(sp)
 13e:	0000                	unimp
 140:	29a8                	fld	fa0,80(a1)
 142:	0000                	unimp
 144:	29aa                	fld	fs3,136(sp)
 146:	0000                	unimp
 148:	29ac                	fld	fa1,80(a1)
 14a:	0000                	unimp
 14c:	29ae                	fld	fs3,200(sp)
 14e:	0000                	unimp
 150:	29b0                	fld	fa2,80(a1)
 152:	0000                	unimp
 154:	29b2                	fld	fs3,264(sp)
 156:	0000                	unimp
 158:	29b4                	fld	fa3,80(a1)
 15a:	0000                	unimp
 15c:	29b6                	fld	fs3,328(sp)
 15e:	0000                	unimp
 160:	29b8                	fld	fa4,80(a1)
 162:	0000                	unimp
 164:	29ba                	fld	fs3,392(sp)
 166:	0000                	unimp
 168:	29bc                	fld	fa5,80(a1)
 16a:	0000                	unimp
 16c:	29be                	fld	fs3,456(sp)
 16e:	0000                	unimp
 170:	29c0                	fld	fs0,144(a1)
 172:	0000                	unimp
 174:	29c2                	fld	fs3,16(sp)
 176:	0000                	unimp
 178:	29c4                	fld	fs1,144(a1)
 17a:	0000                	unimp
 17c:	29c6                	fld	fs3,80(sp)
 17e:	0000                	unimp
 180:	29c8                	fld	fa0,144(a1)
 182:	0000                	unimp
 184:	29ca                	fld	fs3,144(sp)
 186:	0000                	unimp
 188:	29cc                	fld	fa1,144(a1)
 18a:	0000                	unimp
 18c:	29ce                	fld	fs3,208(sp)
 18e:	0000                	unimp
 190:	29d0                	fld	fa2,144(a1)
 192:	0000                	unimp
 194:	29d2                	fld	fs3,272(sp)
 196:	0000                	unimp
 198:	29d4                	fld	fa3,144(a1)
 19a:	0000                	unimp
 19c:	29d6                	fld	fs3,336(sp)
 19e:	0000                	unimp
 1a0:	29d8                	fld	fa4,144(a1)
 1a2:	0000                	unimp
 1a4:	29da                	fld	fs3,400(sp)
 1a6:	0000                	unimp
 1a8:	29dc                	fld	fa5,144(a1)
 1aa:	0000                	unimp
 1ac:	29de                	fld	fs3,464(sp)
 1ae:	0000                	unimp
 1b0:	29e0                	fld	fs0,208(a1)
 1b2:	0000                	unimp
 1b4:	29e2                	fld	fs3,24(sp)
 1b6:	0000                	unimp
 1b8:	29e4                	fld	fs1,208(a1)
 1ba:	0000                	unimp
 1bc:	29e6                	fld	fs3,88(sp)
 1be:	0000                	unimp
 1c0:	29e8                	fld	fa0,208(a1)
 1c2:	0000                	unimp
 1c4:	29ea                	fld	fs3,152(sp)
 1c6:	0000                	unimp
 1c8:	29ec                	fld	fa1,208(a1)
 1ca:	0000                	unimp
 1cc:	29ee                	fld	fs3,216(sp)
 1ce:	0000                	unimp
 1d0:	29f0                	fld	fa2,208(a1)
 1d2:	0000                	unimp
 1d4:	29f2                	fld	fs3,280(sp)
	...

Disassembly of section .text:

00000200 <memset>:
     200:	433d                	li	t1,15
     202:	872a                	mv	a4,a0
     204:	02c37363          	bgeu	t1,a2,22a <memset+0x2a>
     208:	00f77793          	andi	a5,a4,15
     20c:	efbd                	bnez	a5,28a <memset+0x8a>
     20e:	e5ad                	bnez	a1,278 <memset+0x78>
     210:	ff067693          	andi	a3,a2,-16
     214:	8a3d                	andi	a2,a2,15
     216:	96ba                	add	a3,a3,a4
     218:	c30c                	sw	a1,0(a4)
     21a:	c34c                	sw	a1,4(a4)
     21c:	c70c                	sw	a1,8(a4)
     21e:	c74c                	sw	a1,12(a4)
     220:	0741                	addi	a4,a4,16
     222:	fed76be3          	bltu	a4,a3,218 <memset+0x18>
     226:	e211                	bnez	a2,22a <memset+0x2a>
     228:	8082                	ret
     22a:	40c306b3          	sub	a3,t1,a2
     22e:	068a                	slli	a3,a3,0x2
     230:	00000297          	auipc	t0,0x0
     234:	9696                	add	a3,a3,t0
     236:	00a68067          	jr	10(a3)
     23a:	00b70723          	sb	a1,14(a4)
     23e:	00b706a3          	sb	a1,13(a4)
     242:	00b70623          	sb	a1,12(a4)
     246:	00b705a3          	sb	a1,11(a4)
     24a:	00b70523          	sb	a1,10(a4)
     24e:	00b704a3          	sb	a1,9(a4)
     252:	00b70423          	sb	a1,8(a4)
     256:	00b703a3          	sb	a1,7(a4)
     25a:	00b70323          	sb	a1,6(a4)
     25e:	00b702a3          	sb	a1,5(a4)
     262:	00b70223          	sb	a1,4(a4)
     266:	00b701a3          	sb	a1,3(a4)
     26a:	00b70123          	sb	a1,2(a4)
     26e:	00b700a3          	sb	a1,1(a4)
     272:	00b70023          	sb	a1,0(a4)
     276:	8082                	ret
     278:	0ff5f593          	andi	a1,a1,255
     27c:	00859693          	slli	a3,a1,0x8
     280:	8dd5                	or	a1,a1,a3
     282:	01059693          	slli	a3,a1,0x10
     286:	8dd5                	or	a1,a1,a3
     288:	b761                	j	210 <memset+0x10>
     28a:	00279693          	slli	a3,a5,0x2
     28e:	00000297          	auipc	t0,0x0
     292:	9696                	add	a3,a3,t0
     294:	8286                	mv	t0,ra
     296:	fa8680e7          	jalr	-88(a3)
     29a:	8096                	mv	ra,t0
     29c:	17c1                	addi	a5,a5,-16
     29e:	8f1d                	sub	a4,a4,a5
     2a0:	963e                	add	a2,a2,a5
     2a2:	f8c374e3          	bgeu	t1,a2,22a <memset+0x2a>
     2a6:	b7a5                	j	20e <memset+0xe>

000002a8 <L610_Init>:
     2a8:	00004537          	lui	a0,0x4
     2ac:	1141                	addi	sp,sp,-16
     2ae:	77050513          	addi	a0,a0,1904 # 4770 <_read+0xc>
     2b2:	c606                	sw	ra,12(sp)
     2b4:	372030ef          	jal	ra,3626 <puts>
     2b8:	6505                	lui	a0,0x1
     2ba:	38850513          	addi	a0,a0,904 # 1388 <LCD_Init+0xa62>
     2be:	120030ef          	jal	ra,33de <Delay_Ms>
     2c2:	00004537          	lui	a0,0x4
     2c6:	77c50513          	addi	a0,a0,1916 # 477c <_read+0x18>
     2ca:	35c030ef          	jal	ra,3626 <puts>
     2ce:	40b2                	lw	ra,12(sp)
     2d0:	3e800513          	li	a0,1000
     2d4:	0141                	addi	sp,sp,16
     2d6:	1080306f          	j	33de <Delay_Ms>

000002da <L610_Lookup>:
     2da:	1101                	addi	sp,sp,-32
     2dc:	c84a                	sw	s2,16(sp)
     2de:	00004937          	lui	s2,0x4
     2e2:	78090513          	addi	a0,s2,1920 # 4780 <_read+0x1c>
     2e6:	ce06                	sw	ra,28(sp)
     2e8:	cc22                	sw	s0,24(sp)
     2ea:	ca26                	sw	s1,20(sp)
     2ec:	c64e                	sw	s3,12(sp)
     2ee:	c452                	sw	s4,8(sp)
     2f0:	c256                	sw	s5,4(sp)
     2f2:	334030ef          	jal	ra,3626 <puts>
     2f6:	3e800513          	li	a0,1000
     2fa:	0e4030ef          	jal	ra,33de <Delay_Ms>
     2fe:	000049b7          	lui	s3,0x4
     302:	200004b7          	lui	s1,0x20000
     306:	78898593          	addi	a1,s3,1928 # 4788 <_read+0x24>
     30a:	0dc48513          	addi	a0,s1,220 # 200000dc <USART_Rbuffer>
     30e:	322030ef          	jal	ra,3630 <strstr>
     312:	84a1ac23          	sw	a0,-1960(gp) # 200000d8 <strx>
     316:	00004a37          	lui	s4,0x4
     31a:	8581a783          	lw	a5,-1960(gp) # 200000d8 <strx>
     31e:	c7b5                	beqz	a5,38a <L610_Lookup+0xb0>
     320:	00004537          	lui	a0,0x4
     324:	7a050513          	addi	a0,a0,1952 # 47a0 <_read+0x3c>
     328:	2fe030ef          	jal	ra,3626 <puts>
     32c:	3e800513          	li	a0,1000
     330:	0ae030ef          	jal	ra,33de <Delay_Ms>
     334:	00004937          	lui	s2,0x4
     338:	7b090513          	addi	a0,s2,1968 # 47b0 <_read+0x4c>
     33c:	2ea030ef          	jal	ra,3626 <puts>
     340:	3e800513          	li	a0,1000
     344:	09a030ef          	jal	ra,33de <Delay_Ms>
     348:	000049b7          	lui	s3,0x4
     34c:	7bc98593          	addi	a1,s3,1980 # 47bc <_read+0x58>
     350:	0dc48513          	addi	a0,s1,220
     354:	2dc030ef          	jal	ra,3630 <strstr>
     358:	84a1ac23          	sw	a0,-1960(gp) # 200000d8 <strx>
     35c:	00004a37          	lui	s4,0x4
     360:	8581a783          	lw	a5,-1960(gp) # 200000d8 <strx>
     364:	cfb1                	beqz	a5,3c0 <L610_Lookup+0xe6>
     366:	00004537          	lui	a0,0x4
     36a:	7d450513          	addi	a0,a0,2004 # 47d4 <_read+0x70>
     36e:	2b8030ef          	jal	ra,3626 <puts>
     372:	4462                	lw	s0,24(sp)
     374:	40f2                	lw	ra,28(sp)
     376:	44d2                	lw	s1,20(sp)
     378:	4942                	lw	s2,16(sp)
     37a:	49b2                	lw	s3,12(sp)
     37c:	4a22                	lw	s4,8(sp)
     37e:	4a92                	lw	s5,4(sp)
     380:	3e800513          	li	a0,1000
     384:	6105                	addi	sp,sp,32
     386:	0580306f          	j	33de <Delay_Ms>
     38a:	790a0513          	addi	a0,s4,1936 # 4790 <_read+0x2c>
     38e:	298030ef          	jal	ra,3626 <puts>
     392:	3e800513          	li	a0,1000
     396:	048030ef          	jal	ra,33de <Delay_Ms>
     39a:	78090513          	addi	a0,s2,1920
     39e:	82018023          	sb	zero,-2016(gp) # 200000a0 <USART_Rbuffer_Num>
     3a2:	284030ef          	jal	ra,3626 <puts>
     3a6:	3e800513          	li	a0,1000
     3aa:	034030ef          	jal	ra,33de <Delay_Ms>
     3ae:	78898593          	addi	a1,s3,1928
     3b2:	0dc48513          	addi	a0,s1,220
     3b6:	27a030ef          	jal	ra,3630 <strstr>
     3ba:	84a1ac23          	sw	a0,-1960(gp) # 200000d8 <strx>
     3be:	bfb1                	j	31a <L610_Lookup+0x40>
     3c0:	7c8a0513          	addi	a0,s4,1992
     3c4:	262030ef          	jal	ra,3626 <puts>
     3c8:	3e800513          	li	a0,1000
     3cc:	012030ef          	jal	ra,33de <Delay_Ms>
     3d0:	7b090513          	addi	a0,s2,1968
     3d4:	82018023          	sb	zero,-2016(gp) # 200000a0 <USART_Rbuffer_Num>
     3d8:	24e030ef          	jal	ra,3626 <puts>
     3dc:	3e800513          	li	a0,1000
     3e0:	7ff020ef          	jal	ra,33de <Delay_Ms>
     3e4:	7bc98593          	addi	a1,s3,1980
     3e8:	0dc48513          	addi	a0,s1,220
     3ec:	244030ef          	jal	ra,3630 <strstr>
     3f0:	84a1ac23          	sw	a0,-1960(gp) # 200000d8 <strx>
     3f4:	b7b5                	j	360 <L610_Lookup+0x86>

000003f6 <L610_RequestIP>:
     3f6:	00005537          	lui	a0,0x5
     3fa:	1101                	addi	sp,sp,-32
     3fc:	89050513          	addi	a0,a0,-1904 # 4890 <_read+0x12c>
     400:	ce06                	sw	ra,28(sp)
     402:	cc22                	sw	s0,24(sp)
     404:	ca26                	sw	s1,20(sp)
     406:	c84a                	sw	s2,16(sp)
     408:	c64e                	sw	s3,12(sp)
     40a:	c452                	sw	s4,8(sp)
     40c:	c256                	sw	s5,4(sp)
     40e:	218030ef          	jal	ra,3626 <puts>
     412:	7d000513          	li	a0,2000
     416:	7c9020ef          	jal	ra,33de <Delay_Ms>
     41a:	000054b7          	lui	s1,0x5
     41e:	20000937          	lui	s2,0x20000
     422:	8a048593          	addi	a1,s1,-1888 # 48a0 <_read+0x13c>
     426:	0dc90513          	addi	a0,s2,220 # 200000dc <USART_Rbuffer>
     42a:	206030ef          	jal	ra,3630 <strstr>
     42e:	84a1ac23          	sw	a0,-1960(gp) # 200000d8 <strx>
     432:	000059b7          	lui	s3,0x5
     436:	00005ab7          	lui	s5,0x5
     43a:	8581a783          	lw	a5,-1960(gp) # 200000d8 <strx>
     43e:	c39d                	beqz	a5,464 <L610_RequestIP+0x6e>
     440:	00005537          	lui	a0,0x5
     444:	8cc50513          	addi	a0,a0,-1844 # 48cc <_read+0x168>
     448:	1de030ef          	jal	ra,3626 <puts>
     44c:	4462                	lw	s0,24(sp)
     44e:	40f2                	lw	ra,28(sp)
     450:	44d2                	lw	s1,20(sp)
     452:	4942                	lw	s2,16(sp)
     454:	49b2                	lw	s3,12(sp)
     456:	4a22                	lw	s4,8(sp)
     458:	4a92                	lw	s5,4(sp)
     45a:	3e800513          	li	a0,1000
     45e:	6105                	addi	sp,sp,32
     460:	77f0206f          	j	33de <Delay_Ms>
     464:	8ac98513          	addi	a0,s3,-1876 # 48ac <_read+0x148>
     468:	1be030ef          	jal	ra,3626 <puts>
     46c:	7d000513          	li	a0,2000
     470:	76f020ef          	jal	ra,33de <Delay_Ms>
     474:	8bca8513          	addi	a0,s5,-1860 # 48bc <_read+0x158>
     478:	82018023          	sb	zero,-2016(gp) # 200000a0 <USART_Rbuffer_Num>
     47c:	1aa030ef          	jal	ra,3626 <puts>
     480:	7d000513          	li	a0,2000
     484:	75b020ef          	jal	ra,33de <Delay_Ms>
     488:	8a048593          	addi	a1,s1,-1888
     48c:	0dc90513          	addi	a0,s2,220
     490:	1a0030ef          	jal	ra,3630 <strstr>
     494:	84a1ac23          	sw	a0,-1960(gp) # 200000d8 <strx>
     498:	b74d                	j	43a <L610_RequestIP+0x44>

0000049a <L610_SetAndConnect>:
     49a:	7179                	addi	sp,sp,-48
     49c:	cc52                	sw	s4,24(sp)
     49e:	00005a37          	lui	s4,0x5
     4a2:	8d8a0513          	addi	a0,s4,-1832 # 48d8 <_read+0x174>
     4a6:	d606                	sw	ra,44(sp)
     4a8:	d422                	sw	s0,40(sp)
     4aa:	d226                	sw	s1,36(sp)
     4ac:	d04a                	sw	s2,32(sp)
     4ae:	ce4e                	sw	s3,28(sp)
     4b0:	ca56                	sw	s5,20(sp)
     4b2:	c85a                	sw	s6,16(sp)
     4b4:	c65e                	sw	s7,12(sp)
     4b6:	c462                	sw	s8,8(sp)
     4b8:	16e030ef          	jal	ra,3626 <puts>
     4bc:	3e800513          	li	a0,1000
     4c0:	71f020ef          	jal	ra,33de <Delay_Ms>
     4c4:	00005937          	lui	s2,0x5
     4c8:	200004b7          	lui	s1,0x20000
     4cc:	92090593          	addi	a1,s2,-1760 # 4920 <_read+0x1bc>
     4d0:	0dc48513          	addi	a0,s1,220 # 200000dc <USART_Rbuffer>
     4d4:	15c030ef          	jal	ra,3630 <strstr>
     4d8:	84a1ac23          	sw	a0,-1960(gp) # 200000d8 <strx>
     4dc:	000059b7          	lui	s3,0x5
     4e0:	8581a783          	lw	a5,-1960(gp) # 200000d8 <strx>
     4e4:	cfad                	beqz	a5,55e <L610_SetAndConnect+0xc4>
     4e6:	00005537          	lui	a0,0x5
     4ea:	94850513          	addi	a0,a0,-1720 # 4948 <_read+0x1e4>
     4ee:	138030ef          	jal	ra,3626 <puts>
     4f2:	3e800513          	li	a0,1000
     4f6:	6e9020ef          	jal	ra,33de <Delay_Ms>
     4fa:	00005937          	lui	s2,0x5
     4fe:	95c90513          	addi	a0,s2,-1700 # 495c <_read+0x1f8>
     502:	124030ef          	jal	ra,3626 <puts>
     506:	7d000513          	li	a0,2000
     50a:	6d5020ef          	jal	ra,33de <Delay_Ms>
     50e:	000059b7          	lui	s3,0x5
     512:	97c98593          	addi	a1,s3,-1668 # 497c <_read+0x218>
     516:	0dc48513          	addi	a0,s1,220
     51a:	116030ef          	jal	ra,3630 <strstr>
     51e:	84a1ac23          	sw	a0,-1960(gp) # 200000d8 <strx>
     522:	00005ab7          	lui	s5,0x5
     526:	00005b37          	lui	s6,0x5
     52a:	00005bb7          	lui	s7,0x5
     52e:	8581a783          	lw	a5,-1960(gp) # 200000d8 <strx>
     532:	c3ad                	beqz	a5,594 <L610_SetAndConnect+0xfa>
     534:	00005537          	lui	a0,0x5
     538:	9bc50513          	addi	a0,a0,-1604 # 49bc <_read+0x258>
     53c:	0ea030ef          	jal	ra,3626 <puts>
     540:	5422                	lw	s0,40(sp)
     542:	50b2                	lw	ra,44(sp)
     544:	5492                	lw	s1,36(sp)
     546:	5902                	lw	s2,32(sp)
     548:	49f2                	lw	s3,28(sp)
     54a:	4a62                	lw	s4,24(sp)
     54c:	4ad2                	lw	s5,20(sp)
     54e:	4b42                	lw	s6,16(sp)
     550:	4bb2                	lw	s7,12(sp)
     552:	4c22                	lw	s8,8(sp)
     554:	3e800513          	li	a0,1000
     558:	6145                	addi	sp,sp,48
     55a:	6850206f          	j	33de <Delay_Ms>
     55e:	93498513          	addi	a0,s3,-1740
     562:	0c4030ef          	jal	ra,3626 <puts>
     566:	3e800513          	li	a0,1000
     56a:	675020ef          	jal	ra,33de <Delay_Ms>
     56e:	8d8a0513          	addi	a0,s4,-1832
     572:	82018023          	sb	zero,-2016(gp) # 200000a0 <USART_Rbuffer_Num>
     576:	0b0030ef          	jal	ra,3626 <puts>
     57a:	3e800513          	li	a0,1000
     57e:	661020ef          	jal	ra,33de <Delay_Ms>
     582:	92090593          	addi	a1,s2,-1760
     586:	0dc48513          	addi	a0,s1,220
     58a:	0a6030ef          	jal	ra,3630 <strstr>
     58e:	84a1ac23          	sw	a0,-1960(gp) # 200000d8 <strx>
     592:	b7b9                	j	4e0 <L610_SetAndConnect+0x46>
     594:	98ca8593          	addi	a1,s5,-1652 # 498c <_read+0x228>
     598:	0dc48513          	addi	a0,s1,220
     59c:	094030ef          	jal	ra,3630 <strstr>
     5a0:	84a1ac23          	sw	a0,-1960(gp) # 200000d8 <strx>
     5a4:	ed05                	bnez	a0,5dc <L610_SetAndConnect+0x142>
     5a6:	99cb8513          	addi	a0,s7,-1636 # 499c <_read+0x238>
     5aa:	07c030ef          	jal	ra,3626 <puts>
     5ae:	7d000513          	li	a0,2000
     5b2:	62d020ef          	jal	ra,33de <Delay_Ms>
     5b6:	82018023          	sb	zero,-2016(gp) # 200000a0 <USART_Rbuffer_Num>
     5ba:	95c90513          	addi	a0,s2,-1700
     5be:	068030ef          	jal	ra,3626 <puts>
     5c2:	7d000513          	li	a0,2000
     5c6:	619020ef          	jal	ra,33de <Delay_Ms>
     5ca:	97c98593          	addi	a1,s3,-1668
     5ce:	0dc48513          	addi	a0,s1,220
     5d2:	05e030ef          	jal	ra,3630 <strstr>
     5d6:	84a1ac23          	sw	a0,-1960(gp) # 200000d8 <strx>
     5da:	bf91                	j	52e <L610_SetAndConnect+0x94>
     5dc:	9a8b0513          	addi	a0,s6,-1624 # 49a8 <_read+0x244>
     5e0:	046030ef          	jal	ra,3626 <puts>
     5e4:	06400513          	li	a0,100
     5e8:	5f7020ef          	jal	ra,33de <Delay_Ms>
     5ec:	8d8a0513          	addi	a0,s4,-1832
     5f0:	036030ef          	jal	ra,3626 <puts>
     5f4:	06400513          	li	a0,100
     5f8:	5e7020ef          	jal	ra,33de <Delay_Ms>
     5fc:	bf7d                	j	5ba <L610_SetAndConnect+0x120>

000005fe <L610_Sub>:
     5fe:	1101                	addi	sp,sp,-32
     600:	ca26                	sw	s1,20(sp)
     602:	000054b7          	lui	s1,0x5
     606:	9c848513          	addi	a0,s1,-1592 # 49c8 <_read+0x264>
     60a:	ce06                	sw	ra,28(sp)
     60c:	cc22                	sw	s0,24(sp)
     60e:	c84a                	sw	s2,16(sp)
     610:	c64e                	sw	s3,12(sp)
     612:	c452                	sw	s4,8(sp)
     614:	c256                	sw	s5,4(sp)
     616:	010030ef          	jal	ra,3626 <puts>
     61a:	3e800513          	li	a0,1000
     61e:	5c1020ef          	jal	ra,33de <Delay_Ms>
     622:	00005937          	lui	s2,0x5
     626:	200009b7          	lui	s3,0x20000
     62a:	a0490593          	addi	a1,s2,-1532 # 4a04 <_read+0x2a0>
     62e:	0dc98513          	addi	a0,s3,220 # 200000dc <USART_Rbuffer>
     632:	7ff020ef          	jal	ra,3630 <strstr>
     636:	84a1ac23          	sw	a0,-1960(gp) # 200000d8 <strx>
     63a:	00005a37          	lui	s4,0x5
     63e:	8581a783          	lw	a5,-1960(gp) # 200000d8 <strx>
     642:	c39d                	beqz	a5,668 <L610_Sub+0x6a>
     644:	00005537          	lui	a0,0x5
     648:	a2450513          	addi	a0,a0,-1500 # 4a24 <_read+0x2c0>
     64c:	7db020ef          	jal	ra,3626 <puts>
     650:	4462                	lw	s0,24(sp)
     652:	40f2                	lw	ra,28(sp)
     654:	44d2                	lw	s1,20(sp)
     656:	4942                	lw	s2,16(sp)
     658:	49b2                	lw	s3,12(sp)
     65a:	4a22                	lw	s4,8(sp)
     65c:	4a92                	lw	s5,4(sp)
     65e:	3e800513          	li	a0,1000
     662:	6105                	addi	sp,sp,32
     664:	57b0206f          	j	33de <Delay_Ms>
     668:	a14a0513          	addi	a0,s4,-1516 # 4a14 <_read+0x2b0>
     66c:	7bb020ef          	jal	ra,3626 <puts>
     670:	3e800513          	li	a0,1000
     674:	56b020ef          	jal	ra,33de <Delay_Ms>
     678:	9c848513          	addi	a0,s1,-1592
     67c:	82018023          	sb	zero,-2016(gp) # 200000a0 <USART_Rbuffer_Num>
     680:	7a7020ef          	jal	ra,3626 <puts>
     684:	3e800513          	li	a0,1000
     688:	557020ef          	jal	ra,33de <Delay_Ms>
     68c:	a0490593          	addi	a1,s2,-1532
     690:	0dc98513          	addi	a0,s3,220
     694:	79d020ef          	jal	ra,3630 <strstr>
     698:	84a1ac23          	sw	a0,-1960(gp) # 200000d8 <strx>
     69c:	b74d                	j	63e <L610_Sub+0x40>

0000069e <L610_Pub>:
     69e:	1101                	addi	sp,sp,-32
     6a0:	c84a                	sw	s2,16(sp)
     6a2:	00004937          	lui	s2,0x4
     6a6:	85aa                	mv	a1,a0
     6a8:	c256                	sw	s5,4(sp)
     6aa:	8aaa                	mv	s5,a0
     6ac:	7e090513          	addi	a0,s2,2016 # 47e0 <_read+0x7c>
     6b0:	ce06                	sw	ra,28(sp)
     6b2:	cc22                	sw	s0,24(sp)
     6b4:	ca26                	sw	s1,20(sp)
     6b6:	c64e                	sw	s3,12(sp)
     6b8:	c452                	sw	s4,8(sp)
     6ba:	c05a                	sw	s6,0(sp)
     6bc:	000059b7          	lui	s3,0x5
     6c0:	64d020ef          	jal	ra,350c <iprintf>
     6c4:	20000437          	lui	s0,0x20000
     6c8:	87098593          	addi	a1,s3,-1936 # 4870 <_read+0x10c>
     6cc:	0dc40513          	addi	a0,s0,220 # 200000dc <USART_Rbuffer>
     6d0:	761020ef          	jal	ra,3630 <strstr>
     6d4:	84a1ac23          	sw	a0,-1960(gp) # 200000d8 <strx>
     6d8:	00005b37          	lui	s6,0x5
     6dc:	8581a783          	lw	a5,-1960(gp) # 200000d8 <strx>
     6e0:	cf85                	beqz	a5,718 <L610_Pub+0x7a>
     6e2:	00005537          	lui	a0,0x5
     6e6:	88450513          	addi	a0,a0,-1916 # 4884 <_read+0x120>
     6ea:	73d020ef          	jal	ra,3626 <puts>
     6ee:	06400513          	li	a0,100
     6f2:	4ed020ef          	jal	ra,33de <Delay_Ms>
     6f6:	0dc40513          	addi	a0,s0,220
     6fa:	4462                	lw	s0,24(sp)
     6fc:	82018023          	sb	zero,-2016(gp) # 200000a0 <USART_Rbuffer_Num>
     700:	40f2                	lw	ra,28(sp)
     702:	44d2                	lw	s1,20(sp)
     704:	4942                	lw	s2,16(sp)
     706:	49b2                	lw	s3,12(sp)
     708:	4a22                	lw	s4,8(sp)
     70a:	4a92                	lw	s5,4(sp)
     70c:	4b02                	lw	s6,0(sp)
     70e:	40000613          	li	a2,1024
     712:	4581                	li	a1,0
     714:	6105                	addi	sp,sp,32
     716:	b4ed                	j	200 <memset>
     718:	878b0513          	addi	a0,s6,-1928 # 4878 <_read+0x114>
     71c:	70b020ef          	jal	ra,3626 <puts>
     720:	3e800513          	li	a0,1000
     724:	4bb020ef          	jal	ra,33de <Delay_Ms>
     728:	85d6                	mv	a1,s5
     72a:	7e090513          	addi	a0,s2,2016
     72e:	82018023          	sb	zero,-2016(gp) # 200000a0 <USART_Rbuffer_Num>
     732:	5db020ef          	jal	ra,350c <iprintf>
     736:	3e800513          	li	a0,1000
     73a:	4a5020ef          	jal	ra,33de <Delay_Ms>
     73e:	87098593          	addi	a1,s3,-1936
     742:	0dc40513          	addi	a0,s0,220
     746:	6eb020ef          	jal	ra,3630 <strstr>
     74a:	84a1ac23          	sw	a0,-1960(gp) # 200000d8 <strx>
     74e:	b779                	j	6dc <L610_Pub+0x3e>

00000750 <NMI_Handler>:
     750:	30200073          	mret

00000754 <HardFault_Handler>:
     754:	a001                	j	754 <HardFault_Handler>

00000756 <LCD_RD_DATA>:
     756:	600407b7          	lui	a5,0x60040
     75a:	17f9                	addi	a5,a5,-2
     75c:	0027d783          	lhu	a5,2(a5) # 60040002 <_eusrstack+0x40038002>
     760:	1141                	addi	sp,sp,-16
     762:	07c2                	slli	a5,a5,0x10
     764:	83c1                	srli	a5,a5,0x10
     766:	00f11723          	sh	a5,14(sp)
     76a:	00e15503          	lhu	a0,14(sp)
     76e:	0141                	addi	sp,sp,16
     770:	8082                	ret

00000772 <LCD_ReadReg>:
     772:	1141                	addi	sp,sp,-16
     774:	c606                	sw	ra,12(sp)
     776:	600407b7          	lui	a5,0x60040
     77a:	fea79f23          	sh	a0,-2(a5) # 6003fffe <_eusrstack+0x40037ffe>
     77e:	4515                	li	a0,5
     780:	431020ef          	jal	ra,33b0 <Delay_Us>
     784:	40b2                	lw	ra,12(sp)
     786:	0141                	addi	sp,sp,16
     788:	b7f9                	j	756 <LCD_RD_DATA>

0000078a <LCD_WriteRAM_Prepare>:
     78a:	c681d703          	lhu	a4,-920(gp) # 200004e8 <lcddev+0x8>
     78e:	600407b7          	lui	a5,0x60040
     792:	fee79f23          	sh	a4,-2(a5) # 6003fffe <_eusrstack+0x40037ffe>
     796:	8082                	ret

00000798 <LCD_SetCursor>:
     798:	c6018613          	addi	a2,gp,-928 # 200004e0 <lcddev>
     79c:	00a65783          	lhu	a5,10(a2)
     7a0:	60040737          	lui	a4,0x60040
     7a4:	00855813          	srli	a6,a0,0x8
     7a8:	fef71f23          	sh	a5,-2(a4) # 6003fffe <_eusrstack+0x40037ffe>
     7ac:	0785                	addi	a5,a5,1
     7ae:	07c2                	slli	a5,a5,0x10
     7b0:	01071023          	sh	a6,0(a4)
     7b4:	83c1                	srli	a5,a5,0x10
     7b6:	fef71f23          	sh	a5,-2(a4)
     7ba:	0ff57513          	andi	a0,a0,255
     7be:	00a71023          	sh	a0,0(a4)
     7c2:	00c65783          	lhu	a5,12(a2)
     7c6:	0085d613          	srli	a2,a1,0x8
     7ca:	0ff5f593          	andi	a1,a1,255
     7ce:	fef71f23          	sh	a5,-2(a4)
     7d2:	0785                	addi	a5,a5,1
     7d4:	07c2                	slli	a5,a5,0x10
     7d6:	00c71023          	sh	a2,0(a4)
     7da:	83c1                	srli	a5,a5,0x10
     7dc:	fef71f23          	sh	a5,-2(a4)
     7e0:	00b71023          	sh	a1,0(a4)
     7e4:	8082                	ret

000007e6 <LCD_Scan_Dir>:
     7e6:	658d                	lui	a1,0x3
     7e8:	c601d603          	lhu	a2,-928(gp) # 200004e0 <lcddev>
     7ec:	600407b7          	lui	a5,0x60040
     7f0:	c6018513          	addi	a0,gp,-928 # 200004e0 <lcddev>
     7f4:	60058593          	addi	a1,a1,1536 # 3600 <_puts_r+0xb4>
     7f8:	00255683          	lhu	a3,2(a0)
     7fc:	feb79f23          	sh	a1,-2(a5) # 6003fffe <_eusrstack+0x40037ffe>
     800:	06800593          	li	a1,104
     804:	00b79023          	sh	a1,0(a5)
     808:	00a55583          	lhu	a1,10(a0)
     80c:	167d                	addi	a2,a2,-1
     80e:	0642                	slli	a2,a2,0x10
     810:	00158813          	addi	a6,a1,1
     814:	feb79f23          	sh	a1,-2(a5)
     818:	0842                	slli	a6,a6,0x10
     81a:	00079023          	sh	zero,0(a5)
     81e:	01085813          	srli	a6,a6,0x10
     822:	ff079f23          	sh	a6,-2(a5)
     826:	00258813          	addi	a6,a1,2
     82a:	0842                	slli	a6,a6,0x10
     82c:	00079023          	sh	zero,0(a5)
     830:	8241                	srli	a2,a2,0x10
     832:	01085813          	srli	a6,a6,0x10
     836:	058d                	addi	a1,a1,3
     838:	ff079f23          	sh	a6,-2(a5)
     83c:	05c2                	slli	a1,a1,0x10
     83e:	00865813          	srli	a6,a2,0x8
     842:	01079023          	sh	a6,0(a5)
     846:	81c1                	srli	a1,a1,0x10
     848:	feb79f23          	sh	a1,-2(a5)
     84c:	0ff67613          	andi	a2,a2,255
     850:	00c79023          	sh	a2,0(a5)
     854:	00c55603          	lhu	a2,12(a0)
     858:	16fd                	addi	a3,a3,-1
     85a:	06c2                	slli	a3,a3,0x10
     85c:	00160593          	addi	a1,a2,1
     860:	fec79f23          	sh	a2,-2(a5)
     864:	05c2                	slli	a1,a1,0x10
     866:	00079023          	sh	zero,0(a5)
     86a:	81c1                	srli	a1,a1,0x10
     86c:	feb79f23          	sh	a1,-2(a5)
     870:	00260593          	addi	a1,a2,2
     874:	05c2                	slli	a1,a1,0x10
     876:	00079023          	sh	zero,0(a5)
     87a:	82c1                	srli	a3,a3,0x10
     87c:	81c1                	srli	a1,a1,0x10
     87e:	060d                	addi	a2,a2,3
     880:	feb79f23          	sh	a1,-2(a5)
     884:	0642                	slli	a2,a2,0x10
     886:	0086d593          	srli	a1,a3,0x8
     88a:	00b79023          	sh	a1,0(a5)
     88e:	8241                	srli	a2,a2,0x10
     890:	fec79f23          	sh	a2,-2(a5)
     894:	0ff6f693          	andi	a3,a3,255
     898:	00d79023          	sh	a3,0(a5)
     89c:	8082                	ret

0000089e <LCD_Display_Dir>:
     89e:	c6018793          	addi	a5,gp,-928 # 200004e0 <lcddev>
     8a2:	e90d                	bnez	a0,8d4 <LCD_Display_Dir+0x36>
     8a4:	1e000693          	li	a3,480
     8a8:	c6d19023          	sh	a3,-928(gp) # 200004e0 <lcddev>
     8ac:	00078323          	sb	zero,6(a5)
     8b0:	32000713          	li	a4,800
     8b4:	00e79123          	sh	a4,2(a5)
     8b8:	670d                	lui	a4,0x3
     8ba:	c0070693          	addi	a3,a4,-1024 # 2c00 <GPIO_Init+0xaa>
     8be:	00d79423          	sh	a3,8(a5)
     8c2:	a0070693          	addi	a3,a4,-1536
     8c6:	b0070713          	addi	a4,a4,-1280
     8ca:	00d79523          	sh	a3,10(a5)
     8ce:	00e79623          	sh	a4,12(a5)
     8d2:	bf11                	j	7e6 <LCD_Scan_Dir>
     8d4:	4685                	li	a3,1
     8d6:	00d78323          	sb	a3,6(a5)
     8da:	32000693          	li	a3,800
     8de:	c6d19023          	sh	a3,-928(gp) # 200004e0 <lcddev>
     8e2:	1e000713          	li	a4,480
     8e6:	b7f9                	j	8b4 <LCD_Display_Dir+0x16>

000008e8 <LCD_Clear>:
     8e8:	1141                	addi	sp,sp,-16
     8ea:	c601d703          	lhu	a4,-928(gp) # 200004e0 <lcddev>
     8ee:	c6018793          	addi	a5,gp,-928 # 200004e0 <lcddev>
     8f2:	c422                	sw	s0,8(sp)
     8f4:	0027d403          	lhu	s0,2(a5)
     8f8:	c226                	sw	s1,4(sp)
     8fa:	4581                	li	a1,0
     8fc:	84aa                	mv	s1,a0
     8fe:	4501                	li	a0,0
     900:	02e40433          	mul	s0,s0,a4
     904:	c606                	sw	ra,12(sp)
     906:	3d49                	jal	798 <LCD_SetCursor>
     908:	3549                	jal	78a <LCD_WriteRAM_Prepare>
     90a:	4781                	li	a5,0
     90c:	60040737          	lui	a4,0x60040
     910:	00879763          	bne	a5,s0,91e <LCD_Clear+0x36>
     914:	40b2                	lw	ra,12(sp)
     916:	4422                	lw	s0,8(sp)
     918:	4492                	lw	s1,4(sp)
     91a:	0141                	addi	sp,sp,16
     91c:	8082                	ret
     91e:	00971023          	sh	s1,0(a4) # 60040000 <_eusrstack+0x40038000>
     922:	0785                	addi	a5,a5,1
     924:	b7f5                	j	910 <LCD_Clear+0x28>

00000926 <LCD_Init>:
     926:	7131                	addi	sp,sp,-192
     928:	4585                	li	a1,1
     92a:	10000513          	li	a0,256
     92e:	df06                	sw	ra,188(sp)
     930:	dd22                	sw	s0,184(sp)
     932:	db26                	sw	s1,180(sp)
     934:	d94a                	sw	s2,176(sp)
     936:	d74e                	sw	s3,172(sp)
     938:	d552                	sw	s4,168(sp)
     93a:	d356                	sw	s5,164(sp)
     93c:	d15a                	sw	s6,160(sp)
     93e:	cf5e                	sw	s7,156(sp)
     940:	cd62                	sw	s8,152(sp)
     942:	cb66                	sw	s9,148(sp)
     944:	c96a                	sw	s10,144(sp)
     946:	c76e                	sw	s11,140(sp)
     948:	4a4020ef          	jal	ra,2dec <RCC_AHBPeriphClockCmd>
     94c:	4585                	li	a1,1
     94e:	06800513          	li	a0,104
     952:	4b8020ef          	jal	ra,2e0a <RCC_APB2PeriphClockCmd>
     956:	400114b7          	lui	s1,0x40011
     95a:	440d                	li	s0,3
     95c:	6791                	lui	a5,0x4
     95e:	4a41                	li	s4,16
     960:	c0048513          	addi	a0,s1,-1024 # 40010c00 <_eusrstack+0x20008c00>
     964:	858a                	mv	a1,sp
     966:	00f11023          	sh	a5,0(sp)
     96a:	c222                	sw	s0,4(sp)
     96c:	c452                	sw	s4,8(sp)
     96e:	79f1                	lui	s3,0xffffc
     970:	1e6020ef          	jal	ra,2b56 <GPIO_Init>
     974:	4ae1                	li	s5,24
     976:	73398793          	addi	a5,s3,1843 # ffffc733 <_eusrstack+0xdfff4733>
     97a:	40048513          	addi	a0,s1,1024
     97e:	858a                	mv	a1,sp
     980:	00f11023          	sh	a5,0(sp)
     984:	c456                	sw	s5,8(sp)
     986:	c222                	sw	s0,4(sp)
     988:	1ce020ef          	jal	ra,2b56 <GPIO_Init>
     98c:	40012537          	lui	a0,0x40012
     990:	f8000793          	li	a5,-128
     994:	858a                	mv	a1,sp
     996:	80050513          	addi	a0,a0,-2048 # 40011800 <_eusrstack+0x20009800>
     99a:	00f11023          	sh	a5,0(sp)
     99e:	c456                	sw	s5,8(sp)
     9a0:	c222                	sw	s0,4(sp)
     9a2:	1b4020ef          	jal	ra,2b56 <GPIO_Init>
     9a6:	40048513          	addi	a0,s1,1024
     9aa:	6905                	lui	s2,0x1
     9ac:	858a                	mv	a1,sp
     9ae:	01211023          	sh	s2,0(sp)
     9b2:	c456                	sw	s5,8(sp)
     9b4:	c222                	sw	s0,4(sp)
     9b6:	1a0020ef          	jal	ra,2b56 <GPIO_Init>
     9ba:	40048513          	addi	a0,s1,1024
     9be:	80090913          	addi	s2,s2,-2048 # 800 <__stack_size>
     9c2:	858a                	mv	a1,sp
     9c4:	01211023          	sh	s2,0(sp)
     9c8:	c222                	sw	s0,4(sp)
     9ca:	6905                	lui	s2,0x1
     9cc:	c452                	sw	s4,8(sp)
     9ce:	188020ef          	jal	ra,2b56 <GPIO_Init>
     9d2:	80090593          	addi	a1,s2,-2048 # 800 <__stack_size>
     9d6:	40048513          	addi	a0,s1,1024
     9da:	242020ef          	jal	ra,2c1c <GPIO_ResetBits>
     9de:	47bd                	li	a5,15
     9e0:	ca3e                	sw	a5,20(sp)
     9e2:	6791                	lui	a5,0x4
     9e4:	d8be                	sw	a5,112(sp)
     9e6:	007c                	addi	a5,sp,12
     9e8:	dcbe                	sw	a5,120(sp)
     9ea:	00c8                	addi	a0,sp,68
     9ec:	103c                	addi	a5,sp,40
     9ee:	4b05                	li	s6,1
     9f0:	debe                	sw	a5,124(sp)
     9f2:	d822                	sw	s0,48(sp)
     9f4:	d4ca                	sw	s2,104(sp)
     9f6:	c65a                	sw	s6,12(sp)
     9f8:	c802                	sw	zero,16(sp)
     9fa:	cc02                	sw	zero,24(sp)
     9fc:	d202                	sw	zero,36(sp)
     9fe:	d402                	sw	zero,40(sp)
     a00:	d602                	sw	zero,44(sp)
     a02:	da02                	sw	zero,52(sp)
     a04:	dc02                	sw	zero,56(sp)
     a06:	de02                	sw	zero,60(sp)
     a08:	c082                	sw	zero,64(sp)
     a0a:	c282                	sw	zero,68(sp)
     a0c:	c482                	sw	zero,72(sp)
     a0e:	c682                	sw	zero,76(sp)
     a10:	c8d2                	sw	s4,80(sp)
     a12:	ca82                	sw	zero,84(sp)
     a14:	ce82                	sw	zero,92(sp)
     a16:	cc82                	sw	zero,88(sp)
     a18:	d082                	sw	zero,96(sp)
     a1a:	d282                	sw	zero,100(sp)
     a1c:	d682                	sw	zero,108(sp)
     a1e:	da82                	sw	zero,116(sp)
     a20:	05e020ef          	jal	ra,2a7e <FSMC_NORSRAMInit>
     a24:	4585                	li	a1,1
     a26:	4501                	li	a0,0
     a28:	110020ef          	jal	ra,2b38 <FSMC_NORSRAMCmd>
     a2c:	03200513          	li	a0,50
     a30:	1af020ef          	jal	ra,33de <Delay_Ms>
     a34:	4501                	li	a0,0
     a36:	c6018913          	addi	s2,gp,-928 # 200004e0 <lcddev>
     a3a:	3b25                	jal	772 <LCD_ReadReg>
     a3c:	00a91223          	sh	a0,4(s2)
     a40:	60040437          	lui	s0,0x60040
     a44:	0d300a93          	li	s5,211
     a48:	ff541f23          	sh	s5,-2(s0) # 6003fffe <_eusrstack+0x40037ffe>
     a4c:	3329                	jal	756 <LCD_RD_DATA>
     a4e:	00a91223          	sh	a0,4(s2)
     a52:	3311                	jal	756 <LCD_RD_DATA>
     a54:	00a91223          	sh	a0,4(s2)
     a58:	39fd                	jal	756 <LCD_RD_DATA>
     a5a:	0522                	slli	a0,a0,0x8
     a5c:	00a91223          	sh	a0,4(s2)
     a60:	39dd                	jal	756 <LCD_RD_DATA>
     a62:	00495783          	lhu	a5,4(s2)
     a66:	c6018493          	addi	s1,gp,-928 # 200004e0 <lcddev>
     a6a:	8d5d                	or	a0,a0,a5
     a6c:	00a91223          	sh	a0,4(s2)
     a70:	ff541f23          	sh	s5,-2(s0)
     a74:	31cd                	jal	756 <LCD_RD_DATA>
     a76:	00a91223          	sh	a0,4(s2)
     a7a:	39f1                	jal	756 <LCD_RD_DATA>
     a7c:	00a91223          	sh	a0,4(s2)
     a80:	39d9                	jal	756 <LCD_RD_DATA>
     a82:	0522                	slli	a0,a0,0x8
     a84:	00a91223          	sh	a0,4(s2)
     a88:	31f9                	jal	756 <LCD_RD_DATA>
     a8a:	00495783          	lhu	a5,4(s2)
     a8e:	8d5d                	or	a0,a0,a5
     a90:	0542                	slli	a0,a0,0x10
     a92:	8141                	srli	a0,a0,0x10
     a94:	67a5                	lui	a5,0x9
     a96:	00a91223          	sh	a0,4(s2)
     a9a:	34178793          	addi	a5,a5,833 # 9341 <_data_lma+0x1881>
     a9e:	00f51463          	bne	a0,a5,aa6 <LCD_Init+0x180>
     aa2:	4160106f          	j	1eb8 <LCD_Init+0x1592>
     aa6:	4791                	li	a5,4
     aa8:	fef41f23          	sh	a5,-2(s0)
     aac:	316d                	jal	756 <LCD_RD_DATA>
     aae:	00a49223          	sh	a0,4(s1)
     ab2:	3155                	jal	756 <LCD_RD_DATA>
     ab4:	00a49223          	sh	a0,4(s1)
     ab8:	3979                	jal	756 <LCD_RD_DATA>
     aba:	0522                	slli	a0,a0,0x8
     abc:	00a49223          	sh	a0,4(s1)
     ac0:	3959                	jal	756 <LCD_RD_DATA>
     ac2:	0044d783          	lhu	a5,4(s1)
     ac6:	8d5d                	or	a0,a0,a5
     ac8:	0542                	slli	a0,a0,0x10
     aca:	8141                	srli	a0,a0,0x10
     acc:	67a1                	lui	a5,0x8
     ace:	00a49223          	sh	a0,4(s1)
     ad2:	55278793          	addi	a5,a5,1362 # 8552 <_data_lma+0xa92>
     ad6:	00f51963          	bne	a0,a5,ae8 <LCD_Init+0x1c2>
     ada:	679d                	lui	a5,0x7
     adc:	78978793          	addi	a5,a5,1929 # 7789 <asc2_3216+0x1595>
     ae0:	00f49223          	sh	a5,4(s1)
     ae4:	3d40106f          	j	1eb8 <LCD_Init+0x1592>
     ae8:	6b9d                	lui	s7,0x7
     aea:	789b8793          	addi	a5,s7,1929 # 7789 <asc2_3216+0x1595>
     aee:	00f51463          	bne	a0,a5,af6 <LCD_Init+0x1d0>
     af2:	3c60106f          	j	1eb8 <LCD_Init+0x1592>
     af6:	0d400793          	li	a5,212
     afa:	fef41f23          	sh	a5,-2(s0)
     afe:	39a1                	jal	756 <LCD_RD_DATA>
     b00:	00a49223          	sh	a0,4(s1)
     b04:	3989                	jal	756 <LCD_RD_DATA>
     b06:	00a49223          	sh	a0,4(s1)
     b0a:	31b1                	jal	756 <LCD_RD_DATA>
     b0c:	0522                	slli	a0,a0,0x8
     b0e:	00a49223          	sh	a0,4(s1)
     b12:	3191                	jal	756 <LCD_RD_DATA>
     b14:	0044d783          	lhu	a5,4(s1)
     b18:	6915                	lui	s2,0x5
     b1a:	8d5d                	or	a0,a0,a5
     b1c:	0542                	slli	a0,a0,0x10
     b1e:	8141                	srli	a0,a0,0x10
     b20:	00a49223          	sh	a0,4(s1)
     b24:	31090793          	addi	a5,s2,784 # 5310 <asc2_1608+0x468>
     b28:	00f51463          	bne	a0,a5,b30 <LCD_Init+0x20a>
     b2c:	38c0106f          	j	1eb8 <LCD_Init+0x1592>
     b30:	ff541f23          	sh	s5,-2(s0)
     b34:	310d                	jal	756 <LCD_RD_DATA>
     b36:	00a49223          	sh	a0,4(s1)
     b3a:	3931                	jal	756 <LCD_RD_DATA>
     b3c:	00a49223          	sh	a0,4(s1)
     b40:	3919                	jal	756 <LCD_RD_DATA>
     b42:	0522                	slli	a0,a0,0x8
     b44:	00a49223          	sh	a0,4(s1)
     b48:	3139                	jal	756 <LCD_RD_DATA>
     b4a:	0044d783          	lhu	a5,4(s1)
     b4e:	796b8b93          	addi	s7,s7,1942
     b52:	8d5d                	or	a0,a0,a5
     b54:	0542                	slli	a0,a0,0x10
     b56:	8141                	srli	a0,a0,0x10
     b58:	00a49223          	sh	a0,4(s1)
     b5c:	01751463          	bne	a0,s7,b64 <LCD_Init+0x23e>
     b60:	3580106f          	j	1eb8 <LCD_Init+0x1592>
     b64:	77fd                	lui	a5,0xfffff
     b66:	fef41f23          	sh	a5,-2(s0)
     b6a:	ffe40a13          	addi	s4,s0,-2
     b6e:	05500713          	li	a4,85
     b72:	00ea1123          	sh	a4,2(s4)
     b76:	00178713          	addi	a4,a5,1 # fffff001 <_eusrstack+0xdfff7001>
     b7a:	fee41f23          	sh	a4,-2(s0)
     b7e:	0aa00713          	li	a4,170
     b82:	00ea1123          	sh	a4,2(s4)
     b86:	00278713          	addi	a4,a5,2
     b8a:	fee41f23          	sh	a4,-2(s0)
     b8e:	05200713          	li	a4,82
     b92:	00ea1123          	sh	a4,2(s4)
     b96:	00378713          	addi	a4,a5,3
     b9a:	fee41f23          	sh	a4,-2(s0)
     b9e:	4721                	li	a4,8
     ba0:	00ea1123          	sh	a4,2(s4)
     ba4:	0791                	addi	a5,a5,4
     ba6:	fef41f23          	sh	a5,-2(s0)
     baa:	016a1123          	sh	s6,2(s4)
     bae:	50098793          	addi	a5,s3,1280
     bb2:	fef41f23          	sh	a5,-2(s0)
     bb6:	3645                	jal	756 <LCD_RD_DATA>
     bb8:	0522                	slli	a0,a0,0x8
     bba:	00a49223          	sh	a0,4(s1)
     bbe:	50198993          	addi	s3,s3,1281
     bc2:	ff341f23          	sh	s3,-2(s0)
     bc6:	3e41                	jal	756 <LCD_RD_DATA>
     bc8:	0044d783          	lhu	a5,4(s1)
     bcc:	51090993          	addi	s3,s2,1296
     bd0:	8d5d                	or	a0,a0,a5
     bd2:	00a49223          	sh	a0,4(s1)
     bd6:	4515                	li	a0,5
     bd8:	007020ef          	jal	ra,33de <Delay_Ms>
     bdc:	0044d783          	lhu	a5,4(s1)
     be0:	01378463          	beq	a5,s3,be8 <LCD_Init+0x2c2>
     be4:	3540106f          	j	1f38 <LCD_Init+0x1612>
     be8:	60040437          	lui	s0,0x60040
     bec:	787d                	lui	a6,0xfffff
     bee:	ffe40793          	addi	a5,s0,-2 # 6003fffe <_eusrstack+0x40037ffe>
     bf2:	ff041f23          	sh	a6,-2(s0)
     bf6:	05500e93          	li	t4,85
     bfa:	01d79123          	sh	t4,2(a5)
     bfe:	00180713          	addi	a4,a6,1 # fffff001 <_eusrstack+0xdfff7001>
     c02:	fee41f23          	sh	a4,-2(s0)
     c06:	0aa00713          	li	a4,170
     c0a:	00e79123          	sh	a4,2(a5)
     c0e:	00280693          	addi	a3,a6,2
     c12:	fed41f23          	sh	a3,-2(s0)
     c16:	05200693          	li	a3,82
     c1a:	00d79123          	sh	a3,2(a5)
     c1e:	00380613          	addi	a2,a6,3
     c22:	fec41f23          	sh	a2,-2(s0)
     c26:	4e21                	li	t3,8
     c28:	01c79123          	sh	t3,2(a5)
     c2c:	00480613          	addi	a2,a6,4
     c30:	fec41f23          	sh	a2,-2(s0)
     c34:	4605                	li	a2,1
     c36:	00c79123          	sh	a2,2(a5)
     c3a:	776d                	lui	a4,0xffffb
     c3c:	fee41f23          	sh	a4,-2(s0)
     c40:	46b5                	li	a3,13
     c42:	00d79123          	sh	a3,2(a5)
     c46:	00170593          	addi	a1,a4,1 # ffffb001 <_eusrstack+0xdfff3001>
     c4a:	feb41f23          	sh	a1,-2(s0)
     c4e:	00d79123          	sh	a3,2(a5)
     c52:	00270593          	addi	a1,a4,2
     c56:	feb41f23          	sh	a1,-2(s0)
     c5a:	756d                	lui	a0,0xffffb
     c5c:	00d79123          	sh	a3,2(a5)
     c60:	60050593          	addi	a1,a0,1536 # ffffb600 <_eusrstack+0xdfff3600>
     c64:	03400813          	li	a6,52
     c68:	feb41f23          	sh	a1,-2(s0)
     c6c:	01079123          	sh	a6,2(a5)
     c70:	60170593          	addi	a1,a4,1537
     c74:	feb41f23          	sh	a1,-2(s0)
     c78:	01079123          	sh	a6,2(a5)
     c7c:	60270593          	addi	a1,a4,1538
     c80:	feb41f23          	sh	a1,-2(s0)
     c84:	01079123          	sh	a6,2(a5)
     c88:	10050593          	addi	a1,a0,256
     c8c:	feb41f23          	sh	a1,-2(s0)
     c90:	00d79123          	sh	a3,2(a5)
     c94:	10150593          	addi	a1,a0,257
     c98:	feb41f23          	sh	a1,-2(s0)
     c9c:	00d79123          	sh	a3,2(a5)
     ca0:	10270593          	addi	a1,a4,258
     ca4:	feb41f23          	sh	a1,-2(s0)
     ca8:	00d79123          	sh	a3,2(a5)
     cac:	70050593          	addi	a1,a0,1792
     cb0:	feb41f23          	sh	a1,-2(s0)
     cb4:	01079123          	sh	a6,2(a5)
     cb8:	70150593          	addi	a1,a0,1793
     cbc:	feb41f23          	sh	a1,-2(s0)
     cc0:	01079123          	sh	a6,2(a5)
     cc4:	70270693          	addi	a3,a4,1794
     cc8:	fed41f23          	sh	a3,-2(s0)
     ccc:	01079123          	sh	a6,2(a5)
     cd0:	20070693          	addi	a3,a4,512
     cd4:	fed41f23          	sh	a3,-2(s0)
     cd8:	00079123          	sh	zero,2(a5)
     cdc:	20170693          	addi	a3,a4,513
     ce0:	fed41f23          	sh	a3,-2(s0)
     ce4:	00079123          	sh	zero,2(a5)
     ce8:	20270693          	addi	a3,a4,514
     cec:	fed41f23          	sh	a3,-2(s0)
     cf0:	7371                	lui	t1,0xffffc
     cf2:	00079123          	sh	zero,2(a5)
     cf6:	80030593          	addi	a1,t1,-2048 # ffffb800 <_eusrstack+0xdfff3800>
     cfa:	feb41f23          	sh	a1,-2(s0)
     cfe:	02400693          	li	a3,36
     d02:	00d79123          	sh	a3,2(a5)
     d06:	80130593          	addi	a1,t1,-2047
     d0a:	feb41f23          	sh	a1,-2(s0)
     d0e:	00d79123          	sh	a3,2(a5)
     d12:	80230593          	addi	a1,t1,-2046
     d16:	feb41f23          	sh	a1,-2(s0)
     d1a:	7571                	lui	a0,0xffffc
     d1c:	00d79123          	sh	a3,2(a5)
     d20:	f0050593          	addi	a1,a0,-256 # ffffbf00 <_eusrstack+0xdfff3f00>
     d24:	feb41f23          	sh	a1,-2(s0)
     d28:	00c79123          	sh	a2,2(a5)
     d2c:	30070593          	addi	a1,a4,768
     d30:	feb41f23          	sh	a1,-2(s0)
     d34:	45bd                	li	a1,15
     d36:	00b79123          	sh	a1,2(a5)
     d3a:	30170893          	addi	a7,a4,769
     d3e:	ff141f23          	sh	a7,-2(s0)
     d42:	00b79123          	sh	a1,2(a5)
     d46:	30270893          	addi	a7,a4,770
     d4a:	ff141f23          	sh	a7,-2(s0)
     d4e:	00b79123          	sh	a1,2(a5)
     d52:	90050593          	addi	a1,a0,-1792
     d56:	feb41f23          	sh	a1,-2(s0)
     d5a:	01079123          	sh	a6,2(a5)
     d5e:	90150593          	addi	a1,a0,-1791
     d62:	feb41f23          	sh	a1,-2(s0)
     d66:	01079123          	sh	a6,2(a5)
     d6a:	90250593          	addi	a1,a0,-1790
     d6e:	feb41f23          	sh	a1,-2(s0)
     d72:	01079123          	sh	a6,2(a5)
     d76:	50070593          	addi	a1,a4,1280
     d7a:	feb41f23          	sh	a1,-2(s0)
     d7e:	01c79123          	sh	t3,2(a5)
     d82:	50170593          	addi	a1,a4,1281
     d86:	feb41f23          	sh	a1,-2(s0)
     d8a:	01c79123          	sh	t3,2(a5)
     d8e:	50270713          	addi	a4,a4,1282
     d92:	fee41f23          	sh	a4,-2(s0)
     d96:	20050713          	addi	a4,a0,512
     d9a:	01c79123          	sh	t3,2(a5)
     d9e:	458d                	li	a1,3
     da0:	fee41f23          	sh	a4,-2(s0)
     da4:	00b79123          	sh	a1,2(a5)
     da8:	a0050713          	addi	a4,a0,-1536
     dac:	fee41f23          	sh	a4,-2(s0)
     db0:	00d79123          	sh	a3,2(a5)
     db4:	a0150713          	addi	a4,a0,-1535
     db8:	fee41f23          	sh	a4,-2(s0)
     dbc:	00d79123          	sh	a3,2(a5)
     dc0:	a0250713          	addi	a4,a0,-1534
     dc4:	fee41f23          	sh	a4,-2(s0)
     dc8:	00d79123          	sh	a3,2(a5)
     dcc:	c0030f93          	addi	t6,t1,-1024
     dd0:	fff41f23          	sh	t6,-2(s0)
     dd4:	00079123          	sh	zero,2(a5)
     dd8:	c0130f93          	addi	t6,t1,-1023
     ddc:	fff41f23          	sh	t6,-2(s0)
     de0:	07800713          	li	a4,120
     de4:	00e79123          	sh	a4,2(a5)
     de8:	c0230f93          	addi	t6,t1,-1022
     dec:	fff41f23          	sh	t6,-2(s0)
     df0:	00079123          	sh	zero,2(a5)
     df4:	d0050693          	addi	a3,a0,-768
     df8:	fed41f23          	sh	a3,-2(s0)
     dfc:	00079123          	sh	zero,2(a5)
     e00:	d0150693          	addi	a3,a0,-767
     e04:	fed41f23          	sh	a3,-2(s0)
     e08:	00e79123          	sh	a4,2(a5)
     e0c:	d0250713          	addi	a4,a0,-766
     e10:	fee41f23          	sh	a4,-2(s0)
     e14:	00079123          	sh	zero,2(a5)
     e18:	e0050713          	addi	a4,a0,-512
     e1c:	fee41f23          	sh	a4,-2(s0)
     e20:	00079123          	sh	zero,2(a5)
     e24:	e0150713          	addi	a4,a0,-511
     e28:	fee41f23          	sh	a4,-2(s0)
     e2c:	06400713          	li	a4,100
     e30:	00e79123          	sh	a4,2(a5)
     e34:	7775                	lui	a4,0xffffd
     e36:	10070693          	addi	a3,a4,256 # ffffd100 <_eusrstack+0xdfff5100>
     e3a:	fed41f23          	sh	a3,-2(s0)
     e3e:	00079123          	sh	zero,2(a5)
     e42:	10170693          	addi	a3,a4,257
     e46:	03300893          	li	a7,51
     e4a:	fed41f23          	sh	a3,-2(s0)
     e4e:	01179123          	sh	a7,2(a5)
     e52:	10270693          	addi	a3,a4,258
     e56:	fed41f23          	sh	a3,-2(s0)
     e5a:	00079123          	sh	zero,2(a5)
     e5e:	10370693          	addi	a3,a4,259
     e62:	fed41f23          	sh	a3,-2(s0)
     e66:	01079123          	sh	a6,2(a5)
     e6a:	10470693          	addi	a3,a4,260
     e6e:	fed41f23          	sh	a3,-2(s0)
     e72:	00079123          	sh	zero,2(a5)
     e76:	10570693          	addi	a3,a4,261
     e7a:	fed41f23          	sh	a3,-2(s0)
     e7e:	03a00d13          	li	s10,58
     e82:	01a79123          	sh	s10,2(a5)
     e86:	10670693          	addi	a3,a4,262
     e8a:	fed41f23          	sh	a3,-2(s0)
     e8e:	00079123          	sh	zero,2(a5)
     e92:	10770693          	addi	a3,a4,263
     e96:	fed41f23          	sh	a3,-2(s0)
     e9a:	04a00c93          	li	s9,74
     e9e:	01979123          	sh	s9,2(a5)
     ea2:	10870693          	addi	a3,a4,264
     ea6:	fed41f23          	sh	a3,-2(s0)
     eaa:	00079123          	sh	zero,2(a5)
     eae:	10970693          	addi	a3,a4,265
     eb2:	fed41f23          	sh	a3,-2(s0)
     eb6:	05c00c13          	li	s8,92
     eba:	01879123          	sh	s8,2(a5)
     ebe:	10a70693          	addi	a3,a4,266
     ec2:	fed41f23          	sh	a3,-2(s0)
     ec6:	00079123          	sh	zero,2(a5)
     eca:	10b70693          	addi	a3,a4,267
     ece:	fed41f23          	sh	a3,-2(s0)
     ed2:	08100b93          	li	s7,129
     ed6:	01779123          	sh	s7,2(a5)
     eda:	10c70693          	addi	a3,a4,268
     ede:	fed41f23          	sh	a3,-2(s0)
     ee2:	00079123          	sh	zero,2(a5)
     ee6:	10d70693          	addi	a3,a4,269
     eea:	fed41f23          	sh	a3,-2(s0)
     eee:	0a600b13          	li	s6,166
     ef2:	01679123          	sh	s6,2(a5)
     ef6:	10e70693          	addi	a3,a4,270
     efa:	fed41f23          	sh	a3,-2(s0)
     efe:	00079123          	sh	zero,2(a5)
     f02:	10f70693          	addi	a3,a4,271
     f06:	fed41f23          	sh	a3,-2(s0)
     f0a:	0e500a93          	li	s5,229
     f0e:	01579123          	sh	s5,2(a5)
     f12:	11070693          	addi	a3,a4,272
     f16:	fed41f23          	sh	a3,-2(s0)
     f1a:	00c79123          	sh	a2,2(a5)
     f1e:	11170693          	addi	a3,a4,273
     f22:	fed41f23          	sh	a3,-2(s0)
     f26:	4a4d                	li	s4,19
     f28:	01479123          	sh	s4,2(a5)
     f2c:	11270693          	addi	a3,a4,274
     f30:	fed41f23          	sh	a3,-2(s0)
     f34:	00c79123          	sh	a2,2(a5)
     f38:	11370693          	addi	a3,a4,275
     f3c:	05400993          	li	s3,84
     f40:	fed41f23          	sh	a3,-2(s0)
     f44:	01379123          	sh	s3,2(a5)
     f48:	11470693          	addi	a3,a4,276
     f4c:	fed41f23          	sh	a3,-2(s0)
     f50:	11570693          	addi	a3,a4,277
     f54:	00c79123          	sh	a2,2(a5)
     f58:	08200913          	li	s2,130
     f5c:	fed41f23          	sh	a3,-2(s0)
     f60:	01279123          	sh	s2,2(a5)
     f64:	11670693          	addi	a3,a4,278
     f68:	fed41f23          	sh	a3,-2(s0)
     f6c:	00c79123          	sh	a2,2(a5)
     f70:	11770693          	addi	a3,a4,279
     f74:	fed41f23          	sh	a3,-2(s0)
     f78:	0ca00093          	li	ra,202
     f7c:	00179123          	sh	ra,2(a5)
     f80:	11870693          	addi	a3,a4,280
     f84:	fed41f23          	sh	a3,-2(s0)
     f88:	4689                	li	a3,2
     f8a:	00d79123          	sh	a3,2(a5)
     f8e:	11970313          	addi	t1,a4,281
     f92:	fe641f23          	sh	t1,-2(s0)
     f96:	00079123          	sh	zero,2(a5)
     f9a:	11a70313          	addi	t1,a4,282
     f9e:	fe641f23          	sh	t1,-2(s0)
     fa2:	00d79123          	sh	a3,2(a5)
     fa6:	11b70313          	addi	t1,a4,283
     faa:	fe641f23          	sh	t1,-2(s0)
     fae:	00c79123          	sh	a2,2(a5)
     fb2:	11c70313          	addi	t1,a4,284
     fb6:	fe641f23          	sh	t1,-2(s0)
     fba:	00d79123          	sh	a3,2(a5)
     fbe:	11d70313          	addi	t1,a4,285
     fc2:	fe641f23          	sh	t1,-2(s0)
     fc6:	01079123          	sh	a6,2(a5)
     fca:	11e70313          	addi	t1,a4,286
     fce:	fe641f23          	sh	t1,-2(s0)
     fd2:	00d79123          	sh	a3,2(a5)
     fd6:	11f70313          	addi	t1,a4,287
     fda:	fe641f23          	sh	t1,-2(s0)
     fde:	06700393          	li	t2,103
     fe2:	00779123          	sh	t2,2(a5)
     fe6:	12070313          	addi	t1,a4,288
     fea:	fe641f23          	sh	t1,-2(s0)
     fee:	00d79123          	sh	a3,2(a5)
     ff2:	12170313          	addi	t1,a4,289
     ff6:	fe641f23          	sh	t1,-2(s0)
     ffa:	08400293          	li	t0,132
     ffe:	00579123          	sh	t0,2(a5)
    1002:	12270313          	addi	t1,a4,290
    1006:	fe641f23          	sh	t1,-2(s0)
    100a:	00d79123          	sh	a3,2(a5)
    100e:	12370313          	addi	t1,a4,291
    1012:	0a400f93          	li	t6,164
    1016:	fe641f23          	sh	t1,-2(s0)
    101a:	01f79123          	sh	t6,2(a5)
    101e:	12470313          	addi	t1,a4,292
    1022:	fe641f23          	sh	t1,-2(s0)
    1026:	0b700f13          	li	t5,183
    102a:	00d79123          	sh	a3,2(a5)
    102e:	12570313          	addi	t1,a4,293
    1032:	fe641f23          	sh	t1,-2(s0)
    1036:	01e79123          	sh	t5,2(a5)
    103a:	12670313          	addi	t1,a4,294
    103e:	fe641f23          	sh	t1,-2(s0)
    1042:	00d79123          	sh	a3,2(a5)
    1046:	12770313          	addi	t1,a4,295
    104a:	fe641f23          	sh	t1,-2(s0)
    104e:	0cf00e93          	li	t4,207
    1052:	01d79123          	sh	t4,2(a5)
    1056:	12870313          	addi	t1,a4,296
    105a:	fe641f23          	sh	t1,-2(s0)
    105e:	00d79123          	sh	a3,2(a5)
    1062:	12970313          	addi	t1,a4,297
    1066:	fe641f23          	sh	t1,-2(s0)
    106a:	0de00e13          	li	t3,222
    106e:	01c79123          	sh	t3,2(a5)
    1072:	12a70313          	addi	t1,a4,298
    1076:	fe641f23          	sh	t1,-2(s0)
    107a:	00d79123          	sh	a3,2(a5)
    107e:	12b70313          	addi	t1,a4,299
    1082:	fe641f23          	sh	t1,-2(s0)
    1086:	0f200313          	li	t1,242
    108a:	00679123          	sh	t1,2(a5)
    108e:	12c70d93          	addi	s11,a4,300
    1092:	ffb41f23          	sh	s11,-2(s0)
    1096:	00d79123          	sh	a3,2(a5)
    109a:	12d70d93          	addi	s11,a4,301
    109e:	ffb41f23          	sh	s11,-2(s0)
    10a2:	0fe00d93          	li	s11,254
    10a6:	01b79123          	sh	s11,2(a5)
    10aa:	12e70d93          	addi	s11,a4,302
    10ae:	ffb41f23          	sh	s11,-2(s0)
    10b2:	00b79123          	sh	a1,2(a5)
    10b6:	12f70d93          	addi	s11,a4,303
    10ba:	ffb41f23          	sh	s11,-2(s0)
    10be:	4dc1                	li	s11,16
    10c0:	01b79123          	sh	s11,2(a5)
    10c4:	13070d93          	addi	s11,a4,304
    10c8:	ffb41f23          	sh	s11,-2(s0)
    10cc:	00b79123          	sh	a1,2(a5)
    10d0:	13170d93          	addi	s11,a4,305
    10d4:	ffb41f23          	sh	s11,-2(s0)
    10d8:	01179123          	sh	a7,2(a5)
    10dc:	13270d93          	addi	s11,a4,306
    10e0:	ffb41f23          	sh	s11,-2(s0)
    10e4:	00b79123          	sh	a1,2(a5)
    10e8:	13370d93          	addi	s11,a4,307
    10ec:	ffb41f23          	sh	s11,-2(s0)
    10f0:	06d00d93          	li	s11,109
    10f4:	01b79123          	sh	s11,2(a5)
    10f8:	20070d93          	addi	s11,a4,512
    10fc:	ffb41f23          	sh	s11,-2(s0)
    1100:	00079123          	sh	zero,2(a5)
    1104:	20170d93          	addi	s11,a4,513
    1108:	ffb41f23          	sh	s11,-2(s0)
    110c:	20270d93          	addi	s11,a4,514
    1110:	01179123          	sh	a7,2(a5)
    1114:	ffb41f23          	sh	s11,-2(s0)
    1118:	00079123          	sh	zero,2(a5)
    111c:	20370d93          	addi	s11,a4,515
    1120:	ffb41f23          	sh	s11,-2(s0)
    1124:	01079123          	sh	a6,2(a5)
    1128:	20470d93          	addi	s11,a4,516
    112c:	ffb41f23          	sh	s11,-2(s0)
    1130:	00079123          	sh	zero,2(a5)
    1134:	20570d93          	addi	s11,a4,517
    1138:	ffb41f23          	sh	s11,-2(s0)
    113c:	01a79123          	sh	s10,2(a5)
    1140:	20670d93          	addi	s11,a4,518
    1144:	ffb41f23          	sh	s11,-2(s0)
    1148:	00079123          	sh	zero,2(a5)
    114c:	20770d93          	addi	s11,a4,519
    1150:	ffb41f23          	sh	s11,-2(s0)
    1154:	01979123          	sh	s9,2(a5)
    1158:	20870d93          	addi	s11,a4,520
    115c:	ffb41f23          	sh	s11,-2(s0)
    1160:	00079123          	sh	zero,2(a5)
    1164:	20970d93          	addi	s11,a4,521
    1168:	ffb41f23          	sh	s11,-2(s0)
    116c:	01879123          	sh	s8,2(a5)
    1170:	20a70d93          	addi	s11,a4,522
    1174:	ffb41f23          	sh	s11,-2(s0)
    1178:	00079123          	sh	zero,2(a5)
    117c:	20b70d93          	addi	s11,a4,523
    1180:	ffb41f23          	sh	s11,-2(s0)
    1184:	01779123          	sh	s7,2(a5)
    1188:	20c70d93          	addi	s11,a4,524
    118c:	ffb41f23          	sh	s11,-2(s0)
    1190:	00079123          	sh	zero,2(a5)
    1194:	20d70d93          	addi	s11,a4,525
    1198:	ffb41f23          	sh	s11,-2(s0)
    119c:	01679123          	sh	s6,2(a5)
    11a0:	20e70d93          	addi	s11,a4,526
    11a4:	ffb41f23          	sh	s11,-2(s0)
    11a8:	00079123          	sh	zero,2(a5)
    11ac:	20f70d93          	addi	s11,a4,527
    11b0:	ffb41f23          	sh	s11,-2(s0)
    11b4:	01579123          	sh	s5,2(a5)
    11b8:	21070d93          	addi	s11,a4,528
    11bc:	ffb41f23          	sh	s11,-2(s0)
    11c0:	00c79123          	sh	a2,2(a5)
    11c4:	21170d93          	addi	s11,a4,529
    11c8:	ffb41f23          	sh	s11,-2(s0)
    11cc:	01479123          	sh	s4,2(a5)
    11d0:	21270d93          	addi	s11,a4,530
    11d4:	ffb41f23          	sh	s11,-2(s0)
    11d8:	00c79123          	sh	a2,2(a5)
    11dc:	21370d93          	addi	s11,a4,531
    11e0:	ffb41f23          	sh	s11,-2(s0)
    11e4:	01379123          	sh	s3,2(a5)
    11e8:	21470d93          	addi	s11,a4,532
    11ec:	ffb41f23          	sh	s11,-2(s0)
    11f0:	00c79123          	sh	a2,2(a5)
    11f4:	21570d93          	addi	s11,a4,533
    11f8:	ffb41f23          	sh	s11,-2(s0)
    11fc:	01279123          	sh	s2,2(a5)
    1200:	21670d93          	addi	s11,a4,534
    1204:	ffb41f23          	sh	s11,-2(s0)
    1208:	00c79123          	sh	a2,2(a5)
    120c:	21770d93          	addi	s11,a4,535
    1210:	ffb41f23          	sh	s11,-2(s0)
    1214:	00179123          	sh	ra,2(a5)
    1218:	21870d93          	addi	s11,a4,536
    121c:	ffb41f23          	sh	s11,-2(s0)
    1220:	00d79123          	sh	a3,2(a5)
    1224:	21970d93          	addi	s11,a4,537
    1228:	ffb41f23          	sh	s11,-2(s0)
    122c:	00079123          	sh	zero,2(a5)
    1230:	21a70d93          	addi	s11,a4,538
    1234:	ffb41f23          	sh	s11,-2(s0)
    1238:	00d79123          	sh	a3,2(a5)
    123c:	21b70d93          	addi	s11,a4,539
    1240:	ffb41f23          	sh	s11,-2(s0)
    1244:	00c79123          	sh	a2,2(a5)
    1248:	21c70d93          	addi	s11,a4,540
    124c:	ffb41f23          	sh	s11,-2(s0)
    1250:	00d79123          	sh	a3,2(a5)
    1254:	21d70d93          	addi	s11,a4,541
    1258:	ffb41f23          	sh	s11,-2(s0)
    125c:	01079123          	sh	a6,2(a5)
    1260:	21e70d93          	addi	s11,a4,542
    1264:	ffb41f23          	sh	s11,-2(s0)
    1268:	00d79123          	sh	a3,2(a5)
    126c:	21f70d93          	addi	s11,a4,543
    1270:	ffb41f23          	sh	s11,-2(s0)
    1274:	00779123          	sh	t2,2(a5)
    1278:	22070d93          	addi	s11,a4,544
    127c:	ffb41f23          	sh	s11,-2(s0)
    1280:	00d79123          	sh	a3,2(a5)
    1284:	22170d93          	addi	s11,a4,545
    1288:	ffb41f23          	sh	s11,-2(s0)
    128c:	00579123          	sh	t0,2(a5)
    1290:	22270d93          	addi	s11,a4,546
    1294:	ffb41f23          	sh	s11,-2(s0)
    1298:	22370d93          	addi	s11,a4,547
    129c:	00d79123          	sh	a3,2(a5)
    12a0:	ffb41f23          	sh	s11,-2(s0)
    12a4:	01f79123          	sh	t6,2(a5)
    12a8:	22470d93          	addi	s11,a4,548
    12ac:	ffb41f23          	sh	s11,-2(s0)
    12b0:	00d79123          	sh	a3,2(a5)
    12b4:	22570d93          	addi	s11,a4,549
    12b8:	ffb41f23          	sh	s11,-2(s0)
    12bc:	01e79123          	sh	t5,2(a5)
    12c0:	22670d93          	addi	s11,a4,550
    12c4:	ffb41f23          	sh	s11,-2(s0)
    12c8:	00d79123          	sh	a3,2(a5)
    12cc:	22770d93          	addi	s11,a4,551
    12d0:	ffb41f23          	sh	s11,-2(s0)
    12d4:	01d79123          	sh	t4,2(a5)
    12d8:	22870d93          	addi	s11,a4,552
    12dc:	ffb41f23          	sh	s11,-2(s0)
    12e0:	00d79123          	sh	a3,2(a5)
    12e4:	22970d93          	addi	s11,a4,553
    12e8:	ffb41f23          	sh	s11,-2(s0)
    12ec:	01c79123          	sh	t3,2(a5)
    12f0:	22a70d93          	addi	s11,a4,554
    12f4:	ffb41f23          	sh	s11,-2(s0)
    12f8:	00d79123          	sh	a3,2(a5)
    12fc:	22b70d93          	addi	s11,a4,555
    1300:	ffb41f23          	sh	s11,-2(s0)
    1304:	00679123          	sh	t1,2(a5)
    1308:	22c70d93          	addi	s11,a4,556
    130c:	ffb41f23          	sh	s11,-2(s0)
    1310:	00d79123          	sh	a3,2(a5)
    1314:	22d70d93          	addi	s11,a4,557
    1318:	ffb41f23          	sh	s11,-2(s0)
    131c:	0fe00d93          	li	s11,254
    1320:	01b79123          	sh	s11,2(a5)
    1324:	22e70d93          	addi	s11,a4,558
    1328:	ffb41f23          	sh	s11,-2(s0)
    132c:	00b79123          	sh	a1,2(a5)
    1330:	22f70d93          	addi	s11,a4,559
    1334:	ffb41f23          	sh	s11,-2(s0)
    1338:	4dc1                	li	s11,16
    133a:	01b79123          	sh	s11,2(a5)
    133e:	23070d93          	addi	s11,a4,560
    1342:	ffb41f23          	sh	s11,-2(s0)
    1346:	00b79123          	sh	a1,2(a5)
    134a:	23170d93          	addi	s11,a4,561
    134e:	ffb41f23          	sh	s11,-2(s0)
    1352:	01179123          	sh	a7,2(a5)
    1356:	23270d93          	addi	s11,a4,562
    135a:	ffb41f23          	sh	s11,-2(s0)
    135e:	00b79123          	sh	a1,2(a5)
    1362:	23370d93          	addi	s11,a4,563
    1366:	ffb41f23          	sh	s11,-2(s0)
    136a:	06d00d93          	li	s11,109
    136e:	01b79123          	sh	s11,2(a5)
    1372:	30070d93          	addi	s11,a4,768
    1376:	ffb41f23          	sh	s11,-2(s0)
    137a:	00079123          	sh	zero,2(a5)
    137e:	30170d93          	addi	s11,a4,769
    1382:	ffb41f23          	sh	s11,-2(s0)
    1386:	01179123          	sh	a7,2(a5)
    138a:	30270d93          	addi	s11,a4,770
    138e:	ffb41f23          	sh	s11,-2(s0)
    1392:	00079123          	sh	zero,2(a5)
    1396:	30370d93          	addi	s11,a4,771
    139a:	ffb41f23          	sh	s11,-2(s0)
    139e:	01079123          	sh	a6,2(a5)
    13a2:	30470d93          	addi	s11,a4,772
    13a6:	ffb41f23          	sh	s11,-2(s0)
    13aa:	00079123          	sh	zero,2(a5)
    13ae:	30570d93          	addi	s11,a4,773
    13b2:	ffb41f23          	sh	s11,-2(s0)
    13b6:	01a79123          	sh	s10,2(a5)
    13ba:	30670d93          	addi	s11,a4,774
    13be:	ffb41f23          	sh	s11,-2(s0)
    13c2:	00079123          	sh	zero,2(a5)
    13c6:	30770d93          	addi	s11,a4,775
    13ca:	ffb41f23          	sh	s11,-2(s0)
    13ce:	01979123          	sh	s9,2(a5)
    13d2:	30870d93          	addi	s11,a4,776
    13d6:	ffb41f23          	sh	s11,-2(s0)
    13da:	00079123          	sh	zero,2(a5)
    13de:	30970d93          	addi	s11,a4,777
    13e2:	ffb41f23          	sh	s11,-2(s0)
    13e6:	01879123          	sh	s8,2(a5)
    13ea:	30a70d93          	addi	s11,a4,778
    13ee:	ffb41f23          	sh	s11,-2(s0)
    13f2:	00079123          	sh	zero,2(a5)
    13f6:	30b70d93          	addi	s11,a4,779
    13fa:	ffb41f23          	sh	s11,-2(s0)
    13fe:	01779123          	sh	s7,2(a5)
    1402:	30c70d93          	addi	s11,a4,780
    1406:	ffb41f23          	sh	s11,-2(s0)
    140a:	00079123          	sh	zero,2(a5)
    140e:	30d70d93          	addi	s11,a4,781
    1412:	ffb41f23          	sh	s11,-2(s0)
    1416:	01679123          	sh	s6,2(a5)
    141a:	30e70d93          	addi	s11,a4,782
    141e:	ffb41f23          	sh	s11,-2(s0)
    1422:	00079123          	sh	zero,2(a5)
    1426:	30f70d93          	addi	s11,a4,783
    142a:	ffb41f23          	sh	s11,-2(s0)
    142e:	31070d93          	addi	s11,a4,784
    1432:	01579123          	sh	s5,2(a5)
    1436:	ffb41f23          	sh	s11,-2(s0)
    143a:	00c79123          	sh	a2,2(a5)
    143e:	31170d93          	addi	s11,a4,785
    1442:	ffb41f23          	sh	s11,-2(s0)
    1446:	01479123          	sh	s4,2(a5)
    144a:	31270d93          	addi	s11,a4,786
    144e:	ffb41f23          	sh	s11,-2(s0)
    1452:	00c79123          	sh	a2,2(a5)
    1456:	31370d93          	addi	s11,a4,787
    145a:	ffb41f23          	sh	s11,-2(s0)
    145e:	01379123          	sh	s3,2(a5)
    1462:	31470d93          	addi	s11,a4,788
    1466:	ffb41f23          	sh	s11,-2(s0)
    146a:	00c79123          	sh	a2,2(a5)
    146e:	31570d93          	addi	s11,a4,789
    1472:	ffb41f23          	sh	s11,-2(s0)
    1476:	01279123          	sh	s2,2(a5)
    147a:	31670d93          	addi	s11,a4,790
    147e:	ffb41f23          	sh	s11,-2(s0)
    1482:	00c79123          	sh	a2,2(a5)
    1486:	31770d93          	addi	s11,a4,791
    148a:	ffb41f23          	sh	s11,-2(s0)
    148e:	00179123          	sh	ra,2(a5)
    1492:	31870d93          	addi	s11,a4,792
    1496:	ffb41f23          	sh	s11,-2(s0)
    149a:	00d79123          	sh	a3,2(a5)
    149e:	31970d93          	addi	s11,a4,793
    14a2:	ffb41f23          	sh	s11,-2(s0)
    14a6:	00079123          	sh	zero,2(a5)
    14aa:	31a70d93          	addi	s11,a4,794
    14ae:	ffb41f23          	sh	s11,-2(s0)
    14b2:	00d79123          	sh	a3,2(a5)
    14b6:	31b70d93          	addi	s11,a4,795
    14ba:	ffb41f23          	sh	s11,-2(s0)
    14be:	00c79123          	sh	a2,2(a5)
    14c2:	31c70d93          	addi	s11,a4,796
    14c6:	ffb41f23          	sh	s11,-2(s0)
    14ca:	00d79123          	sh	a3,2(a5)
    14ce:	31d70d93          	addi	s11,a4,797
    14d2:	ffb41f23          	sh	s11,-2(s0)
    14d6:	01079123          	sh	a6,2(a5)
    14da:	31e70d93          	addi	s11,a4,798
    14de:	ffb41f23          	sh	s11,-2(s0)
    14e2:	00d79123          	sh	a3,2(a5)
    14e6:	31f70d93          	addi	s11,a4,799
    14ea:	ffb41f23          	sh	s11,-2(s0)
    14ee:	00779123          	sh	t2,2(a5)
    14f2:	32070d93          	addi	s11,a4,800
    14f6:	ffb41f23          	sh	s11,-2(s0)
    14fa:	00d79123          	sh	a3,2(a5)
    14fe:	32170d93          	addi	s11,a4,801
    1502:	ffb41f23          	sh	s11,-2(s0)
    1506:	00579123          	sh	t0,2(a5)
    150a:	32270d93          	addi	s11,a4,802
    150e:	ffb41f23          	sh	s11,-2(s0)
    1512:	00d79123          	sh	a3,2(a5)
    1516:	32370d93          	addi	s11,a4,803
    151a:	ffb41f23          	sh	s11,-2(s0)
    151e:	01f79123          	sh	t6,2(a5)
    1522:	32470d93          	addi	s11,a4,804
    1526:	ffb41f23          	sh	s11,-2(s0)
    152a:	00d79123          	sh	a3,2(a5)
    152e:	32570d93          	addi	s11,a4,805
    1532:	ffb41f23          	sh	s11,-2(s0)
    1536:	01e79123          	sh	t5,2(a5)
    153a:	32670d93          	addi	s11,a4,806
    153e:	ffb41f23          	sh	s11,-2(s0)
    1542:	00d79123          	sh	a3,2(a5)
    1546:	32770d93          	addi	s11,a4,807
    154a:	ffb41f23          	sh	s11,-2(s0)
    154e:	01d79123          	sh	t4,2(a5)
    1552:	32870d93          	addi	s11,a4,808
    1556:	ffb41f23          	sh	s11,-2(s0)
    155a:	00d79123          	sh	a3,2(a5)
    155e:	32970d93          	addi	s11,a4,809
    1562:	ffb41f23          	sh	s11,-2(s0)
    1566:	01c79123          	sh	t3,2(a5)
    156a:	32a70d93          	addi	s11,a4,810
    156e:	ffb41f23          	sh	s11,-2(s0)
    1572:	00d79123          	sh	a3,2(a5)
    1576:	32b70d93          	addi	s11,a4,811
    157a:	ffb41f23          	sh	s11,-2(s0)
    157e:	00679123          	sh	t1,2(a5)
    1582:	32c70d93          	addi	s11,a4,812
    1586:	ffb41f23          	sh	s11,-2(s0)
    158a:	00d79123          	sh	a3,2(a5)
    158e:	32d70d93          	addi	s11,a4,813
    1592:	ffb41f23          	sh	s11,-2(s0)
    1596:	0fe00d93          	li	s11,254
    159a:	01b79123          	sh	s11,2(a5)
    159e:	32e70d93          	addi	s11,a4,814
    15a2:	ffb41f23          	sh	s11,-2(s0)
    15a6:	00b79123          	sh	a1,2(a5)
    15aa:	32f70d93          	addi	s11,a4,815
    15ae:	ffb41f23          	sh	s11,-2(s0)
    15b2:	4dc1                	li	s11,16
    15b4:	01b79123          	sh	s11,2(a5)
    15b8:	33070d93          	addi	s11,a4,816
    15bc:	ffb41f23          	sh	s11,-2(s0)
    15c0:	33170d93          	addi	s11,a4,817
    15c4:	00b79123          	sh	a1,2(a5)
    15c8:	ffb41f23          	sh	s11,-2(s0)
    15cc:	01179123          	sh	a7,2(a5)
    15d0:	33270d93          	addi	s11,a4,818
    15d4:	ffb41f23          	sh	s11,-2(s0)
    15d8:	00b79123          	sh	a1,2(a5)
    15dc:	33370d93          	addi	s11,a4,819
    15e0:	ffb41f23          	sh	s11,-2(s0)
    15e4:	06d00d93          	li	s11,109
    15e8:	01b79123          	sh	s11,2(a5)
    15ec:	40070d93          	addi	s11,a4,1024
    15f0:	ffb41f23          	sh	s11,-2(s0)
    15f4:	00079123          	sh	zero,2(a5)
    15f8:	40170d93          	addi	s11,a4,1025
    15fc:	ffb41f23          	sh	s11,-2(s0)
    1600:	01179123          	sh	a7,2(a5)
    1604:	40270d93          	addi	s11,a4,1026
    1608:	ffb41f23          	sh	s11,-2(s0)
    160c:	00079123          	sh	zero,2(a5)
    1610:	40370d93          	addi	s11,a4,1027
    1614:	ffb41f23          	sh	s11,-2(s0)
    1618:	01079123          	sh	a6,2(a5)
    161c:	40470d93          	addi	s11,a4,1028
    1620:	ffb41f23          	sh	s11,-2(s0)
    1624:	00079123          	sh	zero,2(a5)
    1628:	40570d93          	addi	s11,a4,1029
    162c:	ffb41f23          	sh	s11,-2(s0)
    1630:	01a79123          	sh	s10,2(a5)
    1634:	40670d93          	addi	s11,a4,1030
    1638:	ffb41f23          	sh	s11,-2(s0)
    163c:	00079123          	sh	zero,2(a5)
    1640:	40770d93          	addi	s11,a4,1031
    1644:	ffb41f23          	sh	s11,-2(s0)
    1648:	01979123          	sh	s9,2(a5)
    164c:	40870d93          	addi	s11,a4,1032
    1650:	ffb41f23          	sh	s11,-2(s0)
    1654:	00079123          	sh	zero,2(a5)
    1658:	40970d93          	addi	s11,a4,1033
    165c:	ffb41f23          	sh	s11,-2(s0)
    1660:	01879123          	sh	s8,2(a5)
    1664:	40a70d93          	addi	s11,a4,1034
    1668:	ffb41f23          	sh	s11,-2(s0)
    166c:	00079123          	sh	zero,2(a5)
    1670:	40b70d93          	addi	s11,a4,1035
    1674:	ffb41f23          	sh	s11,-2(s0)
    1678:	01779123          	sh	s7,2(a5)
    167c:	40c70d93          	addi	s11,a4,1036
    1680:	ffb41f23          	sh	s11,-2(s0)
    1684:	00079123          	sh	zero,2(a5)
    1688:	40d70d93          	addi	s11,a4,1037
    168c:	ffb41f23          	sh	s11,-2(s0)
    1690:	01679123          	sh	s6,2(a5)
    1694:	40e70d93          	addi	s11,a4,1038
    1698:	ffb41f23          	sh	s11,-2(s0)
    169c:	00079123          	sh	zero,2(a5)
    16a0:	40f70d93          	addi	s11,a4,1039
    16a4:	ffb41f23          	sh	s11,-2(s0)
    16a8:	01579123          	sh	s5,2(a5)
    16ac:	41070d93          	addi	s11,a4,1040
    16b0:	ffb41f23          	sh	s11,-2(s0)
    16b4:	00c79123          	sh	a2,2(a5)
    16b8:	41170d93          	addi	s11,a4,1041
    16bc:	ffb41f23          	sh	s11,-2(s0)
    16c0:	01479123          	sh	s4,2(a5)
    16c4:	41270d93          	addi	s11,a4,1042
    16c8:	ffb41f23          	sh	s11,-2(s0)
    16cc:	00c79123          	sh	a2,2(a5)
    16d0:	41370d93          	addi	s11,a4,1043
    16d4:	ffb41f23          	sh	s11,-2(s0)
    16d8:	01379123          	sh	s3,2(a5)
    16dc:	41470d93          	addi	s11,a4,1044
    16e0:	ffb41f23          	sh	s11,-2(s0)
    16e4:	00c79123          	sh	a2,2(a5)
    16e8:	41570d93          	addi	s11,a4,1045
    16ec:	ffb41f23          	sh	s11,-2(s0)
    16f0:	01279123          	sh	s2,2(a5)
    16f4:	41670d93          	addi	s11,a4,1046
    16f8:	ffb41f23          	sh	s11,-2(s0)
    16fc:	00c79123          	sh	a2,2(a5)
    1700:	41770d93          	addi	s11,a4,1047
    1704:	ffb41f23          	sh	s11,-2(s0)
    1708:	00179123          	sh	ra,2(a5)
    170c:	41870d93          	addi	s11,a4,1048
    1710:	ffb41f23          	sh	s11,-2(s0)
    1714:	00d79123          	sh	a3,2(a5)
    1718:	41970d93          	addi	s11,a4,1049
    171c:	ffb41f23          	sh	s11,-2(s0)
    1720:	00079123          	sh	zero,2(a5)
    1724:	41a70d93          	addi	s11,a4,1050
    1728:	ffb41f23          	sh	s11,-2(s0)
    172c:	00d79123          	sh	a3,2(a5)
    1730:	41b70d93          	addi	s11,a4,1051
    1734:	ffb41f23          	sh	s11,-2(s0)
    1738:	00c79123          	sh	a2,2(a5)
    173c:	41c70d93          	addi	s11,a4,1052
    1740:	ffb41f23          	sh	s11,-2(s0)
    1744:	00d79123          	sh	a3,2(a5)
    1748:	41d70d93          	addi	s11,a4,1053
    174c:	ffb41f23          	sh	s11,-2(s0)
    1750:	41e70d93          	addi	s11,a4,1054
    1754:	01079123          	sh	a6,2(a5)
    1758:	ffb41f23          	sh	s11,-2(s0)
    175c:	00d79123          	sh	a3,2(a5)
    1760:	41f70d93          	addi	s11,a4,1055
    1764:	ffb41f23          	sh	s11,-2(s0)
    1768:	00779123          	sh	t2,2(a5)
    176c:	42070d93          	addi	s11,a4,1056
    1770:	ffb41f23          	sh	s11,-2(s0)
    1774:	00d79123          	sh	a3,2(a5)
    1778:	42170d93          	addi	s11,a4,1057
    177c:	ffb41f23          	sh	s11,-2(s0)
    1780:	00579123          	sh	t0,2(a5)
    1784:	42270d93          	addi	s11,a4,1058
    1788:	ffb41f23          	sh	s11,-2(s0)
    178c:	00d79123          	sh	a3,2(a5)
    1790:	42370d93          	addi	s11,a4,1059
    1794:	ffb41f23          	sh	s11,-2(s0)
    1798:	01f79123          	sh	t6,2(a5)
    179c:	42470d93          	addi	s11,a4,1060
    17a0:	ffb41f23          	sh	s11,-2(s0)
    17a4:	00d79123          	sh	a3,2(a5)
    17a8:	42570d93          	addi	s11,a4,1061
    17ac:	ffb41f23          	sh	s11,-2(s0)
    17b0:	01e79123          	sh	t5,2(a5)
    17b4:	42670d93          	addi	s11,a4,1062
    17b8:	ffb41f23          	sh	s11,-2(s0)
    17bc:	00d79123          	sh	a3,2(a5)
    17c0:	42770d93          	addi	s11,a4,1063
    17c4:	ffb41f23          	sh	s11,-2(s0)
    17c8:	01d79123          	sh	t4,2(a5)
    17cc:	42870d93          	addi	s11,a4,1064
    17d0:	ffb41f23          	sh	s11,-2(s0)
    17d4:	00d79123          	sh	a3,2(a5)
    17d8:	42970d93          	addi	s11,a4,1065
    17dc:	ffb41f23          	sh	s11,-2(s0)
    17e0:	01c79123          	sh	t3,2(a5)
    17e4:	42a70d93          	addi	s11,a4,1066
    17e8:	ffb41f23          	sh	s11,-2(s0)
    17ec:	00d79123          	sh	a3,2(a5)
    17f0:	42b70d93          	addi	s11,a4,1067
    17f4:	ffb41f23          	sh	s11,-2(s0)
    17f8:	00679123          	sh	t1,2(a5)
    17fc:	42c70d93          	addi	s11,a4,1068
    1800:	ffb41f23          	sh	s11,-2(s0)
    1804:	00d79123          	sh	a3,2(a5)
    1808:	42d70d93          	addi	s11,a4,1069
    180c:	ffb41f23          	sh	s11,-2(s0)
    1810:	0fe00d93          	li	s11,254
    1814:	01b79123          	sh	s11,2(a5)
    1818:	42e70d93          	addi	s11,a4,1070
    181c:	ffb41f23          	sh	s11,-2(s0)
    1820:	00b79123          	sh	a1,2(a5)
    1824:	42f70d93          	addi	s11,a4,1071
    1828:	ffb41f23          	sh	s11,-2(s0)
    182c:	4dc1                	li	s11,16
    182e:	01b79123          	sh	s11,2(a5)
    1832:	43070d93          	addi	s11,a4,1072
    1836:	ffb41f23          	sh	s11,-2(s0)
    183a:	00b79123          	sh	a1,2(a5)
    183e:	43170d93          	addi	s11,a4,1073
    1842:	ffb41f23          	sh	s11,-2(s0)
    1846:	01179123          	sh	a7,2(a5)
    184a:	43270d93          	addi	s11,a4,1074
    184e:	ffb41f23          	sh	s11,-2(s0)
    1852:	00b79123          	sh	a1,2(a5)
    1856:	43370d93          	addi	s11,a4,1075
    185a:	ffb41f23          	sh	s11,-2(s0)
    185e:	06d00d93          	li	s11,109
    1862:	01b79123          	sh	s11,2(a5)
    1866:	50070d93          	addi	s11,a4,1280
    186a:	ffb41f23          	sh	s11,-2(s0)
    186e:	00079123          	sh	zero,2(a5)
    1872:	50170d93          	addi	s11,a4,1281
    1876:	ffb41f23          	sh	s11,-2(s0)
    187a:	01179123          	sh	a7,2(a5)
    187e:	50270d93          	addi	s11,a4,1282
    1882:	ffb41f23          	sh	s11,-2(s0)
    1886:	00079123          	sh	zero,2(a5)
    188a:	50370d93          	addi	s11,a4,1283
    188e:	ffb41f23          	sh	s11,-2(s0)
    1892:	01079123          	sh	a6,2(a5)
    1896:	50470d93          	addi	s11,a4,1284
    189a:	ffb41f23          	sh	s11,-2(s0)
    189e:	00079123          	sh	zero,2(a5)
    18a2:	50570d93          	addi	s11,a4,1285
    18a6:	ffb41f23          	sh	s11,-2(s0)
    18aa:	01a79123          	sh	s10,2(a5)
    18ae:	50670d93          	addi	s11,a4,1286
    18b2:	ffb41f23          	sh	s11,-2(s0)
    18b6:	00079123          	sh	zero,2(a5)
    18ba:	50770d93          	addi	s11,a4,1287
    18be:	ffb41f23          	sh	s11,-2(s0)
    18c2:	01979123          	sh	s9,2(a5)
    18c6:	50870d93          	addi	s11,a4,1288
    18ca:	ffb41f23          	sh	s11,-2(s0)
    18ce:	00079123          	sh	zero,2(a5)
    18d2:	50970d93          	addi	s11,a4,1289
    18d6:	ffb41f23          	sh	s11,-2(s0)
    18da:	01879123          	sh	s8,2(a5)
    18de:	50a70d93          	addi	s11,a4,1290
    18e2:	ffb41f23          	sh	s11,-2(s0)
    18e6:	50b70d93          	addi	s11,a4,1291
    18ea:	00079123          	sh	zero,2(a5)
    18ee:	ffb41f23          	sh	s11,-2(s0)
    18f2:	01779123          	sh	s7,2(a5)
    18f6:	50c70d93          	addi	s11,a4,1292
    18fa:	ffb41f23          	sh	s11,-2(s0)
    18fe:	00079123          	sh	zero,2(a5)
    1902:	50d70d93          	addi	s11,a4,1293
    1906:	ffb41f23          	sh	s11,-2(s0)
    190a:	01679123          	sh	s6,2(a5)
    190e:	50e70d93          	addi	s11,a4,1294
    1912:	ffb41f23          	sh	s11,-2(s0)
    1916:	00079123          	sh	zero,2(a5)
    191a:	50f70d93          	addi	s11,a4,1295
    191e:	ffb41f23          	sh	s11,-2(s0)
    1922:	01579123          	sh	s5,2(a5)
    1926:	51070d93          	addi	s11,a4,1296
    192a:	ffb41f23          	sh	s11,-2(s0)
    192e:	00c79123          	sh	a2,2(a5)
    1932:	51170d93          	addi	s11,a4,1297
    1936:	ffb41f23          	sh	s11,-2(s0)
    193a:	01479123          	sh	s4,2(a5)
    193e:	51270d93          	addi	s11,a4,1298
    1942:	ffb41f23          	sh	s11,-2(s0)
    1946:	00c79123          	sh	a2,2(a5)
    194a:	51370d93          	addi	s11,a4,1299
    194e:	ffb41f23          	sh	s11,-2(s0)
    1952:	01379123          	sh	s3,2(a5)
    1956:	51470d93          	addi	s11,a4,1300
    195a:	ffb41f23          	sh	s11,-2(s0)
    195e:	00c79123          	sh	a2,2(a5)
    1962:	51570d93          	addi	s11,a4,1301
    1966:	ffb41f23          	sh	s11,-2(s0)
    196a:	01279123          	sh	s2,2(a5)
    196e:	51670d93          	addi	s11,a4,1302
    1972:	ffb41f23          	sh	s11,-2(s0)
    1976:	00c79123          	sh	a2,2(a5)
    197a:	51770d93          	addi	s11,a4,1303
    197e:	ffb41f23          	sh	s11,-2(s0)
    1982:	00179123          	sh	ra,2(a5)
    1986:	51870d93          	addi	s11,a4,1304
    198a:	ffb41f23          	sh	s11,-2(s0)
    198e:	00d79123          	sh	a3,2(a5)
    1992:	51970d93          	addi	s11,a4,1305
    1996:	ffb41f23          	sh	s11,-2(s0)
    199a:	00079123          	sh	zero,2(a5)
    199e:	51a70d93          	addi	s11,a4,1306
    19a2:	ffb41f23          	sh	s11,-2(s0)
    19a6:	00d79123          	sh	a3,2(a5)
    19aa:	51b70d93          	addi	s11,a4,1307
    19ae:	ffb41f23          	sh	s11,-2(s0)
    19b2:	00c79123          	sh	a2,2(a5)
    19b6:	51c70d93          	addi	s11,a4,1308
    19ba:	ffb41f23          	sh	s11,-2(s0)
    19be:	00d79123          	sh	a3,2(a5)
    19c2:	51d70d93          	addi	s11,a4,1309
    19c6:	ffb41f23          	sh	s11,-2(s0)
    19ca:	01079123          	sh	a6,2(a5)
    19ce:	51e70d93          	addi	s11,a4,1310
    19d2:	ffb41f23          	sh	s11,-2(s0)
    19d6:	00d79123          	sh	a3,2(a5)
    19da:	51f70d93          	addi	s11,a4,1311
    19de:	ffb41f23          	sh	s11,-2(s0)
    19e2:	00779123          	sh	t2,2(a5)
    19e6:	52070d93          	addi	s11,a4,1312
    19ea:	ffb41f23          	sh	s11,-2(s0)
    19ee:	00d79123          	sh	a3,2(a5)
    19f2:	52170d93          	addi	s11,a4,1313
    19f6:	ffb41f23          	sh	s11,-2(s0)
    19fa:	00579123          	sh	t0,2(a5)
    19fe:	52270d93          	addi	s11,a4,1314
    1a02:	ffb41f23          	sh	s11,-2(s0)
    1a06:	00d79123          	sh	a3,2(a5)
    1a0a:	52370d93          	addi	s11,a4,1315
    1a0e:	ffb41f23          	sh	s11,-2(s0)
    1a12:	01f79123          	sh	t6,2(a5)
    1a16:	52470d93          	addi	s11,a4,1316
    1a1a:	ffb41f23          	sh	s11,-2(s0)
    1a1e:	00d79123          	sh	a3,2(a5)
    1a22:	52570d93          	addi	s11,a4,1317
    1a26:	ffb41f23          	sh	s11,-2(s0)
    1a2a:	01e79123          	sh	t5,2(a5)
    1a2e:	52670d93          	addi	s11,a4,1318
    1a32:	ffb41f23          	sh	s11,-2(s0)
    1a36:	00d79123          	sh	a3,2(a5)
    1a3a:	52770d93          	addi	s11,a4,1319
    1a3e:	ffb41f23          	sh	s11,-2(s0)
    1a42:	01d79123          	sh	t4,2(a5)
    1a46:	52870d93          	addi	s11,a4,1320
    1a4a:	ffb41f23          	sh	s11,-2(s0)
    1a4e:	00d79123          	sh	a3,2(a5)
    1a52:	52970d93          	addi	s11,a4,1321
    1a56:	ffb41f23          	sh	s11,-2(s0)
    1a5a:	01c79123          	sh	t3,2(a5)
    1a5e:	52a70d93          	addi	s11,a4,1322
    1a62:	ffb41f23          	sh	s11,-2(s0)
    1a66:	00d79123          	sh	a3,2(a5)
    1a6a:	52b70d93          	addi	s11,a4,1323
    1a6e:	ffb41f23          	sh	s11,-2(s0)
    1a72:	52c70d93          	addi	s11,a4,1324
    1a76:	00679123          	sh	t1,2(a5)
    1a7a:	ffb41f23          	sh	s11,-2(s0)
    1a7e:	00d79123          	sh	a3,2(a5)
    1a82:	52d70d93          	addi	s11,a4,1325
    1a86:	ffb41f23          	sh	s11,-2(s0)
    1a8a:	0fe00d93          	li	s11,254
    1a8e:	01b79123          	sh	s11,2(a5)
    1a92:	52e70d93          	addi	s11,a4,1326
    1a96:	ffb41f23          	sh	s11,-2(s0)
    1a9a:	00b79123          	sh	a1,2(a5)
    1a9e:	52f70d93          	addi	s11,a4,1327
    1aa2:	ffb41f23          	sh	s11,-2(s0)
    1aa6:	4dc1                	li	s11,16
    1aa8:	01b79123          	sh	s11,2(a5)
    1aac:	53070d93          	addi	s11,a4,1328
    1ab0:	ffb41f23          	sh	s11,-2(s0)
    1ab4:	00b79123          	sh	a1,2(a5)
    1ab8:	53170d93          	addi	s11,a4,1329
    1abc:	ffb41f23          	sh	s11,-2(s0)
    1ac0:	01179123          	sh	a7,2(a5)
    1ac4:	53270d93          	addi	s11,a4,1330
    1ac8:	ffb41f23          	sh	s11,-2(s0)
    1acc:	00b79123          	sh	a1,2(a5)
    1ad0:	53370d93          	addi	s11,a4,1331
    1ad4:	ffb41f23          	sh	s11,-2(s0)
    1ad8:	06d00d93          	li	s11,109
    1adc:	01b79123          	sh	s11,2(a5)
    1ae0:	60070d93          	addi	s11,a4,1536
    1ae4:	ffb41f23          	sh	s11,-2(s0)
    1ae8:	00079123          	sh	zero,2(a5)
    1aec:	60170d93          	addi	s11,a4,1537
    1af0:	ffb41f23          	sh	s11,-2(s0)
    1af4:	01179123          	sh	a7,2(a5)
    1af8:	60270d93          	addi	s11,a4,1538
    1afc:	ffb41f23          	sh	s11,-2(s0)
    1b00:	00079123          	sh	zero,2(a5)
    1b04:	60370d93          	addi	s11,a4,1539
    1b08:	ffb41f23          	sh	s11,-2(s0)
    1b0c:	01079123          	sh	a6,2(a5)
    1b10:	60470d93          	addi	s11,a4,1540
    1b14:	ffb41f23          	sh	s11,-2(s0)
    1b18:	00079123          	sh	zero,2(a5)
    1b1c:	60570d93          	addi	s11,a4,1541
    1b20:	ffb41f23          	sh	s11,-2(s0)
    1b24:	01a79123          	sh	s10,2(a5)
    1b28:	60670d13          	addi	s10,a4,1542
    1b2c:	ffa41f23          	sh	s10,-2(s0)
    1b30:	00079123          	sh	zero,2(a5)
    1b34:	60770d13          	addi	s10,a4,1543
    1b38:	ffa41f23          	sh	s10,-2(s0)
    1b3c:	01979123          	sh	s9,2(a5)
    1b40:	60870c93          	addi	s9,a4,1544
    1b44:	ff941f23          	sh	s9,-2(s0)
    1b48:	00079123          	sh	zero,2(a5)
    1b4c:	60970c93          	addi	s9,a4,1545
    1b50:	ff941f23          	sh	s9,-2(s0)
    1b54:	01879123          	sh	s8,2(a5)
    1b58:	60a70c13          	addi	s8,a4,1546
    1b5c:	ff841f23          	sh	s8,-2(s0)
    1b60:	00079123          	sh	zero,2(a5)
    1b64:	60b70c13          	addi	s8,a4,1547
    1b68:	ff841f23          	sh	s8,-2(s0)
    1b6c:	01779123          	sh	s7,2(a5)
    1b70:	60c70b93          	addi	s7,a4,1548
    1b74:	ff741f23          	sh	s7,-2(s0)
    1b78:	00079123          	sh	zero,2(a5)
    1b7c:	60d70b93          	addi	s7,a4,1549
    1b80:	ff741f23          	sh	s7,-2(s0)
    1b84:	01679123          	sh	s6,2(a5)
    1b88:	60e70b13          	addi	s6,a4,1550
    1b8c:	ff641f23          	sh	s6,-2(s0)
    1b90:	00079123          	sh	zero,2(a5)
    1b94:	60f70b13          	addi	s6,a4,1551
    1b98:	ff641f23          	sh	s6,-2(s0)
    1b9c:	01579123          	sh	s5,2(a5)
    1ba0:	61070a93          	addi	s5,a4,1552
    1ba4:	ff541f23          	sh	s5,-2(s0)
    1ba8:	00c79123          	sh	a2,2(a5)
    1bac:	61170a93          	addi	s5,a4,1553
    1bb0:	ff541f23          	sh	s5,-2(s0)
    1bb4:	01479123          	sh	s4,2(a5)
    1bb8:	61270a13          	addi	s4,a4,1554
    1bbc:	ff441f23          	sh	s4,-2(s0)
    1bc0:	00c79123          	sh	a2,2(a5)
    1bc4:	61370a13          	addi	s4,a4,1555
    1bc8:	ff441f23          	sh	s4,-2(s0)
    1bcc:	01379123          	sh	s3,2(a5)
    1bd0:	61470993          	addi	s3,a4,1556
    1bd4:	ff341f23          	sh	s3,-2(s0)
    1bd8:	00c79123          	sh	a2,2(a5)
    1bdc:	61570993          	addi	s3,a4,1557
    1be0:	ff341f23          	sh	s3,-2(s0)
    1be4:	01279123          	sh	s2,2(a5)
    1be8:	61670913          	addi	s2,a4,1558
    1bec:	ff241f23          	sh	s2,-2(s0)
    1bf0:	00c79123          	sh	a2,2(a5)
    1bf4:	61770913          	addi	s2,a4,1559
    1bf8:	ff241f23          	sh	s2,-2(s0)
    1bfc:	00179123          	sh	ra,2(a5)
    1c00:	61870093          	addi	ra,a4,1560
    1c04:	fe141f23          	sh	ra,-2(s0)
    1c08:	61970093          	addi	ra,a4,1561
    1c0c:	00d79123          	sh	a3,2(a5)
    1c10:	fe141f23          	sh	ra,-2(s0)
    1c14:	00079123          	sh	zero,2(a5)
    1c18:	61a70093          	addi	ra,a4,1562
    1c1c:	fe141f23          	sh	ra,-2(s0)
    1c20:	00d79123          	sh	a3,2(a5)
    1c24:	61b70093          	addi	ra,a4,1563
    1c28:	fe141f23          	sh	ra,-2(s0)
    1c2c:	00c79123          	sh	a2,2(a5)
    1c30:	61c70093          	addi	ra,a4,1564
    1c34:	fe141f23          	sh	ra,-2(s0)
    1c38:	00d79123          	sh	a3,2(a5)
    1c3c:	61d70093          	addi	ra,a4,1565
    1c40:	fe141f23          	sh	ra,-2(s0)
    1c44:	01079123          	sh	a6,2(a5)
    1c48:	61e70813          	addi	a6,a4,1566
    1c4c:	ff041f23          	sh	a6,-2(s0)
    1c50:	00d79123          	sh	a3,2(a5)
    1c54:	61f70813          	addi	a6,a4,1567
    1c58:	ff041f23          	sh	a6,-2(s0)
    1c5c:	00779123          	sh	t2,2(a5)
    1c60:	62070813          	addi	a6,a4,1568
    1c64:	ff041f23          	sh	a6,-2(s0)
    1c68:	00d79123          	sh	a3,2(a5)
    1c6c:	62170813          	addi	a6,a4,1569
    1c70:	ff041f23          	sh	a6,-2(s0)
    1c74:	00579123          	sh	t0,2(a5)
    1c78:	62270813          	addi	a6,a4,1570
    1c7c:	ff041f23          	sh	a6,-2(s0)
    1c80:	00d79123          	sh	a3,2(a5)
    1c84:	62370813          	addi	a6,a4,1571
    1c88:	ff041f23          	sh	a6,-2(s0)
    1c8c:	01f79123          	sh	t6,2(a5)
    1c90:	62470813          	addi	a6,a4,1572
    1c94:	ff041f23          	sh	a6,-2(s0)
    1c98:	00d79123          	sh	a3,2(a5)
    1c9c:	62570813          	addi	a6,a4,1573
    1ca0:	ff041f23          	sh	a6,-2(s0)
    1ca4:	01e79123          	sh	t5,2(a5)
    1ca8:	62670813          	addi	a6,a4,1574
    1cac:	ff041f23          	sh	a6,-2(s0)
    1cb0:	00d79123          	sh	a3,2(a5)
    1cb4:	62770813          	addi	a6,a4,1575
    1cb8:	ff041f23          	sh	a6,-2(s0)
    1cbc:	01d79123          	sh	t4,2(a5)
    1cc0:	62870813          	addi	a6,a4,1576
    1cc4:	ff041f23          	sh	a6,-2(s0)
    1cc8:	00d79123          	sh	a3,2(a5)
    1ccc:	62970813          	addi	a6,a4,1577
    1cd0:	ff041f23          	sh	a6,-2(s0)
    1cd4:	01c79123          	sh	t3,2(a5)
    1cd8:	62a70813          	addi	a6,a4,1578
    1cdc:	ff041f23          	sh	a6,-2(s0)
    1ce0:	00d79123          	sh	a3,2(a5)
    1ce4:	62b70813          	addi	a6,a4,1579
    1ce8:	ff041f23          	sh	a6,-2(s0)
    1cec:	00679123          	sh	t1,2(a5)
    1cf0:	62c70813          	addi	a6,a4,1580
    1cf4:	ff041f23          	sh	a6,-2(s0)
    1cf8:	00d79123          	sh	a3,2(a5)
    1cfc:	62d70813          	addi	a6,a4,1581
    1d00:	ff041f23          	sh	a6,-2(s0)
    1d04:	0fe00d93          	li	s11,254
    1d08:	01b79123          	sh	s11,2(a5)
    1d0c:	62e70813          	addi	a6,a4,1582
    1d10:	ff041f23          	sh	a6,-2(s0)
    1d14:	00b79123          	sh	a1,2(a5)
    1d18:	62f70813          	addi	a6,a4,1583
    1d1c:	ff041f23          	sh	a6,-2(s0)
    1d20:	4dc1                	li	s11,16
    1d22:	01b79123          	sh	s11,2(a5)
    1d26:	63070813          	addi	a6,a4,1584
    1d2a:	ff041f23          	sh	a6,-2(s0)
    1d2e:	00b79123          	sh	a1,2(a5)
    1d32:	63170813          	addi	a6,a4,1585
    1d36:	ff041f23          	sh	a6,-2(s0)
    1d3a:	01179123          	sh	a7,2(a5)
    1d3e:	63270813          	addi	a6,a4,1586
    1d42:	ff041f23          	sh	a6,-2(s0)
    1d46:	00b79123          	sh	a1,2(a5)
    1d4a:	63370813          	addi	a6,a4,1587
    1d4e:	ff041f23          	sh	a6,-2(s0)
    1d52:	06d00d93          	li	s11,109
    1d56:	01b79123          	sh	s11,2(a5)
    1d5a:	787d                	lui	a6,0xfffff
    1d5c:	ff041f23          	sh	a6,-2(s0)
    1d60:	05500e93          	li	t4,85
    1d64:	01d79123          	sh	t4,2(a5)
    1d68:	00180f93          	addi	t6,a6,1 # fffff001 <_eusrstack+0xdfff7001>
    1d6c:	fff41f23          	sh	t6,-2(s0)
    1d70:	0aa00f13          	li	t5,170
    1d74:	01e79123          	sh	t5,2(a5)
    1d78:	00280f93          	addi	t6,a6,2
    1d7c:	fff41f23          	sh	t6,-2(s0)
    1d80:	05200f13          	li	t5,82
    1d84:	01e79123          	sh	t5,2(a5)
    1d88:	00380f13          	addi	t5,a6,3
    1d8c:	ffe41f23          	sh	t5,-2(s0)
    1d90:	4e21                	li	t3,8
    1d92:	01c79123          	sh	t3,2(a5)
    1d96:	0811                	addi	a6,a6,4
    1d98:	78ed                	lui	a7,0xffffb
    1d9a:	ff041f23          	sh	a6,-2(s0)
    1d9e:	00079123          	sh	zero,2(a5)
    1da2:	10088813          	addi	a6,a7,256 # ffffb100 <_eusrstack+0xdfff3100>
    1da6:	ff041f23          	sh	a6,-2(s0)
    1daa:	0cc00813          	li	a6,204
    1dae:	01079123          	sh	a6,2(a5)
    1db2:	10188813          	addi	a6,a7,257
    1db6:	ff041f23          	sh	a6,-2(s0)
    1dba:	00079123          	sh	zero,2(a5)
    1dbe:	60088813          	addi	a6,a7,1536
    1dc2:	ff041f23          	sh	a6,-2(s0)
    1dc6:	4815                	li	a6,5
    1dc8:	01079123          	sh	a6,2(a5)
    1dcc:	70088813          	addi	a6,a7,1792
    1dd0:	ff041f23          	sh	a6,-2(s0)
    1dd4:	07000813          	li	a6,112
    1dd8:	01079123          	sh	a6,2(a5)
    1ddc:	70188893          	addi	a7,a7,1793
    1de0:	ff141f23          	sh	a7,-2(s0)
    1de4:	7371                	lui	t1,0xffffc
    1de6:	01079123          	sh	a6,2(a5)
    1dea:	80030813          	addi	a6,t1,-2048 # ffffb800 <_eusrstack+0xdfff3800>
    1dee:	ff041f23          	sh	a6,-2(s0)
    1df2:	00c79123          	sh	a2,2(a5)
    1df6:	80130813          	addi	a6,t1,-2047
    1dfa:	ff041f23          	sh	a6,-2(s0)
    1dfe:	00b79123          	sh	a1,2(a5)
    1e02:	80230813          	addi	a6,t1,-2046
    1e06:	ff041f23          	sh	a6,-2(s0)
    1e0a:	00b79123          	sh	a1,2(a5)
    1e0e:	80350513          	addi	a0,a0,-2045
    1e12:	fea41f23          	sh	a0,-2(s0)
    1e16:	00b79123          	sh	a1,2(a5)
    1e1a:	c0030593          	addi	a1,t1,-1024
    1e1e:	feb41f23          	sh	a1,-2(s0)
    1e22:	00d79123          	sh	a3,2(a5)
    1e26:	c0130593          	addi	a1,t1,-1023
    1e2a:	feb41f23          	sh	a1,-2(s0)
    1e2e:	00079123          	sh	zero,2(a5)
    1e32:	c0230613          	addi	a2,t1,-1022
    1e36:	fec41f23          	sh	a2,-2(s0)
    1e3a:	00079123          	sh	zero,2(a5)
    1e3e:	90070613          	addi	a2,a4,-1792
    1e42:	fec41f23          	sh	a2,-2(s0)
    1e46:	0d000613          	li	a2,208
    1e4a:	00c79123          	sh	a2,2(a5)
    1e4e:	90170613          	addi	a2,a4,-1791
    1e52:	fec41f23          	sh	a2,-2(s0)
    1e56:	00d79123          	sh	a3,2(a5)
    1e5a:	90270693          	addi	a3,a4,-1790
    1e5e:	fed41f23          	sh	a3,-2(s0)
    1e62:	05000693          	li	a3,80
    1e66:	00d79123          	sh	a3,2(a5)
    1e6a:	90370613          	addi	a2,a4,-1789
    1e6e:	fec41f23          	sh	a2,-2(s0)
    1e72:	00d79123          	sh	a3,2(a5)
    1e76:	90470713          	addi	a4,a4,-1788
    1e7a:	fee41f23          	sh	a4,-2(s0)
    1e7e:	690d                	lui	s2,0x3
    1e80:	00d79123          	sh	a3,2(a5)
    1e84:	50090713          	addi	a4,s2,1280 # 3500 <memcmp+0x1a>
    1e88:	fee41f23          	sh	a4,-2(s0)
    1e8c:	6711                	lui	a4,0x4
    1e8e:	00079123          	sh	zero,2(a5)
    1e92:	a0070713          	addi	a4,a4,-1536 # 3a00 <std+0x26>
    1e96:	fee41f23          	sh	a4,-2(s0)
    1e9a:	01d79123          	sh	t4,2(a5)
    1e9e:	6785                	lui	a5,0x1
    1ea0:	10078793          	addi	a5,a5,256 # 1100 <LCD_Init+0x7da>
    1ea4:	fef41f23          	sh	a5,-2(s0)
    1ea8:	07800513          	li	a0,120
    1eac:	90090913          	addi	s2,s2,-1792
    1eb0:	500010ef          	jal	ra,33b0 <Delay_Us>
    1eb4:	ff241f23          	sh	s2,-2(s0)
    1eb8:	0044d703          	lhu	a4,4(s1)
    1ebc:	67a5                	lui	a5,0x9
    1ebe:	34178793          	addi	a5,a5,833 # 9341 <_data_lma+0x1881>
    1ec2:	02f70063          	beq	a4,a5,1ee2 <LCD_Init+0x15bc>
    1ec6:	77ed                	lui	a5,0xffffb
    1ec8:	cf078793          	addi	a5,a5,-784 # ffffacf0 <_eusrstack+0xdfff2cf0>
    1ecc:	97ba                	add	a5,a5,a4
    1ece:	dff7f793          	andi	a5,a5,-513
    1ed2:	07c2                	slli	a5,a5,0x10
    1ed4:	83c1                	srli	a5,a5,0x10
    1ed6:	c791                	beqz	a5,1ee2 <LCD_Init+0x15bc>
    1ed8:	6789                	lui	a5,0x2
    1eda:	96378793          	addi	a5,a5,-1693 # 1963 <LCD_Init+0x103d>
    1ede:	00f71f63          	bne	a4,a5,1efc <LCD_Init+0x15d6>
    1ee2:	57c2                	lw	a5,48(sp)
    1ee4:	777d                	lui	a4,0xfffff
    1ee6:	0ff70713          	addi	a4,a4,255 # fffff0ff <_eusrstack+0xdfff70ff>
    1eea:	8ff9                	and	a5,a5,a4
    1eec:	5722                	lw	a4,40(sp)
    1eee:	4007e793          	ori	a5,a5,1024
    1ef2:	d83e                	sw	a5,48(sp)
    1ef4:	9b41                	andi	a4,a4,-16
    1ef6:	00476713          	ori	a4,a4,4
    1efa:	d43a                	sw	a4,40(sp)
    1efc:	4505                	li	a0,1
    1efe:	9a1fe0ef          	jal	ra,89e <LCD_Display_Dir>
    1f02:	40011537          	lui	a0,0x40011
    1f06:	6591                	lui	a1,0x4
    1f08:	c0050513          	addi	a0,a0,-1024 # 40010c00 <_eusrstack+0x20008c00>
    1f0c:	50d000ef          	jal	ra,2c18 <GPIO_SetBits>
    1f10:	6521                	lui	a0,0x8
    1f12:	d7c50513          	addi	a0,a0,-644 # 7d7c <_data_lma+0x2bc>
    1f16:	9d3fe0ef          	jal	ra,8e8 <LCD_Clear>
    1f1a:	50fa                	lw	ra,188(sp)
    1f1c:	546a                	lw	s0,184(sp)
    1f1e:	54da                	lw	s1,180(sp)
    1f20:	594a                	lw	s2,176(sp)
    1f22:	59ba                	lw	s3,172(sp)
    1f24:	5a2a                	lw	s4,168(sp)
    1f26:	5a9a                	lw	s5,164(sp)
    1f28:	5b0a                	lw	s6,160(sp)
    1f2a:	4bfa                	lw	s7,156(sp)
    1f2c:	4c6a                	lw	s8,152(sp)
    1f2e:	4cda                	lw	s9,148(sp)
    1f30:	4d4a                	lw	s10,144(sp)
    1f32:	4dba                	lw	s11,140(sp)
    1f34:	6129                	addi	sp,sp,192
    1f36:	8082                	ret
    1f38:	ff541f23          	sh	s5,-2(s0)
    1f3c:	81bfe0ef          	jal	ra,756 <LCD_RD_DATA>
    1f40:	00a49223          	sh	a0,4(s1)
    1f44:	813fe0ef          	jal	ra,756 <LCD_RD_DATA>
    1f48:	00a49223          	sh	a0,4(s1)
    1f4c:	80bfe0ef          	jal	ra,756 <LCD_RD_DATA>
    1f50:	0522                	slli	a0,a0,0x8
    1f52:	00a49223          	sh	a0,4(s1)
    1f56:	801fe0ef          	jal	ra,756 <LCD_RD_DATA>
    1f5a:	0044d783          	lhu	a5,4(s1)
    1f5e:	8d5d                	or	a0,a0,a5
    1f60:	0542                	slli	a0,a0,0x10
    1f62:	8141                	srli	a0,a0,0x10
    1f64:	67a9                	lui	a5,0xa
    1f66:	00a49223          	sh	a0,4(s1)
    1f6a:	80678793          	addi	a5,a5,-2042 # 9806 <_data_lma+0x1d46>
    1f6e:	f4f505e3          	beq	a0,a5,1eb8 <LCD_Init+0x1592>
    1f72:	0a100793          	li	a5,161
    1f76:	fef41f23          	sh	a5,-2(s0)
    1f7a:	fdcfe0ef          	jal	ra,756 <LCD_RD_DATA>
    1f7e:	00a49223          	sh	a0,4(s1)
    1f82:	fd4fe0ef          	jal	ra,756 <LCD_RD_DATA>
    1f86:	0522                	slli	a0,a0,0x8
    1f88:	00a49223          	sh	a0,4(s1)
    1f8c:	fcafe0ef          	jal	ra,756 <LCD_RD_DATA>
    1f90:	0044d783          	lhu	a5,4(s1)
    1f94:	76190913          	addi	s2,s2,1889
    1f98:	8d5d                	or	a0,a0,a5
    1f9a:	0542                	slli	a0,a0,0x10
    1f9c:	8141                	srli	a0,a0,0x10
    1f9e:	00a49223          	sh	a0,4(s1)
    1fa2:	01251763          	bne	a0,s2,1fb0 <LCD_Init+0x168a>
    1fa6:	6789                	lui	a5,0x2
    1fa8:	96378793          	addi	a5,a5,-1693 # 1963 <LCD_Init+0x103d>
    1fac:	b35fe06f          	j	ae0 <LCD_Init+0x1ba>
    1fb0:	01351463          	bne	a0,s3,1fb8 <LCD_Init+0x1692>
    1fb4:	c35fe06f          	j	be8 <LCD_Init+0x2c2>
    1fb8:	b701                	j	1eb8 <LCD_Init+0x1592>

00001fba <LCD_Fast_DrawPoint>:
    1fba:	c6018713          	addi	a4,gp,-928 # 200004e0 <lcddev>
    1fbe:	00475683          	lhu	a3,4(a4)
    1fc2:	6715                	lui	a4,0x5
    1fc4:	51070713          	addi	a4,a4,1296 # 5510 <asc2_2412+0x78>
    1fc8:	c6018793          	addi	a5,gp,-928 # 200004e0 <lcddev>
    1fcc:	04e69663          	bne	a3,a4,2018 <LCD_Fast_DrawPoint+0x5e>
    1fd0:	00a7d703          	lhu	a4,10(a5)
    1fd4:	600406b7          	lui	a3,0x60040
    1fd8:	00855893          	srli	a7,a0,0x8
    1fdc:	fee69f23          	sh	a4,-2(a3) # 6003fffe <_eusrstack+0x40037ffe>
    1fe0:	0705                	addi	a4,a4,1
    1fe2:	0742                	slli	a4,a4,0x10
    1fe4:	01169023          	sh	a7,0(a3)
    1fe8:	8341                	srli	a4,a4,0x10
    1fea:	fee69f23          	sh	a4,-2(a3)
    1fee:	0ff57513          	andi	a0,a0,255
    1ff2:	00a69023          	sh	a0,0(a3)
    1ff6:	00c7d703          	lhu	a4,12(a5)
    1ffa:	0085d513          	srli	a0,a1,0x8
    1ffe:	0ff5f593          	andi	a1,a1,255
    2002:	fee69f23          	sh	a4,-2(a3)
    2006:	0705                	addi	a4,a4,1
    2008:	0742                	slli	a4,a4,0x10
    200a:	00a69023          	sh	a0,0(a3)
    200e:	8341                	srli	a4,a4,0x10
    2010:	fee69f23          	sh	a4,-2(a3)
    2014:	00b69023          	sh	a1,0(a3)
    2018:	0087d683          	lhu	a3,8(a5)
    201c:	600407b7          	lui	a5,0x60040
    2020:	fed79f23          	sh	a3,-2(a5) # 6003fffe <_eusrstack+0x40037ffe>
    2024:	00c79023          	sh	a2,0(a5)
    2028:	8082                	ret

0000202a <LCD_ShowChar>:
    202a:	711d                	addi	sp,sp,-96
    202c:	0076f793          	andi	a5,a3,7
    2030:	d86a                	sw	s10,48(sp)
    2032:	00f037b3          	snez	a5,a5
    2036:	8d2e                	mv	s10,a1
    2038:	0036d593          	srli	a1,a3,0x3
    203c:	97ae                	add	a5,a5,a1
    203e:	0016d593          	srli	a1,a3,0x1
    2042:	02b787b3          	mul	a5,a5,a1
    2046:	cca2                	sw	s0,88(sp)
    2048:	fe060413          	addi	s0,a2,-32
    204c:	0ff47413          	andi	s0,s0,255
    2050:	4631                	li	a2,12
    2052:	caa6                	sw	s1,84(sp)
    2054:	02400493          	li	s1,36
    2058:	c8ca                	sw	s2,80(sp)
    205a:	c6ce                	sw	s3,76(sp)
    205c:	c4d2                	sw	s4,72(sp)
    205e:	0ff7f793          	andi	a5,a5,255
    2062:	c63e                	sw	a5,12(sp)
    2064:	00641793          	slli	a5,s0,0x6
    2068:	ca3e                	sw	a5,20(sp)
    206a:	00441793          	slli	a5,s0,0x4
    206e:	c83e                	sw	a5,16(sp)
    2070:	02c407b3          	mul	a5,s0,a2
    2074:	c2d6                	sw	s5,68(sp)
    2076:	6919                	lui	s2,0x6
    2078:	6995                	lui	s3,0x5
    207a:	6a15                	lui	s4,0x5
    207c:	6a95                	lui	s5,0x5
    207e:	de5e                	sw	s7,60(sp)
    2080:	dc62                	sw	s8,56(sp)
    2082:	da66                	sw	s9,52(sp)
    2084:	ce86                	sw	ra,92(sp)
    2086:	029404b3          	mul	s1,s0,s1
    208a:	c0da                	sw	s6,64(sp)
    208c:	d66e                	sw	s11,44(sp)
    208e:	8caa                	mv	s9,a0
    2090:	c43e                	sw	a5,8(sp)
    2092:	8c6a                	mv	s8,s10
    2094:	4b81                	li	s7,0
    2096:	1f490913          	addi	s2,s2,500 # 61f4 <asc2_3216>
    209a:	49898993          	addi	s3,s3,1176 # 5498 <asc2_2412>
    209e:	ea8a0a13          	addi	s4,s4,-344 # 4ea8 <asc2_1608>
    20a2:	a34a8a93          	addi	s5,s5,-1484 # 4a34 <asc2_1206>
    20a6:	47b2                	lw	a5,12(sp)
    20a8:	0ffbf613          	andi	a2,s7,255
    20ac:	02f66163          	bltu	a2,a5,20ce <LCD_ShowChar+0xa4>
    20b0:	40f6                	lw	ra,92(sp)
    20b2:	4466                	lw	s0,88(sp)
    20b4:	44d6                	lw	s1,84(sp)
    20b6:	4946                	lw	s2,80(sp)
    20b8:	49b6                	lw	s3,76(sp)
    20ba:	4a26                	lw	s4,72(sp)
    20bc:	4a96                	lw	s5,68(sp)
    20be:	4b06                	lw	s6,64(sp)
    20c0:	5bf2                	lw	s7,60(sp)
    20c2:	5c62                	lw	s8,56(sp)
    20c4:	5cd2                	lw	s9,52(sp)
    20c6:	5d42                	lw	s10,48(sp)
    20c8:	5db2                	lw	s11,44(sp)
    20ca:	6125                	addi	sp,sp,96
    20cc:	8082                	ret
    20ce:	4631                	li	a2,12
    20d0:	06c69e63          	bne	a3,a2,214c <LCD_ShowChar+0x122>
    20d4:	47a2                	lw	a5,8(sp)
    20d6:	00fb8633          	add	a2,s7,a5
    20da:	9656                	add	a2,a2,s5
    20dc:	008c0e93          	addi	t4,s8,8
    20e0:	00064403          	lbu	s0,0(a2)
    20e4:	010e9d93          	slli	s11,t4,0x10
    20e8:	010ddd93          	srli	s11,s11,0x10
    20ec:	01841613          	slli	a2,s0,0x18
    20f0:	8661                	srai	a2,a2,0x18
    20f2:	08065563          	bgez	a2,217c <LCD_ShowChar+0x152>
    20f6:	8181d603          	lhu	a2,-2024(gp) # 20000098 <_edata>
    20fa:	85e2                	mv	a1,s8
    20fc:	8566                	mv	a0,s9
    20fe:	ce3a                	sw	a4,28(sp)
    2100:	cc36                	sw	a3,24(sp)
    2102:	3d65                	jal	1fba <LCD_Fast_DrawPoint>
    2104:	46e2                	lw	a3,24(sp)
    2106:	4772                	lw	a4,28(sp)
    2108:	001c0793          	addi	a5,s8,1
    210c:	01079c13          	slli	s8,a5,0x10
    2110:	c6018793          	addi	a5,gp,-928 # 200004e0 <lcddev>
    2114:	0027d603          	lhu	a2,2(a5)
    2118:	00141813          	slli	a6,s0,0x1
    211c:	010c5c13          	srli	s8,s8,0x10
    2120:	0ff87413          	andi	s0,a6,255
    2124:	f8cc76e3          	bgeu	s8,a2,20b0 <LCD_ShowChar+0x86>
    2128:	41ac0633          	sub	a2,s8,s10
    212c:	06d61563          	bne	a2,a3,2196 <LCD_ShowChar+0x16c>
    2130:	001c8313          	addi	t1,s9,1
    2134:	c601d783          	lhu	a5,-928(gp) # 200004e0 <lcddev>
    2138:	01031c93          	slli	s9,t1,0x10
    213c:	010cdc93          	srli	s9,s9,0x10
    2140:	f6fcf8e3          	bgeu	s9,a5,20b0 <LCD_ShowChar+0x86>
    2144:	8dea                	mv	s11,s10
    2146:	0b85                	addi	s7,s7,1
    2148:	8c6e                	mv	s8,s11
    214a:	bfb1                	j	20a6 <LCD_ShowChar+0x7c>
    214c:	4641                	li	a2,16
    214e:	00c69763          	bne	a3,a2,215c <LCD_ShowChar+0x132>
    2152:	47c2                	lw	a5,16(sp)
    2154:	00fb8633          	add	a2,s7,a5
    2158:	9652                	add	a2,a2,s4
    215a:	b749                	j	20dc <LCD_ShowChar+0xb2>
    215c:	4661                	li	a2,24
    215e:	00c69663          	bne	a3,a2,216a <LCD_ShowChar+0x140>
    2162:	009b8633          	add	a2,s7,s1
    2166:	964e                	add	a2,a2,s3
    2168:	bf95                	j	20dc <LCD_ShowChar+0xb2>
    216a:	02000613          	li	a2,32
    216e:	f4c691e3          	bne	a3,a2,20b0 <LCD_ShowChar+0x86>
    2172:	47d2                	lw	a5,20(sp)
    2174:	00fb8633          	add	a2,s7,a5
    2178:	964a                	add	a2,a2,s2
    217a:	b78d                	j	20dc <LCD_ShowChar+0xb2>
    217c:	f751                	bnez	a4,2108 <LCD_ShowChar+0xde>
    217e:	200007b7          	lui	a5,0x20000
    2182:	0807d603          	lhu	a2,128(a5) # 20000080 <BACK_COLOR>
    2186:	85e2                	mv	a1,s8
    2188:	8566                	mv	a0,s9
    218a:	ce3a                	sw	a4,28(sp)
    218c:	cc36                	sw	a3,24(sp)
    218e:	3535                	jal	1fba <LCD_Fast_DrawPoint>
    2190:	4772                	lw	a4,28(sp)
    2192:	46e2                	lw	a3,24(sp)
    2194:	bf95                	j	2108 <LCD_ShowChar+0xde>
    2196:	f58d9be3          	bne	s11,s8,20ec <LCD_ShowChar+0xc2>
    219a:	b775                	j	2146 <LCD_ShowChar+0x11c>

0000219c <LCD_ShowString>:
    219c:	7139                	addi	sp,sp,-64
    219e:	962a                	add	a2,a2,a0
    21a0:	96ae                	add	a3,a3,a1
    21a2:	d84a                	sw	s2,48(sp)
    21a4:	d64e                	sw	s3,44(sp)
    21a6:	01061913          	slli	s2,a2,0x10
    21aa:	01069993          	slli	s3,a3,0x10
    21ae:	dc22                	sw	s0,56(sp)
    21b0:	da26                	sw	s1,52(sp)
    21b2:	d452                	sw	s4,40(sp)
    21b4:	d256                	sw	s5,36(sp)
    21b6:	d05a                	sw	s6,32(sp)
    21b8:	ce5e                	sw	s7,28(sp)
    21ba:	de06                	sw	ra,60(sp)
    21bc:	84ae                	mv	s1,a1
    21be:	01095913          	srli	s2,s2,0x10
    21c2:	0109d993          	srli	s3,s3,0x10
    21c6:	8a3a                	mv	s4,a4
    21c8:	00175b13          	srli	s6,a4,0x1
    21cc:	842a                	mv	s0,a0
    21ce:	05e00a93          	li	s5,94
    21d2:	0ff57b93          	andi	s7,a0,255
    21d6:	0007c603          	lbu	a2,0(a5)
    21da:	fe060713          	addi	a4,a2,-32
    21de:	0ff77713          	andi	a4,a4,255
    21e2:	00eafd63          	bgeu	s5,a4,21fc <LCD_ShowString+0x60>
    21e6:	50f2                	lw	ra,60(sp)
    21e8:	5462                	lw	s0,56(sp)
    21ea:	54d2                	lw	s1,52(sp)
    21ec:	5942                	lw	s2,48(sp)
    21ee:	59b2                	lw	s3,44(sp)
    21f0:	5a22                	lw	s4,40(sp)
    21f2:	5a92                	lw	s5,36(sp)
    21f4:	5b02                	lw	s6,32(sp)
    21f6:	4bf2                	lw	s7,28(sp)
    21f8:	6121                	addi	sp,sp,64
    21fa:	8082                	ret
    21fc:	01246663          	bltu	s0,s2,2208 <LCD_ShowString+0x6c>
    2200:	94d2                	add	s1,s1,s4
    2202:	04c2                	slli	s1,s1,0x10
    2204:	845e                	mv	s0,s7
    2206:	80c1                	srli	s1,s1,0x10
    2208:	c63e                	sw	a5,12(sp)
    220a:	fd34fee3          	bgeu	s1,s3,21e6 <LCD_ShowString+0x4a>
    220e:	8522                	mv	a0,s0
    2210:	4705                	li	a4,1
    2212:	86d2                	mv	a3,s4
    2214:	85a6                	mv	a1,s1
    2216:	3d11                	jal	202a <LCD_ShowChar>
    2218:	47b2                	lw	a5,12(sp)
    221a:	945a                	add	s0,s0,s6
    221c:	0442                	slli	s0,s0,0x10
    221e:	8041                	srli	s0,s0,0x10
    2220:	0785                	addi	a5,a5,1
    2222:	bf55                	j	21d6 <LCD_ShowString+0x3a>

00002224 <LCD_Color_Fill>:
    2224:	7179                	addi	sp,sp,-48
    2226:	d226                	sw	s1,36(sp)
    2228:	d04a                	sw	s2,32(sp)
    222a:	40b684b3          	sub	s1,a3,a1
    222e:	40a60933          	sub	s2,a2,a0
    2232:	0905                	addi	s2,s2,1
    2234:	0485                	addi	s1,s1,1
    2236:	0942                	slli	s2,s2,0x10
    2238:	04c2                	slli	s1,s1,0x10
    223a:	d422                	sw	s0,40(sp)
    223c:	ce4e                	sw	s3,28(sp)
    223e:	cc52                	sw	s4,24(sp)
    2240:	ca56                	sw	s5,20(sp)
    2242:	d606                	sw	ra,44(sp)
    2244:	89aa                	mv	s3,a0
    2246:	8a2e                	mv	s4,a1
    2248:	01095913          	srli	s2,s2,0x10
    224c:	80c1                	srli	s1,s1,0x10
    224e:	4401                	li	s0,0
    2250:	60040ab7          	lui	s5,0x60040
    2254:	00946b63          	bltu	s0,s1,226a <LCD_Color_Fill+0x46>
    2258:	50b2                	lw	ra,44(sp)
    225a:	5422                	lw	s0,40(sp)
    225c:	5492                	lw	s1,36(sp)
    225e:	5902                	lw	s2,32(sp)
    2260:	49f2                	lw	s3,28(sp)
    2262:	4a62                	lw	s4,24(sp)
    2264:	4ad2                	lw	s5,20(sp)
    2266:	6145                	addi	sp,sp,48
    2268:	8082                	ret
    226a:	014405b3          	add	a1,s0,s4
    226e:	05c2                	slli	a1,a1,0x10
    2270:	81c1                	srli	a1,a1,0x10
    2272:	854e                	mv	a0,s3
    2274:	c63a                	sw	a4,12(sp)
    2276:	d22fe0ef          	jal	ra,798 <LCD_SetCursor>
    227a:	d10fe0ef          	jal	ra,78a <LCD_WriteRAM_Prepare>
    227e:	4732                	lw	a4,12(sp)
    2280:	4781                	li	a5,0
    2282:	0127e663          	bltu	a5,s2,228e <LCD_Color_Fill+0x6a>
    2286:	0405                	addi	s0,s0,1
    2288:	0442                	slli	s0,s0,0x10
    228a:	8041                	srli	s0,s0,0x10
    228c:	b7e1                	j	2254 <LCD_Color_Fill+0x30>
    228e:	0785                	addi	a5,a5,1
    2290:	07c2                	slli	a5,a5,0x10
    2292:	00ea9023          	sh	a4,0(s5) # 60040000 <_eusrstack+0x40038000>
    2296:	83c1                	srli	a5,a5,0x10
    2298:	b7ed                	j	2282 <LCD_Color_Fill+0x5e>

0000229a <LCD_DrawLine>:
    229a:	7139                	addi	sp,sp,-64
    229c:	dc22                	sw	s0,56(sp)
    229e:	da26                	sw	s1,52(sp)
    22a0:	d05a                	sw	s6,32(sp)
    22a2:	ce5e                	sw	s7,28(sp)
    22a4:	ca66                	sw	s9,20(sp)
    22a6:	de06                	sw	ra,60(sp)
    22a8:	d84a                	sw	s2,48(sp)
    22aa:	d64e                	sw	s3,44(sp)
    22ac:	d452                	sw	s4,40(sp)
    22ae:	d256                	sw	s5,36(sp)
    22b0:	cc62                	sw	s8,24(sp)
    22b2:	c86a                	sw	s10,16(sp)
    22b4:	c66e                	sw	s11,12(sp)
    22b6:	40a60433          	sub	s0,a2,a0
    22ba:	8b2a                	mv	s6,a0
    22bc:	8cae                	mv	s9,a1
    22be:	40b684b3          	sub	s1,a3,a1
    22c2:	4b85                	li	s7,1
    22c4:	00804763          	bgtz	s0,22d2 <LCD_DrawLine+0x38>
    22c8:	4b81                	li	s7,0
    22ca:	c401                	beqz	s0,22d2 <LCD_DrawLine+0x38>
    22cc:	40c50433          	sub	s0,a0,a2
    22d0:	5bfd                	li	s7,-1
    22d2:	4c05                	li	s8,1
    22d4:	00904763          	bgtz	s1,22e2 <LCD_DrawLine+0x48>
    22d8:	4c01                	li	s8,0
    22da:	c481                	beqz	s1,22e2 <LCD_DrawLine+0x48>
    22dc:	40d584b3          	sub	s1,a1,a3
    22e0:	5c7d                	li	s8,-1
    22e2:	8922                	mv	s2,s0
    22e4:	00945363          	bge	s0,s1,22ea <LCD_DrawLine+0x50>
    22e8:	8926                	mv	s2,s1
    22ea:	6d41                	lui	s10,0x10
    22ec:	4a81                	li	s5,0
    22ee:	4a01                	li	s4,0
    22f0:	4981                	li	s3,0
    22f2:	00190d93          	addi	s11,s2,1
    22f6:	1d7d                	addi	s10,s10,-1
    22f8:	033dd163          	bge	s11,s3,231a <LCD_DrawLine+0x80>
    22fc:	50f2                	lw	ra,60(sp)
    22fe:	5462                	lw	s0,56(sp)
    2300:	54d2                	lw	s1,52(sp)
    2302:	5942                	lw	s2,48(sp)
    2304:	59b2                	lw	s3,44(sp)
    2306:	5a22                	lw	s4,40(sp)
    2308:	5a92                	lw	s5,36(sp)
    230a:	5b02                	lw	s6,32(sp)
    230c:	4bf2                	lw	s7,28(sp)
    230e:	4c62                	lw	s8,24(sp)
    2310:	4cd2                	lw	s9,20(sp)
    2312:	4d42                	lw	s10,16(sp)
    2314:	4db2                	lw	s11,12(sp)
    2316:	6121                	addi	sp,sp,64
    2318:	8082                	ret
    231a:	010c9593          	slli	a1,s9,0x10
    231e:	010b1513          	slli	a0,s6,0x10
    2322:	866a                	mv	a2,s10
    2324:	81c1                	srli	a1,a1,0x10
    2326:	8141                	srli	a0,a0,0x10
    2328:	9a22                	add	s4,s4,s0
    232a:	3941                	jal	1fba <LCD_Fast_DrawPoint>
    232c:	9aa6                	add	s5,s5,s1
    232e:	01495563          	bge	s2,s4,2338 <LCD_DrawLine+0x9e>
    2332:	412a0a33          	sub	s4,s4,s2
    2336:	9b5e                	add	s6,s6,s7
    2338:	01595563          	bge	s2,s5,2342 <LCD_DrawLine+0xa8>
    233c:	412a8ab3          	sub	s5,s5,s2
    2340:	9ce2                	add	s9,s9,s8
    2342:	0985                	addi	s3,s3,1
    2344:	09c2                	slli	s3,s3,0x10
    2346:	0109d993          	srli	s3,s3,0x10
    234a:	b77d                	j	22f8 <LCD_DrawLine+0x5e>

0000234c <LCD_DrawRectangle>:
    234c:	1101                	addi	sp,sp,-32
    234e:	cc22                	sw	s0,24(sp)
    2350:	8436                	mv	s0,a3
    2352:	86ae                	mv	a3,a1
    2354:	ce06                	sw	ra,28(sp)
    2356:	ca26                	sw	s1,20(sp)
    2358:	c84a                	sw	s2,16(sp)
    235a:	c64e                	sw	s3,12(sp)
    235c:	892a                	mv	s2,a0
    235e:	89b2                	mv	s3,a2
    2360:	84ae                	mv	s1,a1
    2362:	3f25                	jal	229a <LCD_DrawLine>
    2364:	86a2                	mv	a3,s0
    2366:	864a                	mv	a2,s2
    2368:	85a6                	mv	a1,s1
    236a:	854a                	mv	a0,s2
    236c:	373d                	jal	229a <LCD_DrawLine>
    236e:	86a2                	mv	a3,s0
    2370:	864e                	mv	a2,s3
    2372:	85a2                	mv	a1,s0
    2374:	854a                	mv	a0,s2
    2376:	3715                	jal	229a <LCD_DrawLine>
    2378:	86a2                	mv	a3,s0
    237a:	4462                	lw	s0,24(sp)
    237c:	40f2                	lw	ra,28(sp)
    237e:	4942                	lw	s2,16(sp)
    2380:	864e                	mv	a2,s3
    2382:	85a6                	mv	a1,s1
    2384:	854e                	mv	a0,s3
    2386:	44d2                	lw	s1,20(sp)
    2388:	49b2                	lw	s3,12(sp)
    238a:	6105                	addi	sp,sp,32
    238c:	b739                	j	229a <LCD_DrawLine>

0000238e <LCD_Draw_Circle>:
    238e:	715d                	addi	sp,sp,-80
    2390:	c4a2                	sw	s0,72(sp)
    2392:	de4e                	sw	s3,60(sp)
    2394:	00161793          	slli	a5,a2,0x1
    2398:	498d                	li	s3,3
    239a:	6441                	lui	s0,0x10
    239c:	dc52                	sw	s4,56(sp)
    239e:	da56                	sw	s5,52(sp)
    23a0:	d85a                	sw	s6,48(sp)
    23a2:	d65e                	sw	s7,44(sp)
    23a4:	c686                	sw	ra,76(sp)
    23a6:	c2a6                	sw	s1,68(sp)
    23a8:	c0ca                	sw	s2,64(sp)
    23aa:	d462                	sw	s8,40(sp)
    23ac:	d266                	sw	s9,36(sp)
    23ae:	d06a                	sw	s10,32(sp)
    23b0:	ce6e                	sw	s11,28(sp)
    23b2:	8b2a                	mv	s6,a0
    23b4:	8bae                	mv	s7,a1
    23b6:	8ab2                	mv	s5,a2
    23b8:	40f989b3          	sub	s3,s3,a5
    23bc:	4a01                	li	s4,0
    23be:	147d                	addi	s0,s0,-1
    23c0:	010a1913          	slli	s2,s4,0x10
    23c4:	010a9493          	slli	s1,s5,0x10
    23c8:	01095913          	srli	s2,s2,0x10
    23cc:	80c1                	srli	s1,s1,0x10
    23ce:	016907b3          	add	a5,s2,s6
    23d2:	409b8cb3          	sub	s9,s7,s1
    23d6:	07c2                	slli	a5,a5,0x10
    23d8:	0cc2                	slli	s9,s9,0x10
    23da:	83c1                	srli	a5,a5,0x10
    23dc:	010cdc93          	srli	s9,s9,0x10
    23e0:	01648db3          	add	s11,s1,s6
    23e4:	412b8c33          	sub	s8,s7,s2
    23e8:	853e                	mv	a0,a5
    23ea:	8622                	mv	a2,s0
    23ec:	85e6                	mv	a1,s9
    23ee:	0dc2                	slli	s11,s11,0x10
    23f0:	0c42                	slli	s8,s8,0x10
    23f2:	c63e                	sw	a5,12(sp)
    23f4:	010ddd93          	srli	s11,s11,0x10
    23f8:	36c9                	jal	1fba <LCD_Fast_DrawPoint>
    23fa:	010c5c13          	srli	s8,s8,0x10
    23fe:	01790d33          	add	s10,s2,s7
    2402:	856e                	mv	a0,s11
    2404:	8622                	mv	a2,s0
    2406:	85e2                	mv	a1,s8
    2408:	0d42                	slli	s10,s10,0x10
    240a:	3e45                	jal	1fba <LCD_Fast_DrawPoint>
    240c:	010d5d13          	srli	s10,s10,0x10
    2410:	856e                	mv	a0,s11
    2412:	8622                	mv	a2,s0
    2414:	85ea                	mv	a1,s10
    2416:	3655                	jal	1fba <LCD_Fast_DrawPoint>
    2418:	47b2                	lw	a5,12(sp)
    241a:	01748db3          	add	s11,s1,s7
    241e:	0dc2                	slli	s11,s11,0x10
    2420:	010ddd93          	srli	s11,s11,0x10
    2424:	412b0933          	sub	s2,s6,s2
    2428:	853e                	mv	a0,a5
    242a:	8622                	mv	a2,s0
    242c:	85ee                	mv	a1,s11
    242e:	0942                	slli	s2,s2,0x10
    2430:	3669                	jal	1fba <LCD_Fast_DrawPoint>
    2432:	01095913          	srli	s2,s2,0x10
    2436:	409b04b3          	sub	s1,s6,s1
    243a:	8622                	mv	a2,s0
    243c:	85ee                	mv	a1,s11
    243e:	854a                	mv	a0,s2
    2440:	04c2                	slli	s1,s1,0x10
    2442:	3ea5                	jal	1fba <LCD_Fast_DrawPoint>
    2444:	80c1                	srli	s1,s1,0x10
    2446:	8622                	mv	a2,s0
    2448:	85ea                	mv	a1,s10
    244a:	8526                	mv	a0,s1
    244c:	36bd                	jal	1fba <LCD_Fast_DrawPoint>
    244e:	8622                	mv	a2,s0
    2450:	85e6                	mv	a1,s9
    2452:	854a                	mv	a0,s2
    2454:	369d                	jal	1fba <LCD_Fast_DrawPoint>
    2456:	8622                	mv	a2,s0
    2458:	85e2                	mv	a1,s8
    245a:	8526                	mv	a0,s1
    245c:	3eb9                	jal	1fba <LCD_Fast_DrawPoint>
    245e:	0a05                	addi	s4,s4,1
    2460:	0209d763          	bgez	s3,248e <LCD_Draw_Circle+0x100>
    2464:	002a1793          	slli	a5,s4,0x2
    2468:	0799                	addi	a5,a5,6
    246a:	99be                	add	s3,s3,a5
    246c:	f54adae3          	bge	s5,s4,23c0 <LCD_Draw_Circle+0x32>
    2470:	40b6                	lw	ra,76(sp)
    2472:	4426                	lw	s0,72(sp)
    2474:	4496                	lw	s1,68(sp)
    2476:	4906                	lw	s2,64(sp)
    2478:	59f2                	lw	s3,60(sp)
    247a:	5a62                	lw	s4,56(sp)
    247c:	5ad2                	lw	s5,52(sp)
    247e:	5b42                	lw	s6,48(sp)
    2480:	5bb2                	lw	s7,44(sp)
    2482:	5c22                	lw	s8,40(sp)
    2484:	5c92                	lw	s9,36(sp)
    2486:	5d02                	lw	s10,32(sp)
    2488:	4df2                	lw	s11,28(sp)
    248a:	6161                	addi	sp,sp,80
    248c:	8082                	ret
    248e:	415a07b3          	sub	a5,s4,s5
    2492:	078a                	slli	a5,a5,0x2
    2494:	07a9                	addi	a5,a5,10
    2496:	99be                	add	s3,s3,a5
    2498:	1afd                	addi	s5,s5,-1
    249a:	bfc9                	j	246c <LCD_Draw_Circle+0xde>

0000249c <LCD_Reset_GPIO_Init>:
    249c:	1101                	addi	sp,sp,-32
    249e:	4585                	li	a1,1
    24a0:	4511                	li	a0,4
    24a2:	ce06                	sw	ra,28(sp)
    24a4:	cc22                	sw	s0,24(sp)
    24a6:	c202                	sw	zero,4(sp)
    24a8:	c402                	sw	zero,8(sp)
    24aa:	c602                	sw	zero,12(sp)
    24ac:	15f000ef          	jal	ra,2e0a <RCC_APB2PeriphClockCmd>
    24b0:	77e1                	lui	a5,0xffff8
    24b2:	00f11223          	sh	a5,4(sp)
    24b6:	40011437          	lui	s0,0x40011
    24ba:	47c1                	li	a5,16
    24bc:	c63e                	sw	a5,12(sp)
    24be:	004c                	addi	a1,sp,4
    24c0:	478d                	li	a5,3
    24c2:	80040513          	addi	a0,s0,-2048 # 40010800 <_eusrstack+0x20008800>
    24c6:	c43e                	sw	a5,8(sp)
    24c8:	2579                	jal	2b56 <GPIO_Init>
    24ca:	80040513          	addi	a0,s0,-2048
    24ce:	65a1                	lui	a1,0x8
    24d0:	748000ef          	jal	ra,2c18 <GPIO_SetBits>
    24d4:	40f2                	lw	ra,28(sp)
    24d6:	4462                	lw	s0,24(sp)
    24d8:	6105                	addi	sp,sp,32
    24da:	8082                	ret

000024dc <main>:
    24dc:	1141                	addi	sp,sp,-16
    24de:	4509                	li	a0,2
    24e0:	c606                	sw	ra,12(sp)
    24e2:	c422                	sw	s0,8(sp)
    24e4:	73c000ef          	jal	ra,2c20 <NVIC_PriorityGroupConfig>
    24e8:	2e79                	jal	2886 <SystemCoreClockUpdate>
    24ea:	69d000ef          	jal	ra,3386 <Delay_Init>
    24ee:	2fd000ef          	jal	ra,2fea <USARTx_Init>
    24f2:	6571                	lui	a0,0x1c
    24f4:	20050513          	addi	a0,a0,512 # 1c200 <_data_lma+0x14740>
    24f8:	715000ef          	jal	ra,340c <USART_Printf_Init>
    24fc:	40011437          	lui	s0,0x40011
    2500:	3f71                	jal	249c <LCD_Reset_GPIO_Init>
    2502:	3f69                	jal	249c <LCD_Reset_GPIO_Init>
    2504:	65a1                	lui	a1,0x8
    2506:	80040513          	addi	a0,s0,-2048 # 40010800 <_eusrstack+0x20008800>
    250a:	712000ef          	jal	ra,2c1c <GPIO_ResetBits>
    250e:	06400513          	li	a0,100
    2512:	6cd000ef          	jal	ra,33de <Delay_Ms>
    2516:	80040513          	addi	a0,s0,-2048
    251a:	65a1                	lui	a1,0x8
    251c:	2df5                	jal	2c18 <GPIO_SetBits>
    251e:	c08fe0ef          	jal	ra,926 <LCD_Init>
    2522:	2015                	jal	2546 <renderMainPage>
    2524:	d85fd0ef          	jal	ra,2a8 <L610_Init>
    2528:	db3fd0ef          	jal	ra,2da <L610_Lookup>
    252c:	ecbfd0ef          	jal	ra,3f6 <L610_RequestIP>
    2530:	f6bfd0ef          	jal	ra,49a <L610_SetAndConnect>
    2534:	8cafe0ef          	jal	ra,5fe <L610_Sub>
    2538:	00008537          	lui	a0,0x8
    253c:	9b450513          	addi	a0,a0,-1612 # 79b4 <asc2_3216+0x17c0>
    2540:	95efe0ef          	jal	ra,69e <L610_Pub>
    2544:	a001                	j	2544 <main+0x68>

00002546 <renderMainPage>:
    2546:	1141                	addi	sp,sp,-16
    2548:	4501                	li	a0,0
    254a:	c606                	sw	ra,12(sp)
    254c:	c422                	sw	s0,8(sp)
    254e:	b9afe0ef          	jal	ra,8e8 <LCD_Clear>
    2552:	577d                	li	a4,-1
    2554:	80e19c23          	sh	a4,-2024(gp) # 20000098 <_edata>
    2558:	6721                	lui	a4,0x8
    255a:	43070713          	addi	a4,a4,1072 # 8430 <_data_lma+0x970>
    255e:	1c800693          	li	a3,456
    2562:	2f800613          	li	a2,760
    2566:	45e1                	li	a1,24
    2568:	02800513          	li	a0,40
    256c:	3965                	jal	2224 <LCD_Color_Fill>
    256e:	1c800693          	li	a3,456
    2572:	4651                	li	a2,20
    2574:	45e1                	li	a1,24
    2576:	4551                	li	a0,20
    2578:	330d                	jal	229a <LCD_DrawLine>
    257a:	1dc00693          	li	a3,476
    257e:	2f800613          	li	a2,760
    2582:	1dc00593          	li	a1,476
    2586:	02800513          	li	a0,40
    258a:	3b01                	jal	229a <LCD_DrawLine>
    258c:	4691                	li	a3,4
    258e:	2f800613          	li	a2,760
    2592:	4591                	li	a1,4
    2594:	02800513          	li	a0,40
    2598:	3309                	jal	229a <LCD_DrawLine>
    259a:	1c800693          	li	a3,456
    259e:	30c00613          	li	a2,780
    25a2:	45e1                	li	a1,24
    25a4:	30c00513          	li	a0,780
    25a8:	39cd                	jal	229a <LCD_DrawLine>
    25aa:	1c800693          	li	a3,456
    25ae:	2f800613          	li	a2,760
    25b2:	45e1                	li	a1,24
    25b4:	02800513          	li	a0,40
    25b8:	3b51                	jal	234c <LCD_DrawRectangle>
    25ba:	4651                	li	a2,20
    25bc:	45e1                	li	a1,24
    25be:	02800513          	li	a0,40
    25c2:	33f1                	jal	238e <LCD_Draw_Circle>
    25c4:	4651                	li	a2,20
    25c6:	1c800593          	li	a1,456
    25ca:	02800513          	li	a0,40
    25ce:	33c1                	jal	238e <LCD_Draw_Circle>
    25d0:	4651                	li	a2,20
    25d2:	1c800593          	li	a1,456
    25d6:	2f800513          	li	a0,760
    25da:	3b55                	jal	238e <LCD_Draw_Circle>
    25dc:	4651                	li	a2,20
    25de:	45e1                	li	a1,24
    25e0:	2f800513          	li	a0,760
    25e4:	336d                	jal	238e <LCD_Draw_Circle>
    25e6:	000087b7          	lui	a5,0x8
    25ea:	9b878793          	addi	a5,a5,-1608 # 79b8 <asc2_3216+0x17c4>
    25ee:	02000713          	li	a4,32
    25f2:	02000693          	li	a3,32
    25f6:	12000613          	li	a2,288
    25fa:	02800593          	li	a1,40
    25fe:	0fa00513          	li	a0,250
    2602:	3e69                	jal	219c <LCD_ShowString>
    2604:	6431                	lui	s0,0xc
    2606:	61840713          	addi	a4,s0,1560 # c618 <_data_lma+0x4b58>
    260a:	11e00693          	li	a3,286
    260e:	10e00613          	li	a2,270
    2612:	0a600593          	li	a1,166
    2616:	03c00513          	li	a0,60
    261a:	3129                	jal	2224 <LCD_Color_Fill>
    261c:	61840713          	addi	a4,s0,1560
    2620:	11e00693          	li	a3,286
    2624:	1f900613          	li	a2,505
    2628:	0a600593          	li	a1,166
    262c:	12700513          	li	a0,295
    2630:	3ed5                	jal	2224 <LCD_Color_Fill>
    2632:	61840713          	addi	a4,s0,1560
    2636:	11e00693          	li	a3,286
    263a:	2e400613          	li	a2,740
    263e:	0a600593          	li	a1,166
    2642:	21200513          	li	a0,530
    2646:	3ef9                	jal	2224 <LCD_Color_Fill>
    2648:	61840713          	addi	a4,s0,1560
    264c:	1af00693          	li	a3,431
    2650:	10e00613          	li	a2,270
    2654:	13700593          	li	a1,311
    2658:	03c00513          	li	a0,60
    265c:	36e1                	jal	2224 <LCD_Color_Fill>
    265e:	61840713          	addi	a4,s0,1560
    2662:	1af00693          	li	a3,431
    2666:	1f900613          	li	a2,505
    266a:	13700593          	li	a1,311
    266e:	12700513          	li	a0,295
    2672:	3e4d                	jal	2224 <LCD_Color_Fill>
    2674:	61840713          	addi	a4,s0,1560
    2678:	1af00693          	li	a3,431
    267c:	2e400613          	li	a2,740
    2680:	13700593          	li	a1,311
    2684:	21200513          	li	a0,530
    2688:	3e71                	jal	2224 <LCD_Color_Fill>
    268a:	000087b7          	lui	a5,0x8
    268e:	9cc78793          	addi	a5,a5,-1588 # 79cc <asc2_3216+0x17d8>
    2692:	02000713          	li	a4,32
    2696:	02000693          	li	a3,32
    269a:	07000613          	li	a2,112
    269e:	0c800593          	li	a1,200
    26a2:	06400513          	li	a0,100
    26a6:	af7ff0ef          	jal	ra,219c <LCD_ShowString>
    26aa:	000087b7          	lui	a5,0x8
    26ae:	9d478793          	addi	a5,a5,-1580 # 79d4 <asc2_3216+0x17e0>
    26b2:	02000713          	li	a4,32
    26b6:	02000693          	li	a3,32
    26ba:	07000613          	li	a2,112
    26be:	0c800593          	li	a1,200
    26c2:	14000513          	li	a0,320
    26c6:	ad7ff0ef          	jal	ra,219c <LCD_ShowString>
    26ca:	000087b7          	lui	a5,0x8
    26ce:	9e078793          	addi	a5,a5,-1568 # 79e0 <asc2_3216+0x17ec>
    26d2:	02000713          	li	a4,32
    26d6:	02000693          	li	a3,32
    26da:	07000613          	li	a2,112
    26de:	0c800593          	li	a1,200
    26e2:	23a00513          	li	a0,570
    26e6:	ab7ff0ef          	jal	ra,219c <LCD_ShowString>
    26ea:	00008437          	lui	s0,0x8
    26ee:	9e840793          	addi	a5,s0,-1560 # 79e8 <asc2_3216+0x17f4>
    26f2:	02000713          	li	a4,32
    26f6:	02000693          	li	a3,32
    26fa:	07000613          	li	a2,112
    26fe:	0f000593          	li	a1,240
    2702:	25800513          	li	a0,600
    2706:	a97ff0ef          	jal	ra,219c <LCD_ShowString>
    270a:	000087b7          	lui	a5,0x8
    270e:	9f078793          	addi	a5,a5,-1552 # 79f0 <asc2_3216+0x17fc>
    2712:	02000713          	li	a4,32
    2716:	02000693          	li	a3,32
    271a:	07000613          	li	a2,112
    271e:	15900593          	li	a1,345
    2722:	06400513          	li	a0,100
    2726:	a77ff0ef          	jal	ra,219c <LCD_ShowString>
    272a:	9e840793          	addi	a5,s0,-1560
    272e:	02000713          	li	a4,32
    2732:	02000693          	li	a3,32
    2736:	07000613          	li	a2,112
    273a:	18100593          	li	a1,385
    273e:	08200513          	li	a0,130
    2742:	a5bff0ef          	jal	ra,219c <LCD_ShowString>
    2746:	000087b7          	lui	a5,0x8
    274a:	9fc78793          	addi	a5,a5,-1540 # 79fc <asc2_3216+0x1808>
    274e:	02000713          	li	a4,32
    2752:	02000693          	li	a3,32
    2756:	07000613          	li	a2,112
    275a:	15900593          	li	a1,345
    275e:	14000513          	li	a0,320
    2762:	a3bff0ef          	jal	ra,219c <LCD_ShowString>
    2766:	4422                	lw	s0,8(sp)
    2768:	40b2                	lw	ra,12(sp)
    276a:	000087b7          	lui	a5,0x8
    276e:	a0478793          	addi	a5,a5,-1532 # 7a04 <asc2_3216+0x1810>
    2772:	02000713          	li	a4,32
    2776:	02000693          	li	a3,32
    277a:	07000613          	li	a2,112
    277e:	15900593          	li	a1,345
    2782:	23a00513          	li	a0,570
    2786:	0141                	addi	sp,sp,16
    2788:	a15ff06f          	j	219c <LCD_ShowString>

0000278c <SystemInit>:
    278c:	400217b7          	lui	a5,0x40021
    2790:	4398                	lw	a4,0(a5)
    2792:	f8ff06b7          	lui	a3,0xf8ff0
    2796:	1141                	addi	sp,sp,-16
    2798:	00176713          	ori	a4,a4,1
    279c:	c398                	sw	a4,0(a5)
    279e:	43d8                	lw	a4,4(a5)
    27a0:	00020637          	lui	a2,0x20
    27a4:	8f75                	and	a4,a4,a3
    27a6:	c3d8                	sw	a4,4(a5)
    27a8:	4398                	lw	a4,0(a5)
    27aa:	fef706b7          	lui	a3,0xfef70
    27ae:	16fd                	addi	a3,a3,-1
    27b0:	8f75                	and	a4,a4,a3
    27b2:	c398                	sw	a4,0(a5)
    27b4:	4398                	lw	a4,0(a5)
    27b6:	fffc06b7          	lui	a3,0xfffc0
    27ba:	16fd                	addi	a3,a3,-1
    27bc:	8f75                	and	a4,a4,a3
    27be:	c398                	sw	a4,0(a5)
    27c0:	43d8                	lw	a4,4(a5)
    27c2:	ff8106b7          	lui	a3,0xff810
    27c6:	16fd                	addi	a3,a3,-1
    27c8:	8f75                	and	a4,a4,a3
    27ca:	c3d8                	sw	a4,4(a5)
    27cc:	4398                	lw	a4,0(a5)
    27ce:	ec0006b7          	lui	a3,0xec000
    27d2:	16fd                	addi	a3,a3,-1
    27d4:	8f75                	and	a4,a4,a3
    27d6:	c398                	sw	a4,0(a5)
    27d8:	00ff0737          	lui	a4,0xff0
    27dc:	c798                	sw	a4,8(a5)
    27de:	0207a623          	sw	zero,44(a5) # 4002102c <_eusrstack+0x2001902c>
    27e2:	c402                	sw	zero,8(sp)
    27e4:	c602                	sw	zero,12(sp)
    27e6:	4398                	lw	a4,0(a5)
    27e8:	66c1                	lui	a3,0x10
    27ea:	8f55                	or	a4,a4,a3
    27ec:	c398                	sw	a4,0(a5)
    27ee:	400216b7          	lui	a3,0x40021
    27f2:	6705                	lui	a4,0x1
    27f4:	429c                	lw	a5,0(a3)
    27f6:	8ff1                	and	a5,a5,a2
    27f8:	c63e                	sw	a5,12(sp)
    27fa:	47a2                	lw	a5,8(sp)
    27fc:	0785                	addi	a5,a5,1
    27fe:	c43e                	sw	a5,8(sp)
    2800:	47b2                	lw	a5,12(sp)
    2802:	e781                	bnez	a5,280a <SystemInit+0x7e>
    2804:	47a2                	lw	a5,8(sp)
    2806:	fee797e3          	bne	a5,a4,27f4 <SystemInit+0x68>
    280a:	400217b7          	lui	a5,0x40021
    280e:	439c                	lw	a5,0(a5)
    2810:	00e79713          	slli	a4,a5,0xe
    2814:	06075763          	bgez	a4,2882 <SystemInit+0xf6>
    2818:	4785                	li	a5,1
    281a:	c63e                	sw	a5,12(sp)
    281c:	4732                	lw	a4,12(sp)
    281e:	4785                	li	a5,1
    2820:	04f71f63          	bne	a4,a5,287e <SystemInit+0xf2>
    2824:	400217b7          	lui	a5,0x40021
    2828:	43d8                	lw	a4,4(a5)
    282a:	ffc106b7          	lui	a3,0xffc10
    282e:	16fd                	addi	a3,a3,-1
    2830:	c3d8                	sw	a4,4(a5)
    2832:	43d8                	lw	a4,4(a5)
    2834:	c3d8                	sw	a4,4(a5)
    2836:	43d8                	lw	a4,4(a5)
    2838:	40076713          	ori	a4,a4,1024
    283c:	c3d8                	sw	a4,4(a5)
    283e:	43d8                	lw	a4,4(a5)
    2840:	8f75                	and	a4,a4,a3
    2842:	c3d8                	sw	a4,4(a5)
    2844:	43d8                	lw	a4,4(a5)
    2846:	001d06b7          	lui	a3,0x1d0
    284a:	8f55                	or	a4,a4,a3
    284c:	c3d8                	sw	a4,4(a5)
    284e:	4398                	lw	a4,0(a5)
    2850:	010006b7          	lui	a3,0x1000
    2854:	8f55                	or	a4,a4,a3
    2856:	c398                	sw	a4,0(a5)
    2858:	4398                	lw	a4,0(a5)
    285a:	00671693          	slli	a3,a4,0x6
    285e:	fe06dde3          	bgez	a3,2858 <SystemInit+0xcc>
    2862:	43d8                	lw	a4,4(a5)
    2864:	400216b7          	lui	a3,0x40021
    2868:	9b71                	andi	a4,a4,-4
    286a:	c3d8                	sw	a4,4(a5)
    286c:	43d8                	lw	a4,4(a5)
    286e:	00276713          	ori	a4,a4,2
    2872:	c3d8                	sw	a4,4(a5)
    2874:	4721                	li	a4,8
    2876:	42dc                	lw	a5,4(a3)
    2878:	8bb1                	andi	a5,a5,12
    287a:	fee79ee3          	bne	a5,a4,2876 <SystemInit+0xea>
    287e:	0141                	addi	sp,sp,16
    2880:	8082                	ret
    2882:	c602                	sw	zero,12(sp)
    2884:	bf61                	j	281c <SystemInit+0x90>

00002886 <SystemCoreClockUpdate>:
    2886:	40021637          	lui	a2,0x40021
    288a:	425c                	lw	a5,4(a2)
    288c:	4691                	li	a3,4
    288e:	8bb1                	andi	a5,a5,12
    2890:	80418713          	addi	a4,gp,-2044 # 20000084 <SystemCoreClock>
    2894:	00d78563          	beq	a5,a3,289e <SystemCoreClockUpdate+0x18>
    2898:	46a1                	li	a3,8
    289a:	02d78963          	beq	a5,a3,28cc <SystemCoreClockUpdate+0x46>
    289e:	007a17b7          	lui	a5,0x7a1
    28a2:	20078793          	addi	a5,a5,512 # 7a1200 <_data_lma+0x799740>
    28a6:	c31c                	sw	a5,0(a4)
    28a8:	400217b7          	lui	a5,0x40021
    28ac:	43dc                	lw	a5,4(a5)
    28ae:	8391                	srli	a5,a5,0x4
    28b0:	00f7f693          	andi	a3,a5,15
    28b4:	200007b7          	lui	a5,0x20000
    28b8:	00078793          	mv	a5,a5
    28bc:	97b6                	add	a5,a5,a3
    28be:	0007c683          	lbu	a3,0(a5) # 20000000 <_data_vma>
    28c2:	431c                	lw	a5,0(a4)
    28c4:	00d7d7b3          	srl	a5,a5,a3
    28c8:	c31c                	sw	a5,0(a4)
    28ca:	8082                	ret
    28cc:	4254                	lw	a3,4(a2)
    28ce:	4250                	lw	a2,4(a2)
    28d0:	67c1                	lui	a5,0x10
    28d2:	82c9                	srli	a3,a3,0x12
    28d4:	8abd                	andi	a3,a3,15
    28d6:	8e7d                	and	a2,a2,a5
    28d8:	00268793          	addi	a5,a3,2 # 40021002 <_eusrstack+0x20019002>
    28dc:	ca85                	beqz	a3,290c <SystemCoreClockUpdate+0x86>
    28de:	46bd                	li	a3,15
    28e0:	02d78963          	beq	a5,a3,2912 <SystemCoreClockUpdate+0x8c>
    28e4:	46c1                	li	a3,16
    28e6:	02d78963          	beq	a5,a3,2918 <SystemCoreClockUpdate+0x92>
    28ea:	45c5                	li	a1,17
    28ec:	4681                	li	a3,0
    28ee:	00b79363          	bne	a5,a1,28f4 <SystemCoreClockUpdate+0x6e>
    28f2:	47c1                	li	a5,16
    28f4:	e60d                	bnez	a2,291e <SystemCoreClockUpdate+0x98>
    28f6:	003d1637          	lui	a2,0x3d1
    28fa:	90060613          	addi	a2,a2,-1792 # 3d0900 <_data_lma+0x3c8e40>
    28fe:	02c787b3          	mul	a5,a5,a2
    2902:	c31c                	sw	a5,0(a4)
    2904:	d2d5                	beqz	a3,28a8 <SystemCoreClockUpdate+0x22>
    2906:	431c                	lw	a5,0(a4)
    2908:	8385                	srli	a5,a5,0x1
    290a:	bf71                	j	28a6 <SystemCoreClockUpdate+0x20>
    290c:	4681                	li	a3,0
    290e:	47c9                	li	a5,18
    2910:	b7d5                	j	28f4 <SystemCoreClockUpdate+0x6e>
    2912:	4685                	li	a3,1
    2914:	47b5                	li	a5,13
    2916:	bff9                	j	28f4 <SystemCoreClockUpdate+0x6e>
    2918:	4681                	li	a3,0
    291a:	47bd                	li	a5,15
    291c:	bfe1                	j	28f4 <SystemCoreClockUpdate+0x6e>
    291e:	40021637          	lui	a2,0x40021
    2922:	4250                	lw	a2,4(a2)
    2924:	00e61593          	slli	a1,a2,0xe
    2928:	fc05c7e3          	bltz	a1,28f6 <SystemCoreClockUpdate+0x70>
    292c:	007a1637          	lui	a2,0x7a1
    2930:	20060613          	addi	a2,a2,512 # 7a1200 <_data_lma+0x799740>
    2934:	b7e9                	j	28fe <SystemCoreClockUpdate+0x78>
    2936:	a001                	j	2936 <SystemCoreClockUpdate+0xb0>
    2938:	a001                	j	2938 <SystemCoreClockUpdate+0xb2>

0000293a <Ecall_M_Mode_Handler>:
    293a:	a001                	j	293a <Ecall_M_Mode_Handler>

0000293c <Ecall_U_Mode_Handler>:
    293c:	a001                	j	293c <Ecall_U_Mode_Handler>

0000293e <Break_Point_Handler>:
    293e:	a001                	j	293e <Break_Point_Handler>

00002940 <SysTick_Handler>:
    2940:	a001                	j	2940 <SysTick_Handler>

00002942 <SW_Handler>:
    2942:	a001                	j	2942 <SW_Handler>

00002944 <WWDG_IRQHandler>:
    2944:	a001                	j	2944 <WWDG_IRQHandler>

00002946 <PVD_IRQHandler>:
    2946:	a001                	j	2946 <PVD_IRQHandler>

00002948 <TAMPER_IRQHandler>:
    2948:	a001                	j	2948 <TAMPER_IRQHandler>

0000294a <RTC_IRQHandler>:
    294a:	a001                	j	294a <RTC_IRQHandler>

0000294c <FLASH_IRQHandler>:
    294c:	a001                	j	294c <FLASH_IRQHandler>

0000294e <RCC_IRQHandler>:
    294e:	a001                	j	294e <RCC_IRQHandler>

00002950 <EXTI0_IRQHandler>:
    2950:	a001                	j	2950 <EXTI0_IRQHandler>

00002952 <EXTI1_IRQHandler>:
    2952:	a001                	j	2952 <EXTI1_IRQHandler>

00002954 <EXTI2_IRQHandler>:
    2954:	a001                	j	2954 <EXTI2_IRQHandler>

00002956 <EXTI3_IRQHandler>:
    2956:	a001                	j	2956 <EXTI3_IRQHandler>

00002958 <EXTI4_IRQHandler>:
    2958:	a001                	j	2958 <EXTI4_IRQHandler>

0000295a <DMA1_Channel1_IRQHandler>:
    295a:	a001                	j	295a <DMA1_Channel1_IRQHandler>

0000295c <DMA1_Channel2_IRQHandler>:
    295c:	a001                	j	295c <DMA1_Channel2_IRQHandler>

0000295e <DMA1_Channel3_IRQHandler>:
    295e:	a001                	j	295e <DMA1_Channel3_IRQHandler>

00002960 <DMA1_Channel4_IRQHandler>:
    2960:	a001                	j	2960 <DMA1_Channel4_IRQHandler>

00002962 <DMA1_Channel5_IRQHandler>:
    2962:	a001                	j	2962 <DMA1_Channel5_IRQHandler>

00002964 <DMA1_Channel6_IRQHandler>:
    2964:	a001                	j	2964 <DMA1_Channel6_IRQHandler>

00002966 <DMA1_Channel7_IRQHandler>:
    2966:	a001                	j	2966 <DMA1_Channel7_IRQHandler>

00002968 <ADC1_2_IRQHandler>:
    2968:	a001                	j	2968 <ADC1_2_IRQHandler>

0000296a <USB_HP_CAN1_TX_IRQHandler>:
    296a:	a001                	j	296a <USB_HP_CAN1_TX_IRQHandler>

0000296c <USB_LP_CAN1_RX0_IRQHandler>:
    296c:	a001                	j	296c <USB_LP_CAN1_RX0_IRQHandler>

0000296e <CAN1_RX1_IRQHandler>:
    296e:	a001                	j	296e <CAN1_RX1_IRQHandler>

00002970 <CAN1_SCE_IRQHandler>:
    2970:	a001                	j	2970 <CAN1_SCE_IRQHandler>

00002972 <EXTI9_5_IRQHandler>:
    2972:	a001                	j	2972 <EXTI9_5_IRQHandler>

00002974 <TIM1_BRK_IRQHandler>:
    2974:	a001                	j	2974 <TIM1_BRK_IRQHandler>

00002976 <TIM1_UP_IRQHandler>:
    2976:	a001                	j	2976 <TIM1_UP_IRQHandler>

00002978 <TIM1_TRG_COM_IRQHandler>:
    2978:	a001                	j	2978 <TIM1_TRG_COM_IRQHandler>

0000297a <TIM1_CC_IRQHandler>:
    297a:	a001                	j	297a <TIM1_CC_IRQHandler>

0000297c <TIM2_IRQHandler>:
    297c:	a001                	j	297c <TIM2_IRQHandler>

0000297e <TIM3_IRQHandler>:
    297e:	a001                	j	297e <TIM3_IRQHandler>

00002980 <TIM4_IRQHandler>:
    2980:	a001                	j	2980 <TIM4_IRQHandler>

00002982 <I2C1_EV_IRQHandler>:
    2982:	a001                	j	2982 <I2C1_EV_IRQHandler>

00002984 <I2C1_ER_IRQHandler>:
    2984:	a001                	j	2984 <I2C1_ER_IRQHandler>

00002986 <I2C2_EV_IRQHandler>:
    2986:	a001                	j	2986 <I2C2_EV_IRQHandler>

00002988 <I2C2_ER_IRQHandler>:
    2988:	a001                	j	2988 <I2C2_ER_IRQHandler>

0000298a <SPI1_IRQHandler>:
    298a:	a001                	j	298a <SPI1_IRQHandler>

0000298c <SPI2_IRQHandler>:
    298c:	a001                	j	298c <SPI2_IRQHandler>
    298e:	a001                	j	298e <SPI2_IRQHandler+0x2>
    2990:	a001                	j	2990 <SPI2_IRQHandler+0x4>
    2992:	a001                	j	2992 <SPI2_IRQHandler+0x6>

00002994 <EXTI15_10_IRQHandler>:
    2994:	a001                	j	2994 <EXTI15_10_IRQHandler>

00002996 <RTCAlarm_IRQHandler>:
    2996:	a001                	j	2996 <RTCAlarm_IRQHandler>

00002998 <USBWakeUp_IRQHandler>:
    2998:	a001                	j	2998 <USBWakeUp_IRQHandler>

0000299a <TIM8_BRK_IRQHandler>:
    299a:	a001                	j	299a <TIM8_BRK_IRQHandler>

0000299c <TIM8_UP_IRQHandler>:
    299c:	a001                	j	299c <TIM8_UP_IRQHandler>

0000299e <TIM8_TRG_COM_IRQHandler>:
    299e:	a001                	j	299e <TIM8_TRG_COM_IRQHandler>

000029a0 <TIM8_CC_IRQHandler>:
    29a0:	a001                	j	29a0 <TIM8_CC_IRQHandler>

000029a2 <RNG_IRQHandler>:
    29a2:	a001                	j	29a2 <RNG_IRQHandler>

000029a4 <FSMC_IRQHandler>:
    29a4:	a001                	j	29a4 <FSMC_IRQHandler>

000029a6 <SDIO_IRQHandler>:
    29a6:	a001                	j	29a6 <SDIO_IRQHandler>

000029a8 <TIM5_IRQHandler>:
    29a8:	a001                	j	29a8 <TIM5_IRQHandler>

000029aa <SPI3_IRQHandler>:
    29aa:	a001                	j	29aa <SPI3_IRQHandler>

000029ac <UART4_IRQHandler>:
    29ac:	a001                	j	29ac <UART4_IRQHandler>

000029ae <UART5_IRQHandler>:
    29ae:	a001                	j	29ae <UART5_IRQHandler>

000029b0 <TIM6_IRQHandler>:
    29b0:	a001                	j	29b0 <TIM6_IRQHandler>

000029b2 <TIM7_IRQHandler>:
    29b2:	a001                	j	29b2 <TIM7_IRQHandler>

000029b4 <DMA2_Channel1_IRQHandler>:
    29b4:	a001                	j	29b4 <DMA2_Channel1_IRQHandler>

000029b6 <DMA2_Channel2_IRQHandler>:
    29b6:	a001                	j	29b6 <DMA2_Channel2_IRQHandler>

000029b8 <DMA2_Channel3_IRQHandler>:
    29b8:	a001                	j	29b8 <DMA2_Channel3_IRQHandler>

000029ba <DMA2_Channel4_IRQHandler>:
    29ba:	a001                	j	29ba <DMA2_Channel4_IRQHandler>

000029bc <DMA2_Channel5_IRQHandler>:
    29bc:	a001                	j	29bc <DMA2_Channel5_IRQHandler>

000029be <ETH_IRQHandler>:
    29be:	a001                	j	29be <ETH_IRQHandler>

000029c0 <ETH_WKUP_IRQHandler>:
    29c0:	a001                	j	29c0 <ETH_WKUP_IRQHandler>

000029c2 <CAN2_TX_IRQHandler>:
    29c2:	a001                	j	29c2 <CAN2_TX_IRQHandler>

000029c4 <CAN2_RX0_IRQHandler>:
    29c4:	a001                	j	29c4 <CAN2_RX0_IRQHandler>

000029c6 <CAN2_RX1_IRQHandler>:
    29c6:	a001                	j	29c6 <CAN2_RX1_IRQHandler>

000029c8 <CAN2_SCE_IRQHandler>:
    29c8:	a001                	j	29c8 <CAN2_SCE_IRQHandler>

000029ca <OTG_FS_IRQHandler>:
    29ca:	a001                	j	29ca <OTG_FS_IRQHandler>

000029cc <USBHSWakeup_IRQHandler>:
    29cc:	a001                	j	29cc <USBHSWakeup_IRQHandler>

000029ce <USBHS_IRQHandler>:
    29ce:	a001                	j	29ce <USBHS_IRQHandler>

000029d0 <DVP_IRQHandler>:
    29d0:	a001                	j	29d0 <DVP_IRQHandler>

000029d2 <UART6_IRQHandler>:
    29d2:	a001                	j	29d2 <UART6_IRQHandler>

000029d4 <UART7_IRQHandler>:
    29d4:	a001                	j	29d4 <UART7_IRQHandler>

000029d6 <UART8_IRQHandler>:
    29d6:	a001                	j	29d6 <UART8_IRQHandler>

000029d8 <TIM9_BRK_IRQHandler>:
    29d8:	a001                	j	29d8 <TIM9_BRK_IRQHandler>

000029da <TIM9_UP_IRQHandler>:
    29da:	a001                	j	29da <TIM9_UP_IRQHandler>

000029dc <TIM9_TRG_COM_IRQHandler>:
    29dc:	a001                	j	29dc <TIM9_TRG_COM_IRQHandler>

000029de <TIM9_CC_IRQHandler>:
    29de:	a001                	j	29de <TIM9_CC_IRQHandler>

000029e0 <TIM10_BRK_IRQHandler>:
    29e0:	a001                	j	29e0 <TIM10_BRK_IRQHandler>

000029e2 <TIM10_UP_IRQHandler>:
    29e2:	a001                	j	29e2 <TIM10_UP_IRQHandler>

000029e4 <TIM10_TRG_COM_IRQHandler>:
    29e4:	a001                	j	29e4 <TIM10_TRG_COM_IRQHandler>

000029e6 <TIM10_CC_IRQHandler>:
    29e6:	a001                	j	29e6 <TIM10_CC_IRQHandler>

000029e8 <DMA2_Channel6_IRQHandler>:
    29e8:	a001                	j	29e8 <DMA2_Channel6_IRQHandler>

000029ea <DMA2_Channel7_IRQHandler>:
    29ea:	a001                	j	29ea <DMA2_Channel7_IRQHandler>

000029ec <DMA2_Channel8_IRQHandler>:
    29ec:	a001                	j	29ec <DMA2_Channel8_IRQHandler>

000029ee <DMA2_Channel9_IRQHandler>:
    29ee:	a001                	j	29ee <DMA2_Channel9_IRQHandler>

000029f0 <DMA2_Channel10_IRQHandler>:
    29f0:	a001                	j	29f0 <DMA2_Channel10_IRQHandler>

000029f2 <DMA2_Channel11_IRQHandler>:
    29f2:	a001                	j	29f2 <DMA2_Channel11_IRQHandler>

000029f4 <handle_reset>:
    29f4:	1fffe197          	auipc	gp,0x1fffe
    29f8:	e8c18193          	addi	gp,gp,-372 # 20000880 <__global_pointer$>
    29fc:	20005117          	auipc	sp,0x20005
    2a00:	60410113          	addi	sp,sp,1540 # 20008000 <_eusrstack>
    2a04:	00005517          	auipc	a0,0x5
    2a08:	0bc50513          	addi	a0,a0,188 # 7ac0 <_data_lma>
    2a0c:	1fffd597          	auipc	a1,0x1fffd
    2a10:	5f458593          	addi	a1,a1,1524 # 20000000 <_data_vma>
    2a14:	81818613          	addi	a2,gp,-2024 # 20000098 <_edata>
    2a18:	00c5fa63          	bgeu	a1,a2,2a2c <handle_reset+0x38>
    2a1c:	00052283          	lw	t0,0(a0)
    2a20:	0055a023          	sw	t0,0(a1)
    2a24:	0511                	addi	a0,a0,4
    2a26:	0591                	addi	a1,a1,4
    2a28:	fec5eae3          	bltu	a1,a2,2a1c <handle_reset+0x28>
    2a2c:	81818513          	addi	a0,gp,-2024 # 20000098 <_edata>
    2a30:	c7418593          	addi	a1,gp,-908 # 200004f4 <_ebss>
    2a34:	00b57763          	bgeu	a0,a1,2a42 <handle_reset+0x4e>
    2a38:	00052023          	sw	zero,0(a0)
    2a3c:	0511                	addi	a0,a0,4
    2a3e:	feb56de3          	bltu	a0,a1,2a38 <handle_reset+0x44>
    2a42:	42fd                	li	t0,31
    2a44:	bc029073          	csrw	0xbc0,t0
    2a48:	42fd                	li	t0,31
    2a4a:	80429073          	csrw	0x804,t0
    2a4e:	000062b7          	lui	t0,0x6
    2a52:	08828293          	addi	t0,t0,136 # 6088 <asc2_2412+0xbf0>
    2a56:	3002a073          	csrs	mstatus,t0
    2a5a:	ffffd297          	auipc	t0,0xffffd
    2a5e:	5de28293          	addi	t0,t0,1502 # 38 <_einit>
    2a62:	0032e293          	ori	t0,t0,3
    2a66:	30529073          	csrw	mtvec,t0
    2a6a:	d23ff0ef          	jal	ra,278c <SystemInit>
    2a6e:	00000297          	auipc	t0,0x0
    2a72:	a6e28293          	addi	t0,t0,-1426 # 24dc <main>
    2a76:	34129073          	csrw	mepc,t0
    2a7a:	30200073          	mret

00002a7e <FSMC_NORSRAMInit>:
    2a7e:	4514                	lw	a3,8(a0)
    2a80:	415c                	lw	a5,4(a0)
    2a82:	4558                	lw	a4,12(a0)
    2a84:	02c52803          	lw	a6,44(a0)
    2a88:	8fd5                	or	a5,a5,a3
    2a8a:	8fd9                	or	a5,a5,a4
    2a8c:	4918                	lw	a4,16(a0)
    2a8e:	a0000637          	lui	a2,0xa0000
    2a92:	8fd9                	or	a5,a5,a4
    2a94:	4958                	lw	a4,20(a0)
    2a96:	8fd9                	or	a5,a5,a4
    2a98:	4d18                	lw	a4,24(a0)
    2a9a:	8fd9                	or	a5,a5,a4
    2a9c:	4d58                	lw	a4,28(a0)
    2a9e:	8fd9                	or	a5,a5,a4
    2aa0:	5118                	lw	a4,32(a0)
    2aa2:	8fd9                	or	a5,a5,a4
    2aa4:	5158                	lw	a4,36(a0)
    2aa6:	8fd9                	or	a5,a5,a4
    2aa8:	5518                	lw	a4,40(a0)
    2aaa:	8fd9                	or	a5,a5,a4
    2aac:	5918                	lw	a4,48(a0)
    2aae:	0107e7b3          	or	a5,a5,a6
    2ab2:	8fd9                	or	a5,a5,a4
    2ab4:	4118                	lw	a4,0(a0)
    2ab6:	070a                	slli	a4,a4,0x2
    2ab8:	963a                	add	a2,a2,a4
    2aba:	c21c                	sw	a5,0(a2)
    2abc:	47a1                	li	a5,8
    2abe:	00f69663          	bne	a3,a5,2aca <FSMC_NORSRAMInit+0x4c>
    2ac2:	421c                	lw	a5,0(a2)
    2ac4:	0407e793          	ori	a5,a5,64
    2ac8:	c21c                	sw	a5,0(a2)
    2aca:	5954                	lw	a3,52(a0)
    2acc:	4e8c                	lw	a1,24(a3)
    2ace:	429c                	lw	a5,0(a3)
    2ad0:	8fcd                	or	a5,a5,a1
    2ad2:	42cc                	lw	a1,4(a3)
    2ad4:	0592                	slli	a1,a1,0x4
    2ad6:	8fcd                	or	a5,a5,a1
    2ad8:	468c                	lw	a1,8(a3)
    2ada:	05a2                	slli	a1,a1,0x8
    2adc:	8fcd                	or	a5,a5,a1
    2ade:	46cc                	lw	a1,12(a3)
    2ae0:	05c2                	slli	a1,a1,0x10
    2ae2:	8fcd                	or	a5,a5,a1
    2ae4:	4a8c                	lw	a1,16(a3)
    2ae6:	4ad4                	lw	a3,20(a3)
    2ae8:	05d2                	slli	a1,a1,0x14
    2aea:	8fcd                	or	a5,a5,a1
    2aec:	06e2                	slli	a3,a3,0x18
    2aee:	8fd5                	or	a5,a5,a3
    2af0:	c25c                	sw	a5,4(a2)
    2af2:	6791                	lui	a5,0x4
    2af4:	02f81963          	bne	a6,a5,2b26 <FSMC_NORSRAMInit+0xa8>
    2af8:	5d14                	lw	a3,56(a0)
    2afa:	4e90                	lw	a2,24(a3)
    2afc:	429c                	lw	a5,0(a3)
    2afe:	8fd1                	or	a5,a5,a2
    2b00:	42d0                	lw	a2,4(a3)
    2b02:	0612                	slli	a2,a2,0x4
    2b04:	8fd1                	or	a5,a5,a2
    2b06:	4690                	lw	a2,8(a3)
    2b08:	0622                	slli	a2,a2,0x8
    2b0a:	8fd1                	or	a5,a5,a2
    2b0c:	4a90                	lw	a2,16(a3)
    2b0e:	4ad4                	lw	a3,20(a3)
    2b10:	0652                	slli	a2,a2,0x14
    2b12:	06e2                	slli	a3,a3,0x18
    2b14:	8fd1                	or	a5,a5,a2
    2b16:	8fd5                	or	a5,a5,a3
    2b18:	a00006b7          	lui	a3,0xa0000
    2b1c:	10468693          	addi	a3,a3,260 # a0000104 <_eusrstack+0x7fff8104>
    2b20:	9736                	add	a4,a4,a3
    2b22:	c31c                	sw	a5,0(a4)
    2b24:	8082                	ret
    2b26:	a00007b7          	lui	a5,0xa0000
    2b2a:	10478793          	addi	a5,a5,260 # a0000104 <_eusrstack+0x7fff8104>
    2b2e:	973e                	add	a4,a4,a5
    2b30:	100007b7          	lui	a5,0x10000
    2b34:	17fd                	addi	a5,a5,-1
    2b36:	b7f5                	j	2b22 <FSMC_NORSRAMInit+0xa4>

00002b38 <FSMC_NORSRAMCmd>:
    2b38:	a00007b7          	lui	a5,0xa0000
    2b3c:	050a                	slli	a0,a0,0x2
    2b3e:	953e                	add	a0,a0,a5
    2b40:	411c                	lw	a5,0(a0)
    2b42:	c589                	beqz	a1,2b4c <FSMC_NORSRAMCmd+0x14>
    2b44:	0017e793          	ori	a5,a5,1
    2b48:	c11c                	sw	a5,0(a0)
    2b4a:	8082                	ret
    2b4c:	00100737          	lui	a4,0x100
    2b50:	1779                	addi	a4,a4,-2
    2b52:	8ff9                	and	a5,a5,a4
    2b54:	bfd5                	j	2b48 <FSMC_NORSRAMCmd+0x10>

00002b56 <GPIO_Init>:
    2b56:	459c                	lw	a5,8(a1)
    2b58:	0107f713          	andi	a4,a5,16
    2b5c:	00f7f813          	andi	a6,a5,15
    2b60:	c701                	beqz	a4,2b68 <GPIO_Init+0x12>
    2b62:	41d8                	lw	a4,4(a1)
    2b64:	00e86833          	or	a6,a6,a4
    2b68:	0005d583          	lhu	a1,0(a1)
    2b6c:	0ff5f713          	andi	a4,a1,255
    2b70:	c339                	beqz	a4,2bb6 <GPIO_Init+0x60>
    2b72:	4118                	lw	a4,0(a0)
    2b74:	4681                	li	a3,0
    2b76:	4e85                	li	t4,1
    2b78:	4f3d                	li	t5,15
    2b7a:	02800f93          	li	t6,40
    2b7e:	04800293          	li	t0,72
    2b82:	4e21                	li	t3,8
    2b84:	00de9633          	sll	a2,t4,a3
    2b88:	00c5f8b3          	and	a7,a1,a2
    2b8c:	03161163          	bne	a2,a7,2bae <GPIO_Init+0x58>
    2b90:	00269893          	slli	a7,a3,0x2
    2b94:	011f1333          	sll	t1,t5,a7
    2b98:	fff34313          	not	t1,t1
    2b9c:	00e37733          	and	a4,t1,a4
    2ba0:	011818b3          	sll	a7,a6,a7
    2ba4:	00e8e733          	or	a4,a7,a4
    2ba8:	05f79f63          	bne	a5,t6,2c06 <GPIO_Init+0xb0>
    2bac:	c950                	sw	a2,20(a0)
    2bae:	0685                	addi	a3,a3,1
    2bb0:	fdc69ae3          	bne	a3,t3,2b84 <GPIO_Init+0x2e>
    2bb4:	c118                	sw	a4,0(a0)
    2bb6:	0ff00713          	li	a4,255
    2bba:	04b77563          	bgeu	a4,a1,2c04 <GPIO_Init+0xae>
    2bbe:	4154                	lw	a3,4(a0)
    2bc0:	4621                	li	a2,8
    2bc2:	4e85                	li	t4,1
    2bc4:	4f3d                	li	t5,15
    2bc6:	02800f93          	li	t6,40
    2bca:	04800293          	li	t0,72
    2bce:	4e41                	li	t3,16
    2bd0:	00ce98b3          	sll	a7,t4,a2
    2bd4:	0115f733          	and	a4,a1,a7
    2bd8:	02e89263          	bne	a7,a4,2bfc <GPIO_Init+0xa6>
    2bdc:	00261713          	slli	a4,a2,0x2
    2be0:	1701                	addi	a4,a4,-32
    2be2:	00ef1333          	sll	t1,t5,a4
    2be6:	fff34313          	not	t1,t1
    2bea:	00d376b3          	and	a3,t1,a3
    2bee:	00e81733          	sll	a4,a6,a4
    2bf2:	8ed9                	or	a3,a3,a4
    2bf4:	01f79d63          	bne	a5,t6,2c0e <GPIO_Init+0xb8>
    2bf8:	01152a23          	sw	a7,20(a0)
    2bfc:	0605                	addi	a2,a2,1
    2bfe:	fdc619e3          	bne	a2,t3,2bd0 <GPIO_Init+0x7a>
    2c02:	c154                	sw	a3,4(a0)
    2c04:	8082                	ret
    2c06:	fa5794e3          	bne	a5,t0,2bae <GPIO_Init+0x58>
    2c0a:	c910                	sw	a2,16(a0)
    2c0c:	b74d                	j	2bae <GPIO_Init+0x58>
    2c0e:	fe5797e3          	bne	a5,t0,2bfc <GPIO_Init+0xa6>
    2c12:	01152823          	sw	a7,16(a0)
    2c16:	b7dd                	j	2bfc <GPIO_Init+0xa6>

00002c18 <GPIO_SetBits>:
    2c18:	c90c                	sw	a1,16(a0)
    2c1a:	8082                	ret

00002c1c <GPIO_ResetBits>:
    2c1c:	c94c                	sw	a1,20(a0)
    2c1e:	8082                	ret

00002c20 <NVIC_PriorityGroupConfig>:
    2c20:	80a1ae23          	sw	a0,-2020(gp) # 2000009c <NVIC_Priority_Group>
    2c24:	8082                	ret

00002c26 <NVIC_Init>:
    2c26:	81c18793          	addi	a5,gp,-2020 # 2000009c <NVIC_Priority_Group>
    2c2a:	4394                	lw	a3,0(a5)
    2c2c:	00054703          	lbu	a4,0(a0)
    2c30:	e689                	bnez	a3,2c3a <NVIC_Init+0x14>
    2c32:	00254783          	lbu	a5,2(a0)
    2c36:	0792                	slli	a5,a5,0x4
    2c38:	a831                	j	2c54 <NVIC_Init+0x2e>
    2c3a:	4394                	lw	a3,0(a5)
    2c3c:	4605                	li	a2,1
    2c3e:	04c69163          	bne	a3,a2,2c80 <NVIC_Init+0x5a>
    2c42:	00254783          	lbu	a5,2(a0)
    2c46:	00154603          	lbu	a2,1(a0)
    2c4a:	0792                	slli	a5,a5,0x4
    2c4c:	00d61463          	bne	a2,a3,2c54 <NVIC_Init+0x2e>
    2c50:	f807e793          	ori	a5,a5,-128
    2c54:	e000e6b7          	lui	a3,0xe000e
    2c58:	0ff7f793          	andi	a5,a5,255
    2c5c:	96ba                	add	a3,a3,a4
    2c5e:	40f68023          	sb	a5,1024(a3) # e000e400 <_eusrstack+0xc0006400>
    2c62:	4685                	li	a3,1
    2c64:	00575793          	srli	a5,a4,0x5
    2c68:	00e69733          	sll	a4,a3,a4
    2c6c:	4154                	lw	a3,4(a0)
    2c6e:	c6ad                	beqz	a3,2cd8 <NVIC_Init+0xb2>
    2c70:	04078793          	addi	a5,a5,64 # a0000040 <_eusrstack+0x7fff8040>
    2c74:	078a                	slli	a5,a5,0x2
    2c76:	e000e6b7          	lui	a3,0xe000e
    2c7a:	97b6                	add	a5,a5,a3
    2c7c:	c398                	sw	a4,0(a5)
    2c7e:	8082                	ret
    2c80:	438c                	lw	a1,0(a5)
    2c82:	4689                	li	a3,2
    2c84:	02d59363          	bne	a1,a3,2caa <NVIC_Init+0x84>
    2c88:	00154683          	lbu	a3,1(a0)
    2c8c:	00254783          	lbu	a5,2(a0)
    2c90:	00d66563          	bltu	a2,a3,2c9a <NVIC_Init+0x74>
    2c94:	068a                	slli	a3,a3,0x2
    2c96:	97b6                	add	a5,a5,a3
    2c98:	bf79                	j	2c36 <NVIC_Init+0x10>
    2c9a:	03e68693          	addi	a3,a3,62 # e000e03e <_eusrstack+0xc000603e>
    2c9e:	068a                	slli	a3,a3,0x2
    2ca0:	97b6                	add	a5,a5,a3
    2ca2:	0ff7f793          	andi	a5,a5,255
    2ca6:	0792                	slli	a5,a5,0x4
    2ca8:	b765                	j	2c50 <NVIC_Init+0x2a>
    2caa:	4390                	lw	a2,0(a5)
    2cac:	468d                	li	a3,3
    2cae:	00d61e63          	bne	a2,a3,2cca <NVIC_Init+0xa4>
    2cb2:	00154683          	lbu	a3,1(a0)
    2cb6:	00254783          	lbu	a5,2(a0)
    2cba:	00d66463          	bltu	a2,a3,2cc2 <NVIC_Init+0x9c>
    2cbe:	0686                	slli	a3,a3,0x1
    2cc0:	bfd9                	j	2c96 <NVIC_Init+0x70>
    2cc2:	07c68693          	addi	a3,a3,124
    2cc6:	0686                	slli	a3,a3,0x1
    2cc8:	bfe1                	j	2ca0 <NVIC_Init+0x7a>
    2cca:	4394                	lw	a3,0(a5)
    2ccc:	4791                	li	a5,4
    2cce:	f8f69ae3          	bne	a3,a5,2c62 <NVIC_Init+0x3c>
    2cd2:	00154783          	lbu	a5,1(a0)
    2cd6:	b785                	j	2c36 <NVIC_Init+0x10>
    2cd8:	06078793          	addi	a5,a5,96
    2cdc:	bf61                	j	2c74 <NVIC_Init+0x4e>

00002cde <RCC_GetClocksFreq>:
    2cde:	40021737          	lui	a4,0x40021
    2ce2:	435c                	lw	a5,4(a4)
    2ce4:	4691                	li	a3,4
    2ce6:	8bb1                	andi	a5,a5,12
    2ce8:	00d78563          	beq	a5,a3,2cf2 <RCC_GetClocksFreq+0x14>
    2cec:	46a1                	li	a3,8
    2cee:	06d78663          	beq	a5,a3,2d5a <RCC_GetClocksFreq+0x7c>
    2cf2:	007a17b7          	lui	a5,0x7a1
    2cf6:	20078793          	addi	a5,a5,512 # 7a1200 <_data_lma+0x799740>
    2cfa:	c11c                	sw	a5,0(a0)
    2cfc:	40021637          	lui	a2,0x40021
    2d00:	425c                	lw	a5,4(a2)
    2d02:	20000737          	lui	a4,0x20000
    2d06:	01070713          	addi	a4,a4,16 # 20000010 <APBAHBPrescTable>
    2d0a:	8391                	srli	a5,a5,0x4
    2d0c:	8bbd                	andi	a5,a5,15
    2d0e:	97ba                	add	a5,a5,a4
    2d10:	0007c683          	lbu	a3,0(a5)
    2d14:	411c                	lw	a5,0(a0)
    2d16:	00d7d7b3          	srl	a5,a5,a3
    2d1a:	c15c                	sw	a5,4(a0)
    2d1c:	4254                	lw	a3,4(a2)
    2d1e:	82a1                	srli	a3,a3,0x8
    2d20:	8a9d                	andi	a3,a3,7
    2d22:	96ba                	add	a3,a3,a4
    2d24:	0006c683          	lbu	a3,0(a3)
    2d28:	00d7d6b3          	srl	a3,a5,a3
    2d2c:	c514                	sw	a3,8(a0)
    2d2e:	4254                	lw	a3,4(a2)
    2d30:	82ad                	srli	a3,a3,0xb
    2d32:	8a9d                	andi	a3,a3,7
    2d34:	9736                	add	a4,a4,a3
    2d36:	00074703          	lbu	a4,0(a4)
    2d3a:	00e7d7b3          	srl	a5,a5,a4
    2d3e:	c55c                	sw	a5,12(a0)
    2d40:	4258                	lw	a4,4(a2)
    2d42:	8339                	srli	a4,a4,0xe
    2d44:	00377693          	andi	a3,a4,3
    2d48:	80818713          	addi	a4,gp,-2040 # 20000088 <ADCPrescTable>
    2d4c:	9736                	add	a4,a4,a3
    2d4e:	00074703          	lbu	a4,0(a4)
    2d52:	02e7d7b3          	divu	a5,a5,a4
    2d56:	c91c                	sw	a5,16(a0)
    2d58:	8082                	ret
    2d5a:	435c                	lw	a5,4(a4)
    2d5c:	4354                	lw	a3,4(a4)
    2d5e:	6741                	lui	a4,0x10
    2d60:	83c9                	srli	a5,a5,0x12
    2d62:	8ef9                	and	a3,a3,a4
    2d64:	1ffff737          	lui	a4,0x1ffff
    2d68:	70c72703          	lw	a4,1804(a4) # 1ffff70c <_data_lma+0x1fff7c4c>
    2d6c:	8bbd                	andi	a5,a5,15
    2d6e:	0789                	addi	a5,a5,2
    2d70:	01171613          	slli	a2,a4,0x11
    2d74:	00064863          	bltz	a2,2d84 <RCC_GetClocksFreq+0xa6>
    2d78:	4645                	li	a2,17
    2d7a:	4701                	li	a4,0
    2d7c:	02c79263          	bne	a5,a2,2da0 <RCC_GetClocksFreq+0xc2>
    2d80:	47c9                	li	a5,18
    2d82:	a839                	j	2da0 <RCC_GetClocksFreq+0xc2>
    2d84:	4709                	li	a4,2
    2d86:	02e78963          	beq	a5,a4,2db8 <RCC_GetClocksFreq+0xda>
    2d8a:	473d                	li	a4,15
    2d8c:	02e78863          	beq	a5,a4,2dbc <RCC_GetClocksFreq+0xde>
    2d90:	4741                	li	a4,16
    2d92:	02e78863          	beq	a5,a4,2dc2 <RCC_GetClocksFreq+0xe4>
    2d96:	4645                	li	a2,17
    2d98:	4701                	li	a4,0
    2d9a:	00c79363          	bne	a5,a2,2da0 <RCC_GetClocksFreq+0xc2>
    2d9e:	47c1                	li	a5,16
    2da0:	e685                	bnez	a3,2dc8 <RCC_GetClocksFreq+0xea>
    2da2:	400246b7          	lui	a3,0x40024
    2da6:	8006a683          	lw	a3,-2048(a3) # 40023800 <_eusrstack+0x2001b800>
    2daa:	8ac1                	andi	a3,a3,16
    2dac:	c68d                	beqz	a3,2dd6 <RCC_GetClocksFreq+0xf8>
    2dae:	007a16b7          	lui	a3,0x7a1
    2db2:	20068693          	addi	a3,a3,512 # 7a1200 <_data_lma+0x799740>
    2db6:	a025                	j	2dde <RCC_GetClocksFreq+0x100>
    2db8:	4701                	li	a4,0
    2dba:	b7d9                	j	2d80 <RCC_GetClocksFreq+0xa2>
    2dbc:	4705                	li	a4,1
    2dbe:	47b5                	li	a5,13
    2dc0:	b7c5                	j	2da0 <RCC_GetClocksFreq+0xc2>
    2dc2:	4701                	li	a4,0
    2dc4:	47bd                	li	a5,15
    2dc6:	bfe9                	j	2da0 <RCC_GetClocksFreq+0xc2>
    2dc8:	400216b7          	lui	a3,0x40021
    2dcc:	42d4                	lw	a3,4(a3)
    2dce:	00e69613          	slli	a2,a3,0xe
    2dd2:	fc065ee3          	bgez	a2,2dae <RCC_GetClocksFreq+0xd0>
    2dd6:	003d16b7          	lui	a3,0x3d1
    2dda:	90068693          	addi	a3,a3,-1792 # 3d0900 <_data_lma+0x3c8e40>
    2dde:	02d787b3          	mul	a5,a5,a3
    2de2:	c11c                	sw	a5,0(a0)
    2de4:	df01                	beqz	a4,2cfc <RCC_GetClocksFreq+0x1e>
    2de6:	411c                	lw	a5,0(a0)
    2de8:	8385                	srli	a5,a5,0x1
    2dea:	bf01                	j	2cfa <RCC_GetClocksFreq+0x1c>

00002dec <RCC_AHBPeriphClockCmd>:
    2dec:	c599                	beqz	a1,2dfa <RCC_AHBPeriphClockCmd+0xe>
    2dee:	40021737          	lui	a4,0x40021
    2df2:	4b5c                	lw	a5,20(a4)
    2df4:	8d5d                	or	a0,a0,a5
    2df6:	cb48                	sw	a0,20(a4)
    2df8:	8082                	ret
    2dfa:	400217b7          	lui	a5,0x40021
    2dfe:	4bd8                	lw	a4,20(a5)
    2e00:	fff54513          	not	a0,a0
    2e04:	8d79                	and	a0,a0,a4
    2e06:	cbc8                	sw	a0,20(a5)
    2e08:	8082                	ret

00002e0a <RCC_APB2PeriphClockCmd>:
    2e0a:	c599                	beqz	a1,2e18 <RCC_APB2PeriphClockCmd+0xe>
    2e0c:	40021737          	lui	a4,0x40021
    2e10:	4f1c                	lw	a5,24(a4)
    2e12:	8d5d                	or	a0,a0,a5
    2e14:	cf08                	sw	a0,24(a4)
    2e16:	8082                	ret
    2e18:	400217b7          	lui	a5,0x40021
    2e1c:	4f98                	lw	a4,24(a5)
    2e1e:	fff54513          	not	a0,a0
    2e22:	8d79                	and	a0,a0,a4
    2e24:	cf88                	sw	a0,24(a5)
    2e26:	8082                	ret

00002e28 <RCC_APB1PeriphClockCmd>:
    2e28:	c599                	beqz	a1,2e36 <RCC_APB1PeriphClockCmd+0xe>
    2e2a:	40021737          	lui	a4,0x40021
    2e2e:	4f5c                	lw	a5,28(a4)
    2e30:	8d5d                	or	a0,a0,a5
    2e32:	cf48                	sw	a0,28(a4)
    2e34:	8082                	ret
    2e36:	400217b7          	lui	a5,0x40021
    2e3a:	4fd8                	lw	a4,28(a5)
    2e3c:	fff54513          	not	a0,a0
    2e40:	8d79                	and	a0,a0,a4
    2e42:	cfc8                	sw	a0,28(a5)
    2e44:	8082                	ret

00002e46 <USART_Init>:
    2e46:	01055683          	lhu	a3,16(a0)
    2e4a:	77f5                	lui	a5,0xffffd
    2e4c:	17fd                	addi	a5,a5,-1
    2e4e:	8ff5                	and	a5,a5,a3
    2e50:	0065d683          	lhu	a3,6(a1)
    2e54:	7139                	addi	sp,sp,-64
    2e56:	dc22                	sw	s0,56(sp)
    2e58:	de06                	sw	ra,60(sp)
    2e5a:	8fd5                	or	a5,a5,a3
    2e5c:	00c5d703          	lhu	a4,12(a1)
    2e60:	00f51823          	sh	a5,16(a0)
    2e64:	00c55683          	lhu	a3,12(a0)
    2e68:	77fd                	lui	a5,0xfffff
    2e6a:	9f378793          	addi	a5,a5,-1549 # ffffe9f3 <_eusrstack+0xdfff69f3>
    2e6e:	8ff5                	and	a5,a5,a3
    2e70:	0045d683          	lhu	a3,4(a1)
    2e74:	842a                	mv	s0,a0
    2e76:	c62e                	sw	a1,12(sp)
    2e78:	8fd5                	or	a5,a5,a3
    2e7a:	0085d683          	lhu	a3,8(a1)
    2e7e:	8fd5                	or	a5,a5,a3
    2e80:	00a5d683          	lhu	a3,10(a1)
    2e84:	8fd5                	or	a5,a5,a3
    2e86:	00f51623          	sh	a5,12(a0)
    2e8a:	01455783          	lhu	a5,20(a0)
    2e8e:	07c2                	slli	a5,a5,0x10
    2e90:	83c1                	srli	a5,a5,0x10
    2e92:	cff7f793          	andi	a5,a5,-769
    2e96:	8fd9                	or	a5,a5,a4
    2e98:	00f51a23          	sh	a5,20(a0)
    2e9c:	0868                	addi	a0,sp,28
    2e9e:	3581                	jal	2cde <RCC_GetClocksFreq>
    2ea0:	400147b7          	lui	a5,0x40014
    2ea4:	80078793          	addi	a5,a5,-2048 # 40013800 <_eusrstack+0x2000b800>
    2ea8:	45b2                	lw	a1,12(sp)
    2eaa:	04f41e63          	bne	s0,a5,2f06 <USART_Init+0xc0>
    2eae:	57a2                	lw	a5,40(sp)
    2eb0:	00c45683          	lhu	a3,12(s0)
    2eb4:	4765                	li	a4,25
    2eb6:	02e787b3          	mul	a5,a5,a4
    2eba:	06c2                	slli	a3,a3,0x10
    2ebc:	86c1                	srai	a3,a3,0x10
    2ebe:	4198                	lw	a4,0(a1)
    2ec0:	0406d563          	bgez	a3,2f0a <USART_Init+0xc4>
    2ec4:	0706                	slli	a4,a4,0x1
    2ec6:	00c45603          	lhu	a2,12(s0)
    2eca:	0642                	slli	a2,a2,0x10
    2ecc:	02e7d7b3          	divu	a5,a5,a4
    2ed0:	06400713          	li	a4,100
    2ed4:	8641                	srai	a2,a2,0x10
    2ed6:	02e7d6b3          	divu	a3,a5,a4
    2eda:	02e7f7b3          	remu	a5,a5,a4
    2ede:	0692                	slli	a3,a3,0x4
    2ee0:	02065763          	bgez	a2,2f0e <USART_Init+0xc8>
    2ee4:	078e                	slli	a5,a5,0x3
    2ee6:	03278793          	addi	a5,a5,50
    2eea:	02e7d7b3          	divu	a5,a5,a4
    2eee:	0077f713          	andi	a4,a5,7
    2ef2:	00d767b3          	or	a5,a4,a3
    2ef6:	07c2                	slli	a5,a5,0x10
    2ef8:	83c1                	srli	a5,a5,0x10
    2efa:	00f41423          	sh	a5,8(s0)
    2efe:	50f2                	lw	ra,60(sp)
    2f00:	5462                	lw	s0,56(sp)
    2f02:	6121                	addi	sp,sp,64
    2f04:	8082                	ret
    2f06:	5792                	lw	a5,36(sp)
    2f08:	b765                	j	2eb0 <USART_Init+0x6a>
    2f0a:	070a                	slli	a4,a4,0x2
    2f0c:	bf6d                	j	2ec6 <USART_Init+0x80>
    2f0e:	0792                	slli	a5,a5,0x4
    2f10:	03278793          	addi	a5,a5,50
    2f14:	02e7d7b3          	divu	a5,a5,a4
    2f18:	8bbd                	andi	a5,a5,15
    2f1a:	8fd5                	or	a5,a5,a3
    2f1c:	bfe9                	j	2ef6 <USART_Init+0xb0>

00002f1e <USART_Cmd>:
    2f1e:	c981                	beqz	a1,2f2e <USART_Cmd+0x10>
    2f20:	00c55783          	lhu	a5,12(a0)
    2f24:	6709                	lui	a4,0x2
    2f26:	8fd9                	or	a5,a5,a4
    2f28:	00f51623          	sh	a5,12(a0)
    2f2c:	8082                	ret
    2f2e:	00c55703          	lhu	a4,12(a0)
    2f32:	77f9                	lui	a5,0xffffe
    2f34:	17fd                	addi	a5,a5,-1
    2f36:	8ff9                	and	a5,a5,a4
    2f38:	bfc5                	j	2f28 <USART_Cmd+0xa>

00002f3a <USART_ITConfig>:
    2f3a:	0ff5f713          	andi	a4,a1,255
    2f3e:	4785                	li	a5,1
    2f40:	8315                	srli	a4,a4,0x5
    2f42:	00b795b3          	sll	a1,a5,a1
    2f46:	00f71963          	bne	a4,a5,2f58 <USART_ITConfig+0x1e>
    2f4a:	00c50793          	addi	a5,a0,12
    2f4e:	4398                	lw	a4,0(a5)
    2f50:	ce01                	beqz	a2,2f68 <USART_ITConfig+0x2e>
    2f52:	8dd9                	or	a1,a1,a4
    2f54:	c38c                	sw	a1,0(a5)
    2f56:	8082                	ret
    2f58:	4689                	li	a3,2
    2f5a:	01450793          	addi	a5,a0,20
    2f5e:	fed718e3          	bne	a4,a3,2f4e <USART_ITConfig+0x14>
    2f62:	01050793          	addi	a5,a0,16
    2f66:	b7e5                	j	2f4e <USART_ITConfig+0x14>
    2f68:	fff5c593          	not	a1,a1
    2f6c:	8df9                	and	a1,a1,a4
    2f6e:	b7dd                	j	2f54 <USART_ITConfig+0x1a>

00002f70 <USART_SendData>:
    2f70:	1ff5f593          	andi	a1,a1,511
    2f74:	00b51223          	sh	a1,4(a0)
    2f78:	8082                	ret

00002f7a <USART_ReceiveData>:
    2f7a:	00455503          	lhu	a0,4(a0)
    2f7e:	1ff57513          	andi	a0,a0,511
    2f82:	8082                	ret

00002f84 <USART_GetFlagStatus>:
    2f84:	00055503          	lhu	a0,0(a0)
    2f88:	8d6d                	and	a0,a0,a1
    2f8a:	00a03533          	snez	a0,a0
    2f8e:	8082                	ret

00002f90 <USART_GetITStatus>:
    2f90:	0ff5f713          	andi	a4,a1,255
    2f94:	4685                	li	a3,1
    2f96:	8315                	srli	a4,a4,0x5
    2f98:	00b697b3          	sll	a5,a3,a1
    2f9c:	02d71363          	bne	a4,a3,2fc2 <USART_GetITStatus+0x32>
    2fa0:	00c55703          	lhu	a4,12(a0)
    2fa4:	8ff9                	and	a5,a5,a4
    2fa6:	00055703          	lhu	a4,0(a0)
    2faa:	4501                	li	a0,0
    2fac:	0742                	slli	a4,a4,0x10
    2fae:	8341                	srli	a4,a4,0x10
    2fb0:	cb81                	beqz	a5,2fc0 <USART_GetITStatus+0x30>
    2fb2:	4505                	li	a0,1
    2fb4:	81a1                	srli	a1,a1,0x8
    2fb6:	00b515b3          	sll	a1,a0,a1
    2fba:	8f6d                	and	a4,a4,a1
    2fbc:	00e03533          	snez	a0,a4
    2fc0:	8082                	ret
    2fc2:	4689                	li	a3,2
    2fc4:	00d71563          	bne	a4,a3,2fce <USART_GetITStatus+0x3e>
    2fc8:	01055703          	lhu	a4,16(a0)
    2fcc:	bfe1                	j	2fa4 <USART_GetITStatus+0x14>
    2fce:	01455703          	lhu	a4,20(a0)
    2fd2:	bfc9                	j	2fa4 <USART_GetITStatus+0x14>

00002fd4 <USART_ClearITPendingBit>:
    2fd4:	81a1                	srli	a1,a1,0x8
    2fd6:	4785                	li	a5,1
    2fd8:	00b797b3          	sll	a5,a5,a1
    2fdc:	fff7c793          	not	a5,a5
    2fe0:	07c2                	slli	a5,a5,0x10
    2fe2:	83c1                	srli	a5,a5,0x10
    2fe4:	00f51023          	sh	a5,0(a0)
    2fe8:	8082                	ret

00002fea <USARTx_Init>:
    2fea:	7175                	addi	sp,sp,-144
    2fec:	4585                	li	a1,1
    2fee:	4511                	li	a0,4
    2ff0:	c706                	sw	ra,140(sp)
    2ff2:	c522                	sw	s0,136(sp)
    2ff4:	c326                	sw	s1,132(sp)
    2ff6:	c14a                	sw	s2,128(sp)
    2ff8:	dece                	sw	s3,124(sp)
    2ffa:	3d01                	jal	2e0a <RCC_APB2PeriphClockCmd>
    2ffc:	4585                	li	a1,1
    2ffe:	4521                	li	a0,8
    3000:	3529                	jal	2e0a <RCC_APB2PeriphClockCmd>
    3002:	4585                	li	a1,1
    3004:	4541                	li	a0,16
    3006:	3511                	jal	2e0a <RCC_APB2PeriphClockCmd>
    3008:	4585                	li	a1,1
    300a:	00060537          	lui	a0,0x60
    300e:	3d29                	jal	2e28 <RCC_APB1PeriphClockCmd>
    3010:	4585                	li	a1,1
    3012:	6511                	lui	a0,0x4
    3014:	3bdd                	jal	2e0a <RCC_APB2PeriphClockCmd>
    3016:	40011437          	lui	s0,0x40011
    301a:	490d                	li	s2,3
    301c:	20000793          	li	a5,512
    3020:	49e1                	li	s3,24
    3022:	086c                	addi	a1,sp,28
    3024:	80040513          	addi	a0,s0,-2048 # 40010800 <_eusrstack+0x20008800>
    3028:	00f11e23          	sh	a5,28(sp)
    302c:	d04a                	sw	s2,32(sp)
    302e:	d24e                	sw	s3,36(sp)
    3030:	b27ff0ef          	jal	ra,2b56 <GPIO_Init>
    3034:	4491                	li	s1,4
    3036:	40000793          	li	a5,1024
    303a:	086c                	addi	a1,sp,28
    303c:	80040513          	addi	a0,s0,-2048
    3040:	00f11e23          	sh	a5,28(sp)
    3044:	d226                	sw	s1,36(sp)
    3046:	b11ff0ef          	jal	ra,2b56 <GPIO_Init>
    304a:	102c                	addi	a1,sp,40
    304c:	80040513          	addi	a0,s0,-2048
    3050:	02911423          	sh	s1,40(sp)
    3054:	d64a                	sw	s2,44(sp)
    3056:	d84e                	sw	s3,48(sp)
    3058:	affff0ef          	jal	ra,2b56 <GPIO_Init>
    305c:	47a1                	li	a5,8
    305e:	102c                	addi	a1,sp,40
    3060:	80040513          	addi	a0,s0,-2048
    3064:	02f11423          	sh	a5,40(sp)
    3068:	d826                	sw	s1,48(sp)
    306a:	aedff0ef          	jal	ra,2b56 <GPIO_Init>
    306e:	6785                	lui	a5,0x1
    3070:	80078793          	addi	a5,a5,-2048 # 800 <__stack_size>
    3074:	184c                	addi	a1,sp,52
    3076:	c0040513          	addi	a0,s0,-1024
    307a:	02f11a23          	sh	a5,52(sp)
    307e:	dc4a                	sw	s2,56(sp)
    3080:	de26                	sw	s1,60(sp)
    3082:	40004937          	lui	s2,0x40004
    3086:	ad1ff0ef          	jal	ra,2b56 <GPIO_Init>
    308a:	6471                	lui	s0,0x1c
    308c:	20040413          	addi	s0,s0,512 # 1c200 <_data_lma+0x14740>
    3090:	000c04b7          	lui	s1,0xc0
    3094:	088c                	addi	a1,sp,80
    3096:	40090513          	addi	a0,s2,1024 # 40004400 <_eusrstack+0x1fffc400>
    309a:	400149b7          	lui	s3,0x40014
    309e:	c8a2                	sw	s0,80(sp)
    30a0:	cca6                	sw	s1,88(sp)
    30a2:	ca82                	sw	zero,84(sp)
    30a4:	04011e23          	sh	zero,92(sp)
    30a8:	3b79                	jal	2e46 <USART_Init>
    30aa:	008c                	addi	a1,sp,64
    30ac:	80098513          	addi	a0,s3,-2048 # 40013800 <_eusrstack+0x2000b800>
    30b0:	c0a2                	sw	s0,64(sp)
    30b2:	c4a6                	sw	s1,72(sp)
    30b4:	c282                	sw	zero,68(sp)
    30b6:	400054b7          	lui	s1,0x40005
    30ba:	04011623          	sh	zero,76(sp)
    30be:	3361                	jal	2e46 <USART_Init>
    30c0:	108c                	addi	a1,sp,96
    30c2:	000407b7          	lui	a5,0x40
    30c6:	80048513          	addi	a0,s1,-2048 # 40004800 <_eusrstack+0x1fffc800>
    30ca:	d0a2                	sw	s0,96(sp)
    30cc:	d4be                	sw	a5,104(sp)
    30ce:	d282                	sw	zero,100(sp)
    30d0:	06011623          	sh	zero,108(sp)
    30d4:	3b8d                	jal	2e46 <USART_Init>
    30d6:	13500793          	li	a5,309
    30da:	4405                	li	s0,1
    30dc:	00f11223          	sh	a5,4(sp)
    30e0:	0048                	addi	a0,sp,4
    30e2:	4785                	li	a5,1
    30e4:	00f10323          	sb	a5,6(sp)
    30e8:	c422                	sw	s0,8(sp)
    30ea:	b3dff0ef          	jal	ra,2c26 <NVIC_Init>
    30ee:	13600793          	li	a5,310
    30f2:	0068                	addi	a0,sp,12
    30f4:	00f11623          	sh	a5,12(sp)
    30f8:	00810723          	sb	s0,14(sp)
    30fc:	c822                	sw	s0,16(sp)
    30fe:	b29ff0ef          	jal	ra,2c26 <NVIC_Init>
    3102:	13700793          	li	a5,311
    3106:	0848                	addi	a0,sp,20
    3108:	00f11a23          	sh	a5,20(sp)
    310c:	00810b23          	sb	s0,22(sp)
    3110:	cc22                	sw	s0,24(sp)
    3112:	b15ff0ef          	jal	ra,2c26 <NVIC_Init>
    3116:	80098513          	addi	a0,s3,-2048
    311a:	4605                	li	a2,1
    311c:	52500593          	li	a1,1317
    3120:	3d29                	jal	2f3a <USART_ITConfig>
    3122:	40090513          	addi	a0,s2,1024
    3126:	4605                	li	a2,1
    3128:	52500593          	li	a1,1317
    312c:	3539                	jal	2f3a <USART_ITConfig>
    312e:	4605                	li	a2,1
    3130:	80048513          	addi	a0,s1,-2048
    3134:	52500593          	li	a1,1317
    3138:	3509                	jal	2f3a <USART_ITConfig>
    313a:	80098513          	addi	a0,s3,-2048
    313e:	4585                	li	a1,1
    3140:	3bf9                	jal	2f1e <USART_Cmd>
    3142:	40090513          	addi	a0,s2,1024
    3146:	4585                	li	a1,1
    3148:	3bd9                	jal	2f1e <USART_Cmd>
    314a:	80048513          	addi	a0,s1,-2048
    314e:	4585                	li	a1,1
    3150:	33f9                	jal	2f1e <USART_Cmd>
    3152:	40ba                	lw	ra,140(sp)
    3154:	442a                	lw	s0,136(sp)
    3156:	449a                	lw	s1,132(sp)
    3158:	490a                	lw	s2,128(sp)
    315a:	59f6                	lw	s3,124(sp)
    315c:	6149                	addi	sp,sp,144
    315e:	8082                	ret

00003160 <USARTx_SendByte>:
    3160:	1141                	addi	sp,sp,-16
    3162:	c422                	sw	s0,8(sp)
    3164:	c606                	sw	ra,12(sp)
    3166:	842a                	mv	s0,a0
    3168:	3521                	jal	2f70 <USART_SendData>
    316a:	08000593          	li	a1,128
    316e:	8522                	mv	a0,s0
    3170:	3d11                	jal	2f84 <USART_GetFlagStatus>
    3172:	dd65                	beqz	a0,316a <USARTx_SendByte+0xa>
    3174:	40b2                	lw	ra,12(sp)
    3176:	4422                	lw	s0,8(sp)
    3178:	0141                	addi	sp,sp,16
    317a:	8082                	ret

0000317c <USART1_IRQHandler>:
    317c:	1141                	addi	sp,sp,-16
    317e:	c622                	sw	s0,12(sp)
    3180:	40014437          	lui	s0,0x40014
    3184:	52500593          	li	a1,1317
    3188:	80040513          	addi	a0,s0,-2048 # 40013800 <_eusrstack+0x2000b800>
    318c:	c426                	sw	s1,8(sp)
    318e:	c24a                	sw	s2,4(sp)
    3190:	3501                	jal	2f90 <USART_GetITStatus>
    3192:	c155                	beqz	a0,3236 <USART1_IRQHandler+0xba>
    3194:	80040513          	addi	a0,s0,-2048
    3198:	33cd                	jal	2f7a <USART_ReceiveData>
    319a:	f9f50793          	addi	a5,a0,-97 # 3f9f <_vfiprintf_r+0xbd>
    319e:	01079713          	slli	a4,a5,0x10
    31a2:	8341                	srli	a4,a4,0x10
    31a4:	47d1                	li	a5,20
    31a6:	84aa                	mv	s1,a0
    31a8:	06e7ec63          	bltu	a5,a4,3220 <USART1_IRQHandler+0xa4>
    31ac:	001207b7          	lui	a5,0x120
    31b0:	07b5                	addi	a5,a5,13
    31b2:	00e7d7b3          	srl	a5,a5,a4
    31b6:	8b85                	andi	a5,a5,1
    31b8:	c7a5                	beqz	a5,3220 <USART1_IRQHandler+0xa4>
    31ba:	8231c703          	lbu	a4,-2013(gp) # 200000a3 <uart_cnt>
    31be:	47fd                	li	a5,31
    31c0:	82318413          	addi	s0,gp,-2013 # 200000a3 <uart_cnt>
    31c4:	00e7eb63          	bltu	a5,a4,31da <USART1_IRQHandler+0x5e>
    31c8:	00170793          	addi	a5,a4,1 # 2001 <LCD_Fast_DrawPoint+0x47>
    31cc:	00f40023          	sb	a5,0(s0)
    31d0:	83018793          	addi	a5,gp,-2000 # 200000b0 <uart_buf>
    31d4:	97ba                	add	a5,a5,a4
    31d6:	00a78023          	sb	a0,0(a5) # 120000 <_data_lma+0x118540>
    31da:	00044703          	lbu	a4,0(s0)
    31de:	4791                	li	a5,4
    31e0:	04e7f063          	bgeu	a5,a4,3220 <USART1_IRQHandler+0xa4>
    31e4:	000085b7          	lui	a1,0x8
    31e8:	4615                	li	a2,5
    31ea:	a0c58593          	addi	a1,a1,-1524 # 7a0c <asc2_3216+0x1818>
    31ee:	83018513          	addi	a0,gp,-2000 # 200000b0 <uart_buf>
    31f2:	2cd5                	jal	34e6 <memcmp>
    31f4:	e515                	bnez	a0,3220 <USART1_IRQHandler+0xa4>
    31f6:	6541                	lui	a0,0x10
    31f8:	80050513          	addi	a0,a0,-2048 # f800 <_data_lma+0x7d40>
    31fc:	eecfd0ef          	jal	ra,8e8 <LCD_Clear>
    3200:	83018793          	addi	a5,gp,-2000 # 200000b0 <uart_buf>
    3204:	02000713          	li	a4,32
    3208:	02000693          	li	a3,32
    320c:	07000613          	li	a2,112
    3210:	0aa00593          	li	a1,170
    3214:	0aa00513          	li	a0,170
    3218:	f85fe0ef          	jal	ra,219c <LCD_ShowString>
    321c:	00040023          	sb	zero,0(s0)
    3220:	40005437          	lui	s0,0x40005
    3224:	85a6                	mv	a1,s1
    3226:	80040513          	addi	a0,s0,-2048 # 40004800 <_eusrstack+0x1fffc800>
    322a:	3399                	jal	2f70 <USART_SendData>
    322c:	52500593          	li	a1,1317
    3230:	80040513          	addi	a0,s0,-2048
    3234:	3345                	jal	2fd4 <USART_ClearITPendingBit>
    3236:	4432                	lw	s0,12(sp)
    3238:	44a2                	lw	s1,8(sp)
    323a:	4912                	lw	s2,4(sp)
    323c:	0141                	addi	sp,sp,16
    323e:	30200073          	mret

00003242 <USART2_IRQHandler>:
    3242:	1141                	addi	sp,sp,-16
    3244:	c622                	sw	s0,12(sp)
    3246:	40004437          	lui	s0,0x40004
    324a:	52500593          	li	a1,1317
    324e:	40040513          	addi	a0,s0,1024 # 40004400 <_eusrstack+0x1fffc400>
    3252:	c426                	sw	s1,8(sp)
    3254:	c24a                	sw	s2,4(sp)
    3256:	c04e                	sw	s3,0(sp)
    3258:	3b25                	jal	2f90 <USART_GetITStatus>
    325a:	82018493          	addi	s1,gp,-2016 # 200000a0 <USART_Rbuffer_Num>
    325e:	c50d                	beqz	a0,3288 <USART2_IRQHandler+0x46>
    3260:	52500593          	li	a1,1317
    3264:	40040513          	addi	a0,s0,1024
    3268:	33b5                	jal	2fd4 <USART_ClearITPendingBit>
    326a:	40040513          	addi	a0,s0,1024
    326e:	3331                	jal	2f7a <USART_ReceiveData>
    3270:	0004c703          	lbu	a4,0(s1)
    3274:	200007b7          	lui	a5,0x20000
    3278:	0dc78793          	addi	a5,a5,220 # 200000dc <USART_Rbuffer>
    327c:	97ba                	add	a5,a5,a4
    327e:	0705                	addi	a4,a4,1
    3280:	00a78023          	sb	a0,0(a5)
    3284:	00e48023          	sb	a4,0(s1)
    3288:	00008537          	lui	a0,0x8
    328c:	a1450513          	addi	a0,a0,-1516 # 7a14 <asc2_3216+0x1820>
    3290:	20000937          	lui	s2,0x20000
    3294:	400049b7          	lui	s3,0x40004
    3298:	2679                	jal	3626 <puts>
    329a:	0dc90913          	addi	s2,s2,220 # 200000dc <USART_Rbuffer>
    329e:	820180a3          	sb	zero,-2015(gp) # 200000a1 <USART_Tbuffer_Num>
    32a2:	40098993          	addi	s3,s3,1024 # 40004400 <_eusrstack+0x1fffc400>
    32a6:	82118413          	addi	s0,gp,-2015 # 200000a1 <USART_Tbuffer_Num>
    32aa:	00044783          	lbu	a5,0(s0)
    32ae:	0004c703          	lbu	a4,0(s1)
    32b2:	00e7ed63          	bltu	a5,a4,32cc <USART2_IRQHandler+0x8a>
    32b6:	00040023          	sb	zero,0(s0)
    32ba:	4432                	lw	s0,12(sp)
    32bc:	00048023          	sb	zero,0(s1)
    32c0:	4912                	lw	s2,4(sp)
    32c2:	44a2                	lw	s1,8(sp)
    32c4:	4982                	lw	s3,0(sp)
    32c6:	0141                	addi	sp,sp,16
    32c8:	30200073          	mret
    32cc:	97ca                	add	a5,a5,s2
    32ce:	0007c583          	lbu	a1,0(a5)
    32d2:	854e                	mv	a0,s3
    32d4:	3571                	jal	3160 <USARTx_SendByte>
    32d6:	00044783          	lbu	a5,0(s0)
    32da:	0785                	addi	a5,a5,1
    32dc:	00f40023          	sb	a5,0(s0)
    32e0:	b7e9                	j	32aa <USART2_IRQHandler+0x68>

000032e2 <USART3_IRQHandler>:
    32e2:	1141                	addi	sp,sp,-16
    32e4:	c426                	sw	s1,8(sp)
    32e6:	400054b7          	lui	s1,0x40005
    32ea:	52500593          	li	a1,1317
    32ee:	80048513          	addi	a0,s1,-2048 # 40004800 <_eusrstack+0x1fffc800>
    32f2:	c622                	sw	s0,12(sp)
    32f4:	c9dff0ef          	jal	ra,2f90 <USART_GetITStatus>
    32f8:	c151                	beqz	a0,337c <USART3_IRQHandler+0x9a>
    32fa:	80048513          	addi	a0,s1,-2048
    32fe:	c7dff0ef          	jal	ra,2f7a <USART_ReceiveData>
    3302:	8231c703          	lbu	a4,-2013(gp) # 200000a3 <uart_cnt>
    3306:	47fd                	li	a5,31
    3308:	85aa                	mv	a1,a0
    330a:	82318413          	addi	s0,gp,-2013 # 200000a3 <uart_cnt>
    330e:	00e7ef63          	bltu	a5,a4,332c <USART3_IRQHandler+0x4a>
    3312:	00170793          	addi	a5,a4,1
    3316:	00f40023          	sb	a5,0(s0)
    331a:	83018793          	addi	a5,gp,-2000 # 200000b0 <uart_buf>
    331e:	97ba                	add	a5,a5,a4
    3320:	00a78023          	sb	a0,0(a5)
    3324:	80048513          	addi	a0,s1,-2048
    3328:	c49ff0ef          	jal	ra,2f70 <USART_SendData>
    332c:	00044703          	lbu	a4,0(s0)
    3330:	47d1                	li	a5,20
    3332:	02e7fd63          	bgeu	a5,a4,336c <USART3_IRQHandler+0x8a>
    3336:	457d                	li	a0,31
    3338:	db0fd0ef          	jal	ra,8e8 <LCD_Clear>
    333c:	6541                	lui	a0,0x10
    333e:	4705                	li	a4,1
    3340:	80050513          	addi	a0,a0,-2048 # f800 <_data_lma+0x7d40>
    3344:	82e18123          	sb	a4,-2014(gp) # 200000a2 <recv_ok>
    3348:	da0fd0ef          	jal	ra,8e8 <LCD_Clear>
    334c:	83018793          	addi	a5,gp,-2000 # 200000b0 <uart_buf>
    3350:	02000713          	li	a4,32
    3354:	02000693          	li	a3,32
    3358:	07000613          	li	a2,112
    335c:	0aa00593          	li	a1,170
    3360:	0aa00513          	li	a0,170
    3364:	e39fe0ef          	jal	ra,219c <LCD_ShowString>
    3368:	00040023          	sb	zero,0(s0)
    336c:	40005537          	lui	a0,0x40005
    3370:	52500593          	li	a1,1317
    3374:	80050513          	addi	a0,a0,-2048 # 40004800 <_eusrstack+0x1fffc800>
    3378:	c5dff0ef          	jal	ra,2fd4 <USART_ClearITPendingBit>
    337c:	4432                	lw	s0,12(sp)
    337e:	44a2                	lw	s1,8(sp)
    3380:	0141                	addi	sp,sp,16
    3382:	30200073          	mret

00003386 <Delay_Init>:
    3386:	200007b7          	lui	a5,0x20000
    338a:	0847a783          	lw	a5,132(a5) # 20000084 <SystemCoreClock>
    338e:	007a1737          	lui	a4,0x7a1
    3392:	20070713          	addi	a4,a4,512 # 7a1200 <_data_lma+0x799740>
    3396:	02e7d7b3          	divu	a5,a5,a4
    339a:	0ff7f793          	andi	a5,a5,255
    339e:	82f18323          	sb	a5,-2010(gp) # 200000a6 <p_us>
    33a2:	3e800713          	li	a4,1000
    33a6:	02e787b3          	mul	a5,a5,a4
    33aa:	82f19223          	sh	a5,-2012(gp) # 200000a4 <p_ms>
    33ae:	8082                	ret

000033b0 <Delay_Us>:
    33b0:	e000f7b7          	lui	a5,0xe000f
    33b4:	43d8                	lw	a4,4(a5)
    33b6:	4681                	li	a3,0
    33b8:	9b79                	andi	a4,a4,-2
    33ba:	c3d8                	sw	a4,4(a5)
    33bc:	8261c703          	lbu	a4,-2010(gp) # 200000a6 <p_us>
    33c0:	02a70633          	mul	a2,a4,a0
    33c4:	cb90                	sw	a2,16(a5)
    33c6:	cbd4                	sw	a3,20(a5)
    33c8:	4398                	lw	a4,0(a5)
    33ca:	03176713          	ori	a4,a4,49
    33ce:	c398                	sw	a4,0(a5)
    33d0:	43d8                	lw	a4,4(a5)
    33d2:	8b05                	andi	a4,a4,1
    33d4:	df75                	beqz	a4,33d0 <Delay_Us+0x20>
    33d6:	4398                	lw	a4,0(a5)
    33d8:	9b79                	andi	a4,a4,-2
    33da:	c398                	sw	a4,0(a5)
    33dc:	8082                	ret

000033de <Delay_Ms>:
    33de:	e000f7b7          	lui	a5,0xe000f
    33e2:	43d8                	lw	a4,4(a5)
    33e4:	4681                	li	a3,0
    33e6:	9b79                	andi	a4,a4,-2
    33e8:	c3d8                	sw	a4,4(a5)
    33ea:	8241d703          	lhu	a4,-2012(gp) # 200000a4 <p_ms>
    33ee:	02a70633          	mul	a2,a4,a0
    33f2:	cb90                	sw	a2,16(a5)
    33f4:	cbd4                	sw	a3,20(a5)
    33f6:	4398                	lw	a4,0(a5)
    33f8:	03176713          	ori	a4,a4,49
    33fc:	c398                	sw	a4,0(a5)
    33fe:	43d8                	lw	a4,4(a5)
    3400:	8b05                	andi	a4,a4,1
    3402:	df75                	beqz	a4,33fe <Delay_Ms+0x20>
    3404:	4398                	lw	a4,0(a5)
    3406:	9b79                	andi	a4,a4,-2
    3408:	c398                	sw	a4,0(a5)
    340a:	8082                	ret

0000340c <USART_Printf_Init>:
    340c:	7179                	addi	sp,sp,-48
    340e:	d422                	sw	s0,40(sp)
    3410:	4585                	li	a1,1
    3412:	842a                	mv	s0,a0
    3414:	00020537          	lui	a0,0x20
    3418:	d606                	sw	ra,44(sp)
    341a:	a0fff0ef          	jal	ra,2e28 <RCC_APB1PeriphClockCmd>
    341e:	4585                	li	a1,1
    3420:	4511                	li	a0,4
    3422:	9e9ff0ef          	jal	ra,2e0a <RCC_APB2PeriphClockCmd>
    3426:	4791                	li	a5,4
    3428:	00f11223          	sh	a5,4(sp)
    342c:	40011537          	lui	a0,0x40011
    3430:	478d                	li	a5,3
    3432:	c43e                	sw	a5,8(sp)
    3434:	004c                	addi	a1,sp,4
    3436:	47e1                	li	a5,24
    3438:	80050513          	addi	a0,a0,-2048 # 40010800 <_eusrstack+0x20008800>
    343c:	c63e                	sw	a5,12(sp)
    343e:	f18ff0ef          	jal	ra,2b56 <GPIO_Init>
    3442:	c822                	sw	s0,16(sp)
    3444:	40004437          	lui	s0,0x40004
    3448:	000807b7          	lui	a5,0x80
    344c:	080c                	addi	a1,sp,16
    344e:	40040513          	addi	a0,s0,1024 # 40004400 <_eusrstack+0x1fffc400>
    3452:	cc3e                	sw	a5,24(sp)
    3454:	ca02                	sw	zero,20(sp)
    3456:	00011e23          	sh	zero,28(sp)
    345a:	9edff0ef          	jal	ra,2e46 <USART_Init>
    345e:	40040513          	addi	a0,s0,1024
    3462:	4585                	li	a1,1
    3464:	abbff0ef          	jal	ra,2f1e <USART_Cmd>
    3468:	50b2                	lw	ra,44(sp)
    346a:	5422                	lw	s0,40(sp)
    346c:	6145                	addi	sp,sp,48
    346e:	8082                	ret

00003470 <_write>:
    3470:	1101                	addi	sp,sp,-32
    3472:	ca26                	sw	s1,20(sp)
    3474:	400044b7          	lui	s1,0x40004
    3478:	cc22                	sw	s0,24(sp)
    347a:	c84a                	sw	s2,16(sp)
    347c:	c64e                	sw	s3,12(sp)
    347e:	ce06                	sw	ra,28(sp)
    3480:	89ae                	mv	s3,a1
    3482:	8932                	mv	s2,a2
    3484:	4401                	li	s0,0
    3486:	40048493          	addi	s1,s1,1024 # 40004400 <_eusrstack+0x1fffc400>
    348a:	01244a63          	blt	s0,s2,349e <_write+0x2e>
    348e:	40f2                	lw	ra,28(sp)
    3490:	4462                	lw	s0,24(sp)
    3492:	854a                	mv	a0,s2
    3494:	44d2                	lw	s1,20(sp)
    3496:	4942                	lw	s2,16(sp)
    3498:	49b2                	lw	s3,12(sp)
    349a:	6105                	addi	sp,sp,32
    349c:	8082                	ret
    349e:	04000593          	li	a1,64
    34a2:	8526                	mv	a0,s1
    34a4:	ae1ff0ef          	jal	ra,2f84 <USART_GetFlagStatus>
    34a8:	d97d                	beqz	a0,349e <_write+0x2e>
    34aa:	008987b3          	add	a5,s3,s0
    34ae:	00078583          	lb	a1,0(a5) # 80000 <_data_lma+0x78540>
    34b2:	8526                	mv	a0,s1
    34b4:	0405                	addi	s0,s0,1
    34b6:	05c2                	slli	a1,a1,0x10
    34b8:	81c1                	srli	a1,a1,0x10
    34ba:	ab7ff0ef          	jal	ra,2f70 <USART_SendData>
    34be:	b7f1                	j	348a <_write+0x1a>

000034c0 <_sbrk>:
    34c0:	80c18713          	addi	a4,gp,-2036 # 2000008c <curbrk.5226>
    34c4:	431c                	lw	a5,0(a4)
    34c6:	c7418693          	addi	a3,gp,-908 # 200004f4 <_ebss>
    34ca:	953e                	add	a0,a0,a5
    34cc:	00d56b63          	bltu	a0,a3,34e2 <_sbrk+0x22>
    34d0:	200086b7          	lui	a3,0x20008
    34d4:	80068693          	addi	a3,a3,-2048 # 20007800 <_heap_end>
    34d8:	00a6e563          	bltu	a3,a0,34e2 <_sbrk+0x22>
    34dc:	c308                	sw	a0,0(a4)
    34de:	853e                	mv	a0,a5
    34e0:	8082                	ret
    34e2:	57fd                	li	a5,-1
    34e4:	bfed                	j	34de <_sbrk+0x1e>

000034e6 <memcmp>:
    34e6:	4701                	li	a4,0
    34e8:	00e61463          	bne	a2,a4,34f0 <memcmp+0xa>
    34ec:	4501                	li	a0,0
    34ee:	8082                	ret
    34f0:	00e507b3          	add	a5,a0,a4
    34f4:	0705                	addi	a4,a4,1
    34f6:	00e586b3          	add	a3,a1,a4
    34fa:	0007c783          	lbu	a5,0(a5)
    34fe:	fff6c683          	lbu	a3,-1(a3)
    3502:	fed783e3          	beq	a5,a3,34e8 <memcmp+0x2>
    3506:	40d78533          	sub	a0,a5,a3
    350a:	8082                	ret

0000350c <iprintf>:
    350c:	7139                	addi	sp,sp,-64
    350e:	da3e                	sw	a5,52(sp)
    3510:	d22e                	sw	a1,36(sp)
    3512:	d432                	sw	a2,40(sp)
    3514:	d636                	sw	a3,44(sp)
    3516:	d83a                	sw	a4,48(sp)
    3518:	dc42                	sw	a6,56(sp)
    351a:	de46                	sw	a7,60(sp)
    351c:	81018793          	addi	a5,gp,-2032 # 20000090 <_impure_ptr>
    3520:	cc22                	sw	s0,24(sp)
    3522:	4380                	lw	s0,0(a5)
    3524:	ca26                	sw	s1,20(sp)
    3526:	ce06                	sw	ra,28(sp)
    3528:	84aa                	mv	s1,a0
    352a:	c409                	beqz	s0,3534 <iprintf+0x28>
    352c:	4c1c                	lw	a5,24(s0)
    352e:	e399                	bnez	a5,3534 <iprintf+0x28>
    3530:	8522                	mv	a0,s0
    3532:	238d                	jal	3a94 <__sinit>
    3534:	440c                	lw	a1,8(s0)
    3536:	1054                	addi	a3,sp,36
    3538:	8626                	mv	a2,s1
    353a:	8522                	mv	a0,s0
    353c:	c636                	sw	a3,12(sp)
    353e:	1a5000ef          	jal	ra,3ee2 <_vfiprintf_r>
    3542:	40f2                	lw	ra,28(sp)
    3544:	4462                	lw	s0,24(sp)
    3546:	44d2                	lw	s1,20(sp)
    3548:	6121                	addi	sp,sp,64
    354a:	8082                	ret

0000354c <_puts_r>:
    354c:	1101                	addi	sp,sp,-32
    354e:	ca26                	sw	s1,20(sp)
    3550:	c84a                	sw	s2,16(sp)
    3552:	ce06                	sw	ra,28(sp)
    3554:	cc22                	sw	s0,24(sp)
    3556:	c64e                	sw	s3,12(sp)
    3558:	c452                	sw	s4,8(sp)
    355a:	84aa                	mv	s1,a0
    355c:	892e                	mv	s2,a1
    355e:	c501                	beqz	a0,3566 <_puts_r+0x1a>
    3560:	4d1c                	lw	a5,24(a0)
    3562:	e391                	bnez	a5,3566 <_puts_r+0x1a>
    3564:	2b05                	jal	3a94 <__sinit>
    3566:	4c9c                	lw	a5,24(s1)
    3568:	4480                	lw	s0,8(s1)
    356a:	e399                	bnez	a5,3570 <_puts_r+0x24>
    356c:	8526                	mv	a0,s1
    356e:	231d                	jal	3a94 <__sinit>
    3570:	00004797          	auipc	a5,0x4
    3574:	4d478793          	addi	a5,a5,1236 # 7a44 <__sf_fake_stdin>
    3578:	02f41c63          	bne	s0,a5,35b0 <_puts_r+0x64>
    357c:	40c0                	lw	s0,4(s1)
    357e:	00c45783          	lhu	a5,12(s0)
    3582:	8ba1                	andi	a5,a5,8
    3584:	c7b1                	beqz	a5,35d0 <_puts_r+0x84>
    3586:	481c                	lw	a5,16(s0)
    3588:	c7a1                	beqz	a5,35d0 <_puts_r+0x84>
    358a:	59fd                	li	s3,-1
    358c:	4a29                	li	s4,10
    358e:	441c                	lw	a5,8(s0)
    3590:	00094583          	lbu	a1,0(s2)
    3594:	17fd                	addi	a5,a5,-1
    3596:	e9b1                	bnez	a1,35ea <_puts_r+0x9e>
    3598:	c41c                	sw	a5,8(s0)
    359a:	0607de63          	bgez	a5,3616 <_puts_r+0xca>
    359e:	8622                	mv	a2,s0
    35a0:	45a9                	li	a1,10
    35a2:	8526                	mv	a0,s1
    35a4:	20e9                	jal	366e <__swbuf_r>
    35a6:	57fd                	li	a5,-1
    35a8:	02f50863          	beq	a0,a5,35d8 <_puts_r+0x8c>
    35ac:	4529                	li	a0,10
    35ae:	a035                	j	35da <_puts_r+0x8e>
    35b0:	00004797          	auipc	a5,0x4
    35b4:	4b478793          	addi	a5,a5,1204 # 7a64 <__sf_fake_stdout>
    35b8:	00f41463          	bne	s0,a5,35c0 <_puts_r+0x74>
    35bc:	4480                	lw	s0,8(s1)
    35be:	b7c1                	j	357e <_puts_r+0x32>
    35c0:	00004797          	auipc	a5,0x4
    35c4:	46478793          	addi	a5,a5,1124 # 7a24 <__sf_fake_stderr>
    35c8:	faf41be3          	bne	s0,a5,357e <_puts_r+0x32>
    35cc:	44c0                	lw	s0,12(s1)
    35ce:	bf45                	j	357e <_puts_r+0x32>
    35d0:	85a2                	mv	a1,s0
    35d2:	8526                	mv	a0,s1
    35d4:	2aa9                	jal	372e <__swsetup_r>
    35d6:	d955                	beqz	a0,358a <_puts_r+0x3e>
    35d8:	557d                	li	a0,-1
    35da:	40f2                	lw	ra,28(sp)
    35dc:	4462                	lw	s0,24(sp)
    35de:	44d2                	lw	s1,20(sp)
    35e0:	4942                	lw	s2,16(sp)
    35e2:	49b2                	lw	s3,12(sp)
    35e4:	4a22                	lw	s4,8(sp)
    35e6:	6105                	addi	sp,sp,32
    35e8:	8082                	ret
    35ea:	c41c                	sw	a5,8(s0)
    35ec:	0905                	addi	s2,s2,1
    35ee:	0007d763          	bgez	a5,35fc <_puts_r+0xb0>
    35f2:	4c18                	lw	a4,24(s0)
    35f4:	00e7cb63          	blt	a5,a4,360a <_puts_r+0xbe>
    35f8:	01458963          	beq	a1,s4,360a <_puts_r+0xbe>
    35fc:	401c                	lw	a5,0(s0)
    35fe:	00178713          	addi	a4,a5,1
    3602:	c018                	sw	a4,0(s0)
    3604:	00b78023          	sb	a1,0(a5)
    3608:	b759                	j	358e <_puts_r+0x42>
    360a:	8622                	mv	a2,s0
    360c:	8526                	mv	a0,s1
    360e:	2085                	jal	366e <__swbuf_r>
    3610:	f7351fe3          	bne	a0,s3,358e <_puts_r+0x42>
    3614:	b7d1                	j	35d8 <_puts_r+0x8c>
    3616:	401c                	lw	a5,0(s0)
    3618:	00178713          	addi	a4,a5,1
    361c:	c018                	sw	a4,0(s0)
    361e:	4729                	li	a4,10
    3620:	00e78023          	sb	a4,0(a5)
    3624:	b761                	j	35ac <_puts_r+0x60>

00003626 <puts>:
    3626:	81018793          	addi	a5,gp,-2032 # 20000090 <_impure_ptr>
    362a:	85aa                	mv	a1,a0
    362c:	4388                	lw	a0,0(a5)
    362e:	bf39                	j	354c <_puts_r>

00003630 <strstr>:
    3630:	00054703          	lbu	a4,0(a0)
    3634:	0005c783          	lbu	a5,0(a1)
    3638:	e701                	bnez	a4,3640 <strstr+0x10>
    363a:	c391                	beqz	a5,363e <strstr+0xe>
    363c:	4501                	li	a0,0
    363e:	8082                	ret
    3640:	4781                	li	a5,0
    3642:	a801                	j	3652 <strstr+0x22>
    3644:	00154783          	lbu	a5,1(a0)
    3648:	00150713          	addi	a4,a0,1
    364c:	dbe5                	beqz	a5,363c <strstr+0xc>
    364e:	4781                	li	a5,0
    3650:	853a                	mv	a0,a4
    3652:	00f58733          	add	a4,a1,a5
    3656:	00074703          	lbu	a4,0(a4)
    365a:	d375                	beqz	a4,363e <strstr+0xe>
    365c:	00f506b3          	add	a3,a0,a5
    3660:	0006c683          	lbu	a3,0(a3)
    3664:	fee690e3          	bne	a3,a4,3644 <strstr+0x14>
    3668:	0785                	addi	a5,a5,1
    366a:	872a                	mv	a4,a0
    366c:	b7d5                	j	3650 <strstr+0x20>

0000366e <__swbuf_r>:
    366e:	1101                	addi	sp,sp,-32
    3670:	cc22                	sw	s0,24(sp)
    3672:	ca26                	sw	s1,20(sp)
    3674:	c84a                	sw	s2,16(sp)
    3676:	ce06                	sw	ra,28(sp)
    3678:	c64e                	sw	s3,12(sp)
    367a:	84aa                	mv	s1,a0
    367c:	892e                	mv	s2,a1
    367e:	8432                	mv	s0,a2
    3680:	c501                	beqz	a0,3688 <__swbuf_r+0x1a>
    3682:	4d1c                	lw	a5,24(a0)
    3684:	e391                	bnez	a5,3688 <__swbuf_r+0x1a>
    3686:	2139                	jal	3a94 <__sinit>
    3688:	00004797          	auipc	a5,0x4
    368c:	3bc78793          	addi	a5,a5,956 # 7a44 <__sf_fake_stdin>
    3690:	06f41963          	bne	s0,a5,3702 <__swbuf_r+0x94>
    3694:	40c0                	lw	s0,4(s1)
    3696:	4c1c                	lw	a5,24(s0)
    3698:	c41c                	sw	a5,8(s0)
    369a:	00c45783          	lhu	a5,12(s0)
    369e:	8ba1                	andi	a5,a5,8
    36a0:	c3c9                	beqz	a5,3722 <__swbuf_r+0xb4>
    36a2:	481c                	lw	a5,16(s0)
    36a4:	cfbd                	beqz	a5,3722 <__swbuf_r+0xb4>
    36a6:	481c                	lw	a5,16(s0)
    36a8:	4008                	lw	a0,0(s0)
    36aa:	0ff97993          	andi	s3,s2,255
    36ae:	0ff97913          	andi	s2,s2,255
    36b2:	8d1d                	sub	a0,a0,a5
    36b4:	485c                	lw	a5,20(s0)
    36b6:	00f54663          	blt	a0,a5,36c2 <__swbuf_r+0x54>
    36ba:	85a2                	mv	a1,s0
    36bc:	8526                	mv	a0,s1
    36be:	2c65                	jal	3976 <_fflush_r>
    36c0:	e52d                	bnez	a0,372a <__swbuf_r+0xbc>
    36c2:	441c                	lw	a5,8(s0)
    36c4:	0505                	addi	a0,a0,1
    36c6:	17fd                	addi	a5,a5,-1
    36c8:	c41c                	sw	a5,8(s0)
    36ca:	401c                	lw	a5,0(s0)
    36cc:	00178713          	addi	a4,a5,1
    36d0:	c018                	sw	a4,0(s0)
    36d2:	01378023          	sb	s3,0(a5)
    36d6:	485c                	lw	a5,20(s0)
    36d8:	00a78963          	beq	a5,a0,36ea <__swbuf_r+0x7c>
    36dc:	00c45783          	lhu	a5,12(s0)
    36e0:	8b85                	andi	a5,a5,1
    36e2:	cb81                	beqz	a5,36f2 <__swbuf_r+0x84>
    36e4:	47a9                	li	a5,10
    36e6:	00f91663          	bne	s2,a5,36f2 <__swbuf_r+0x84>
    36ea:	85a2                	mv	a1,s0
    36ec:	8526                	mv	a0,s1
    36ee:	2461                	jal	3976 <_fflush_r>
    36f0:	ed0d                	bnez	a0,372a <__swbuf_r+0xbc>
    36f2:	40f2                	lw	ra,28(sp)
    36f4:	4462                	lw	s0,24(sp)
    36f6:	854a                	mv	a0,s2
    36f8:	44d2                	lw	s1,20(sp)
    36fa:	4942                	lw	s2,16(sp)
    36fc:	49b2                	lw	s3,12(sp)
    36fe:	6105                	addi	sp,sp,32
    3700:	8082                	ret
    3702:	00004797          	auipc	a5,0x4
    3706:	36278793          	addi	a5,a5,866 # 7a64 <__sf_fake_stdout>
    370a:	00f41463          	bne	s0,a5,3712 <__swbuf_r+0xa4>
    370e:	4480                	lw	s0,8(s1)
    3710:	b759                	j	3696 <__swbuf_r+0x28>
    3712:	00004797          	auipc	a5,0x4
    3716:	31278793          	addi	a5,a5,786 # 7a24 <__sf_fake_stderr>
    371a:	f6f41ee3          	bne	s0,a5,3696 <__swbuf_r+0x28>
    371e:	44c0                	lw	s0,12(s1)
    3720:	bf9d                	j	3696 <__swbuf_r+0x28>
    3722:	85a2                	mv	a1,s0
    3724:	8526                	mv	a0,s1
    3726:	2021                	jal	372e <__swsetup_r>
    3728:	dd3d                	beqz	a0,36a6 <__swbuf_r+0x38>
    372a:	597d                	li	s2,-1
    372c:	b7d9                	j	36f2 <__swbuf_r+0x84>

0000372e <__swsetup_r>:
    372e:	1141                	addi	sp,sp,-16
    3730:	81018793          	addi	a5,gp,-2032 # 20000090 <_impure_ptr>
    3734:	c226                	sw	s1,4(sp)
    3736:	4384                	lw	s1,0(a5)
    3738:	c422                	sw	s0,8(sp)
    373a:	c04a                	sw	s2,0(sp)
    373c:	c606                	sw	ra,12(sp)
    373e:	892a                	mv	s2,a0
    3740:	842e                	mv	s0,a1
    3742:	c489                	beqz	s1,374c <__swsetup_r+0x1e>
    3744:	4c9c                	lw	a5,24(s1)
    3746:	e399                	bnez	a5,374c <__swsetup_r+0x1e>
    3748:	8526                	mv	a0,s1
    374a:	26a9                	jal	3a94 <__sinit>
    374c:	00004797          	auipc	a5,0x4
    3750:	2f878793          	addi	a5,a5,760 # 7a44 <__sf_fake_stdin>
    3754:	02f41c63          	bne	s0,a5,378c <__swsetup_r+0x5e>
    3758:	40c0                	lw	s0,4(s1)
    375a:	00c41703          	lh	a4,12(s0)
    375e:	01071793          	slli	a5,a4,0x10
    3762:	83c1                	srli	a5,a5,0x10
    3764:	0087f693          	andi	a3,a5,8
    3768:	eeb5                	bnez	a3,37e4 <__swsetup_r+0xb6>
    376a:	0107f693          	andi	a3,a5,16
    376e:	ee9d                	bnez	a3,37ac <__swsetup_r+0x7e>
    3770:	47a5                	li	a5,9
    3772:	00f92023          	sw	a5,0(s2)
    3776:	04076713          	ori	a4,a4,64
    377a:	00e41623          	sh	a4,12(s0)
    377e:	557d                	li	a0,-1
    3780:	40b2                	lw	ra,12(sp)
    3782:	4422                	lw	s0,8(sp)
    3784:	4492                	lw	s1,4(sp)
    3786:	4902                	lw	s2,0(sp)
    3788:	0141                	addi	sp,sp,16
    378a:	8082                	ret
    378c:	00004797          	auipc	a5,0x4
    3790:	2d878793          	addi	a5,a5,728 # 7a64 <__sf_fake_stdout>
    3794:	00f41463          	bne	s0,a5,379c <__swsetup_r+0x6e>
    3798:	4480                	lw	s0,8(s1)
    379a:	b7c1                	j	375a <__swsetup_r+0x2c>
    379c:	00004797          	auipc	a5,0x4
    37a0:	28878793          	addi	a5,a5,648 # 7a24 <__sf_fake_stderr>
    37a4:	faf41be3          	bne	s0,a5,375a <__swsetup_r+0x2c>
    37a8:	44c0                	lw	s0,12(s1)
    37aa:	bf45                	j	375a <__swsetup_r+0x2c>
    37ac:	8b91                	andi	a5,a5,4
    37ae:	c78d                	beqz	a5,37d8 <__swsetup_r+0xaa>
    37b0:	584c                	lw	a1,52(s0)
    37b2:	c989                	beqz	a1,37c4 <__swsetup_r+0x96>
    37b4:	04440793          	addi	a5,s0,68
    37b8:	00f58463          	beq	a1,a5,37c0 <__swsetup_r+0x92>
    37bc:	854a                	mv	a0,s2
    37be:	2b35                	jal	3cfa <_free_r>
    37c0:	02042a23          	sw	zero,52(s0)
    37c4:	00c45783          	lhu	a5,12(s0)
    37c8:	00042223          	sw	zero,4(s0)
    37cc:	fdb7f793          	andi	a5,a5,-37
    37d0:	00f41623          	sh	a5,12(s0)
    37d4:	481c                	lw	a5,16(s0)
    37d6:	c01c                	sw	a5,0(s0)
    37d8:	00c45783          	lhu	a5,12(s0)
    37dc:	0087e793          	ori	a5,a5,8
    37e0:	00f41623          	sh	a5,12(s0)
    37e4:	481c                	lw	a5,16(s0)
    37e6:	ef81                	bnez	a5,37fe <__swsetup_r+0xd0>
    37e8:	00c45783          	lhu	a5,12(s0)
    37ec:	20000713          	li	a4,512
    37f0:	2807f793          	andi	a5,a5,640
    37f4:	00e78563          	beq	a5,a4,37fe <__swsetup_r+0xd0>
    37f8:	85a2                	mv	a1,s0
    37fa:	854a                	mv	a0,s2
    37fc:	2185                	jal	3c5c <__smakebuf_r>
    37fe:	00c45783          	lhu	a5,12(s0)
    3802:	0017f713          	andi	a4,a5,1
    3806:	c705                	beqz	a4,382e <__swsetup_r+0x100>
    3808:	485c                	lw	a5,20(s0)
    380a:	00042423          	sw	zero,8(s0)
    380e:	40f007b3          	neg	a5,a5
    3812:	cc1c                	sw	a5,24(s0)
    3814:	481c                	lw	a5,16(s0)
    3816:	4501                	li	a0,0
    3818:	f7a5                	bnez	a5,3780 <__swsetup_r+0x52>
    381a:	00c41783          	lh	a5,12(s0)
    381e:	0807f713          	andi	a4,a5,128
    3822:	df39                	beqz	a4,3780 <__swsetup_r+0x52>
    3824:	0407e793          	ori	a5,a5,64
    3828:	00f41623          	sh	a5,12(s0)
    382c:	bf89                	j	377e <__swsetup_r+0x50>
    382e:	8b89                	andi	a5,a5,2
    3830:	4701                	li	a4,0
    3832:	e391                	bnez	a5,3836 <__swsetup_r+0x108>
    3834:	4858                	lw	a4,20(s0)
    3836:	c418                	sw	a4,8(s0)
    3838:	bff1                	j	3814 <__swsetup_r+0xe6>

0000383a <__sflush_r>:
    383a:	00c5d783          	lhu	a5,12(a1)
    383e:	1101                	addi	sp,sp,-32
    3840:	cc22                	sw	s0,24(sp)
    3842:	ca26                	sw	s1,20(sp)
    3844:	ce06                	sw	ra,28(sp)
    3846:	c84a                	sw	s2,16(sp)
    3848:	c64e                	sw	s3,12(sp)
    384a:	0087f713          	andi	a4,a5,8
    384e:	84aa                	mv	s1,a0
    3850:	842e                	mv	s0,a1
    3852:	ef71                	bnez	a4,392e <__sflush_r+0xf4>
    3854:	41d8                	lw	a4,4(a1)
    3856:	00e04d63          	bgtz	a4,3870 <__sflush_r+0x36>
    385a:	41b8                	lw	a4,64(a1)
    385c:	00e04a63          	bgtz	a4,3870 <__sflush_r+0x36>
    3860:	4501                	li	a0,0
    3862:	40f2                	lw	ra,28(sp)
    3864:	4462                	lw	s0,24(sp)
    3866:	44d2                	lw	s1,20(sp)
    3868:	4942                	lw	s2,16(sp)
    386a:	49b2                	lw	s3,12(sp)
    386c:	6105                	addi	sp,sp,32
    386e:	8082                	ret
    3870:	5458                	lw	a4,44(s0)
    3872:	d77d                	beqz	a4,3860 <__sflush_r+0x26>
    3874:	0004a903          	lw	s2,0(s1)
    3878:	01379693          	slli	a3,a5,0x13
    387c:	0004a023          	sw	zero,0(s1)
    3880:	0606dd63          	bgez	a3,38fa <__sflush_r+0xc0>
    3884:	4870                	lw	a2,84(s0)
    3886:	00c45783          	lhu	a5,12(s0)
    388a:	8b91                	andi	a5,a5,4
    388c:	c799                	beqz	a5,389a <__sflush_r+0x60>
    388e:	405c                	lw	a5,4(s0)
    3890:	8e1d                	sub	a2,a2,a5
    3892:	585c                	lw	a5,52(s0)
    3894:	c399                	beqz	a5,389a <__sflush_r+0x60>
    3896:	403c                	lw	a5,64(s0)
    3898:	8e1d                	sub	a2,a2,a5
    389a:	545c                	lw	a5,44(s0)
    389c:	500c                	lw	a1,32(s0)
    389e:	4681                	li	a3,0
    38a0:	8526                	mv	a0,s1
    38a2:	9782                	jalr	a5
    38a4:	57fd                	li	a5,-1
    38a6:	00c45703          	lhu	a4,12(s0)
    38aa:	00f51d63          	bne	a0,a5,38c4 <__sflush_r+0x8a>
    38ae:	4094                	lw	a3,0(s1)
    38b0:	47f5                	li	a5,29
    38b2:	06d7e863          	bltu	a5,a3,3922 <__sflush_r+0xe8>
    38b6:	204007b7          	lui	a5,0x20400
    38ba:	0785                	addi	a5,a5,1
    38bc:	00d7d7b3          	srl	a5,a5,a3
    38c0:	8b85                	andi	a5,a5,1
    38c2:	c3a5                	beqz	a5,3922 <__sflush_r+0xe8>
    38c4:	481c                	lw	a5,16(s0)
    38c6:	00042223          	sw	zero,4(s0)
    38ca:	c01c                	sw	a5,0(s0)
    38cc:	01371793          	slli	a5,a4,0x13
    38d0:	0007d863          	bgez	a5,38e0 <__sflush_r+0xa6>
    38d4:	57fd                	li	a5,-1
    38d6:	00f51463          	bne	a0,a5,38de <__sflush_r+0xa4>
    38da:	409c                	lw	a5,0(s1)
    38dc:	e391                	bnez	a5,38e0 <__sflush_r+0xa6>
    38de:	c868                	sw	a0,84(s0)
    38e0:	584c                	lw	a1,52(s0)
    38e2:	0124a023          	sw	s2,0(s1)
    38e6:	ddad                	beqz	a1,3860 <__sflush_r+0x26>
    38e8:	04440793          	addi	a5,s0,68
    38ec:	00f58463          	beq	a1,a5,38f4 <__sflush_r+0xba>
    38f0:	8526                	mv	a0,s1
    38f2:	2121                	jal	3cfa <_free_r>
    38f4:	02042a23          	sw	zero,52(s0)
    38f8:	b7a5                	j	3860 <__sflush_r+0x26>
    38fa:	500c                	lw	a1,32(s0)
    38fc:	4601                	li	a2,0
    38fe:	4685                	li	a3,1
    3900:	8526                	mv	a0,s1
    3902:	9702                	jalr	a4
    3904:	57fd                	li	a5,-1
    3906:	862a                	mv	a2,a0
    3908:	f6f51fe3          	bne	a0,a5,3886 <__sflush_r+0x4c>
    390c:	409c                	lw	a5,0(s1)
    390e:	dfa5                	beqz	a5,3886 <__sflush_r+0x4c>
    3910:	4775                	li	a4,29
    3912:	00e78563          	beq	a5,a4,391c <__sflush_r+0xe2>
    3916:	4759                	li	a4,22
    3918:	04e79463          	bne	a5,a4,3960 <__sflush_r+0x126>
    391c:	0124a023          	sw	s2,0(s1)
    3920:	b781                	j	3860 <__sflush_r+0x26>
    3922:	04076713          	ori	a4,a4,64
    3926:	00e41623          	sh	a4,12(s0)
    392a:	557d                	li	a0,-1
    392c:	bf1d                	j	3862 <__sflush_r+0x28>
    392e:	0105a983          	lw	s3,16(a1)
    3932:	f20987e3          	beqz	s3,3860 <__sflush_r+0x26>
    3936:	0005a903          	lw	s2,0(a1)
    393a:	8b8d                	andi	a5,a5,3
    393c:	0135a023          	sw	s3,0(a1)
    3940:	41390933          	sub	s2,s2,s3
    3944:	4701                	li	a4,0
    3946:	e391                	bnez	a5,394a <__sflush_r+0x110>
    3948:	49d8                	lw	a4,20(a1)
    394a:	c418                	sw	a4,8(s0)
    394c:	f1205ae3          	blez	s2,3860 <__sflush_r+0x26>
    3950:	541c                	lw	a5,40(s0)
    3952:	500c                	lw	a1,32(s0)
    3954:	86ca                	mv	a3,s2
    3956:	864e                	mv	a2,s3
    3958:	8526                	mv	a0,s1
    395a:	9782                	jalr	a5
    395c:	00a04963          	bgtz	a0,396e <__sflush_r+0x134>
    3960:	00c45783          	lhu	a5,12(s0)
    3964:	0407e793          	ori	a5,a5,64
    3968:	00f41623          	sh	a5,12(s0)
    396c:	bf7d                	j	392a <__sflush_r+0xf0>
    396e:	99aa                	add	s3,s3,a0
    3970:	40a90933          	sub	s2,s2,a0
    3974:	bfe1                	j	394c <__sflush_r+0x112>

00003976 <_fflush_r>:
    3976:	499c                	lw	a5,16(a1)
    3978:	cfb9                	beqz	a5,39d6 <_fflush_r+0x60>
    397a:	1101                	addi	sp,sp,-32
    397c:	cc22                	sw	s0,24(sp)
    397e:	ce06                	sw	ra,28(sp)
    3980:	842a                	mv	s0,a0
    3982:	c511                	beqz	a0,398e <_fflush_r+0x18>
    3984:	4d1c                	lw	a5,24(a0)
    3986:	e781                	bnez	a5,398e <_fflush_r+0x18>
    3988:	c62e                	sw	a1,12(sp)
    398a:	2229                	jal	3a94 <__sinit>
    398c:	45b2                	lw	a1,12(sp)
    398e:	00004797          	auipc	a5,0x4
    3992:	0b678793          	addi	a5,a5,182 # 7a44 <__sf_fake_stdin>
    3996:	00f59b63          	bne	a1,a5,39ac <_fflush_r+0x36>
    399a:	404c                	lw	a1,4(s0)
    399c:	00c59783          	lh	a5,12(a1)
    39a0:	c795                	beqz	a5,39cc <_fflush_r+0x56>
    39a2:	8522                	mv	a0,s0
    39a4:	4462                	lw	s0,24(sp)
    39a6:	40f2                	lw	ra,28(sp)
    39a8:	6105                	addi	sp,sp,32
    39aa:	bd41                	j	383a <__sflush_r>
    39ac:	00004797          	auipc	a5,0x4
    39b0:	0b878793          	addi	a5,a5,184 # 7a64 <__sf_fake_stdout>
    39b4:	00f59463          	bne	a1,a5,39bc <_fflush_r+0x46>
    39b8:	440c                	lw	a1,8(s0)
    39ba:	b7cd                	j	399c <_fflush_r+0x26>
    39bc:	00004797          	auipc	a5,0x4
    39c0:	06878793          	addi	a5,a5,104 # 7a24 <__sf_fake_stderr>
    39c4:	fcf59ce3          	bne	a1,a5,399c <_fflush_r+0x26>
    39c8:	444c                	lw	a1,12(s0)
    39ca:	bfc9                	j	399c <_fflush_r+0x26>
    39cc:	40f2                	lw	ra,28(sp)
    39ce:	4462                	lw	s0,24(sp)
    39d0:	4501                	li	a0,0
    39d2:	6105                	addi	sp,sp,32
    39d4:	8082                	ret
    39d6:	4501                	li	a0,0
    39d8:	8082                	ret

000039da <std>:
    39da:	1141                	addi	sp,sp,-16
    39dc:	c422                	sw	s0,8(sp)
    39de:	c606                	sw	ra,12(sp)
    39e0:	842a                	mv	s0,a0
    39e2:	00b51623          	sh	a1,12(a0)
    39e6:	00c51723          	sh	a2,14(a0)
    39ea:	00052023          	sw	zero,0(a0)
    39ee:	00052223          	sw	zero,4(a0)
    39f2:	00052423          	sw	zero,8(a0)
    39f6:	06052223          	sw	zero,100(a0)
    39fa:	00052823          	sw	zero,16(a0)
    39fe:	00052a23          	sw	zero,20(a0)
    3a02:	00052c23          	sw	zero,24(a0)
    3a06:	4621                	li	a2,8
    3a08:	4581                	li	a1,0
    3a0a:	05c50513          	addi	a0,a0,92
    3a0e:	ff2fc0ef          	jal	ra,200 <memset>
    3a12:	00001797          	auipc	a5,0x1
    3a16:	b4a78793          	addi	a5,a5,-1206 # 455c <__sread>
    3a1a:	d05c                	sw	a5,36(s0)
    3a1c:	00001797          	auipc	a5,0x1
    3a20:	b7078793          	addi	a5,a5,-1168 # 458c <__swrite>
    3a24:	d41c                	sw	a5,40(s0)
    3a26:	00001797          	auipc	a5,0x1
    3a2a:	bb478793          	addi	a5,a5,-1100 # 45da <__sseek>
    3a2e:	d45c                	sw	a5,44(s0)
    3a30:	00001797          	auipc	a5,0x1
    3a34:	be078793          	addi	a5,a5,-1056 # 4610 <__sclose>
    3a38:	d000                	sw	s0,32(s0)
    3a3a:	d81c                	sw	a5,48(s0)
    3a3c:	40b2                	lw	ra,12(sp)
    3a3e:	4422                	lw	s0,8(sp)
    3a40:	0141                	addi	sp,sp,16
    3a42:	8082                	ret

00003a44 <_cleanup_r>:
    3a44:	00000597          	auipc	a1,0x0
    3a48:	f3258593          	addi	a1,a1,-206 # 3976 <_fflush_r>
    3a4c:	a2a9                	j	3b96 <_fwalk_reent>

00003a4e <__sfmoreglue>:
    3a4e:	1141                	addi	sp,sp,-16
    3a50:	c226                	sw	s1,4(sp)
    3a52:	06800613          	li	a2,104
    3a56:	fff58493          	addi	s1,a1,-1
    3a5a:	02c484b3          	mul	s1,s1,a2
    3a5e:	c04a                	sw	s2,0(sp)
    3a60:	892e                	mv	s2,a1
    3a62:	c422                	sw	s0,8(sp)
    3a64:	c606                	sw	ra,12(sp)
    3a66:	07448593          	addi	a1,s1,116
    3a6a:	2e25                	jal	3da2 <_malloc_r>
    3a6c:	842a                	mv	s0,a0
    3a6e:	cd01                	beqz	a0,3a86 <__sfmoreglue+0x38>
    3a70:	00052023          	sw	zero,0(a0)
    3a74:	01252223          	sw	s2,4(a0)
    3a78:	0531                	addi	a0,a0,12
    3a7a:	c408                	sw	a0,8(s0)
    3a7c:	06848613          	addi	a2,s1,104
    3a80:	4581                	li	a1,0
    3a82:	f7efc0ef          	jal	ra,200 <memset>
    3a86:	8522                	mv	a0,s0
    3a88:	40b2                	lw	ra,12(sp)
    3a8a:	4422                	lw	s0,8(sp)
    3a8c:	4492                	lw	s1,4(sp)
    3a8e:	4902                	lw	s2,0(sp)
    3a90:	0141                	addi	sp,sp,16
    3a92:	8082                	ret

00003a94 <__sinit>:
    3a94:	4d1c                	lw	a5,24(a0)
    3a96:	e3ad                	bnez	a5,3af8 <__sinit+0x64>
    3a98:	1141                	addi	sp,sp,-16
    3a9a:	c606                	sw	ra,12(sp)
    3a9c:	c422                	sw	s0,8(sp)
    3a9e:	00000797          	auipc	a5,0x0
    3aa2:	fa678793          	addi	a5,a5,-90 # 3a44 <_cleanup_r>
    3aa6:	d51c                	sw	a5,40(a0)
    3aa8:	81418793          	addi	a5,gp,-2028 # 20000094 <_global_impure_ptr>
    3aac:	439c                	lw	a5,0(a5)
    3aae:	04052423          	sw	zero,72(a0)
    3ab2:	04052623          	sw	zero,76(a0)
    3ab6:	04052823          	sw	zero,80(a0)
    3aba:	00f51463          	bne	a0,a5,3ac2 <__sinit+0x2e>
    3abe:	4785                	li	a5,1
    3ac0:	cd1c                	sw	a5,24(a0)
    3ac2:	842a                	mv	s0,a0
    3ac4:	281d                	jal	3afa <__sfp>
    3ac6:	c048                	sw	a0,4(s0)
    3ac8:	8522                	mv	a0,s0
    3aca:	2805                	jal	3afa <__sfp>
    3acc:	c408                	sw	a0,8(s0)
    3ace:	8522                	mv	a0,s0
    3ad0:	202d                	jal	3afa <__sfp>
    3ad2:	c448                	sw	a0,12(s0)
    3ad4:	4048                	lw	a0,4(s0)
    3ad6:	4601                	li	a2,0
    3ad8:	4591                	li	a1,4
    3ada:	3701                	jal	39da <std>
    3adc:	4408                	lw	a0,8(s0)
    3ade:	4605                	li	a2,1
    3ae0:	45a5                	li	a1,9
    3ae2:	3de5                	jal	39da <std>
    3ae4:	4448                	lw	a0,12(s0)
    3ae6:	4609                	li	a2,2
    3ae8:	45c9                	li	a1,18
    3aea:	3dc5                	jal	39da <std>
    3aec:	4785                	li	a5,1
    3aee:	cc1c                	sw	a5,24(s0)
    3af0:	40b2                	lw	ra,12(sp)
    3af2:	4422                	lw	s0,8(sp)
    3af4:	0141                	addi	sp,sp,16
    3af6:	8082                	ret
    3af8:	8082                	ret

00003afa <__sfp>:
    3afa:	1141                	addi	sp,sp,-16
    3afc:	81418793          	addi	a5,gp,-2028 # 20000094 <_global_impure_ptr>
    3b00:	c226                	sw	s1,4(sp)
    3b02:	4384                	lw	s1,0(a5)
    3b04:	c04a                	sw	s2,0(sp)
    3b06:	c606                	sw	ra,12(sp)
    3b08:	4c9c                	lw	a5,24(s1)
    3b0a:	c422                	sw	s0,8(sp)
    3b0c:	892a                	mv	s2,a0
    3b0e:	e399                	bnez	a5,3b14 <__sfp+0x1a>
    3b10:	8526                	mv	a0,s1
    3b12:	3749                	jal	3a94 <__sinit>
    3b14:	04848493          	addi	s1,s1,72
    3b18:	4480                	lw	s0,8(s1)
    3b1a:	40dc                	lw	a5,4(s1)
    3b1c:	17fd                	addi	a5,a5,-1
    3b1e:	0007d663          	bgez	a5,3b2a <__sfp+0x30>
    3b22:	409c                	lw	a5,0(s1)
    3b24:	cfb9                	beqz	a5,3b82 <__sfp+0x88>
    3b26:	4084                	lw	s1,0(s1)
    3b28:	bfc5                	j	3b18 <__sfp+0x1e>
    3b2a:	00c41703          	lh	a4,12(s0)
    3b2e:	e739                	bnez	a4,3b7c <__sfp+0x82>
    3b30:	77c1                	lui	a5,0xffff0
    3b32:	0785                	addi	a5,a5,1
    3b34:	06042223          	sw	zero,100(s0)
    3b38:	00042023          	sw	zero,0(s0)
    3b3c:	00042223          	sw	zero,4(s0)
    3b40:	00042423          	sw	zero,8(s0)
    3b44:	c45c                	sw	a5,12(s0)
    3b46:	00042823          	sw	zero,16(s0)
    3b4a:	00042a23          	sw	zero,20(s0)
    3b4e:	00042c23          	sw	zero,24(s0)
    3b52:	4621                	li	a2,8
    3b54:	4581                	li	a1,0
    3b56:	05c40513          	addi	a0,s0,92
    3b5a:	ea6fc0ef          	jal	ra,200 <memset>
    3b5e:	02042a23          	sw	zero,52(s0)
    3b62:	02042c23          	sw	zero,56(s0)
    3b66:	04042423          	sw	zero,72(s0)
    3b6a:	04042623          	sw	zero,76(s0)
    3b6e:	8522                	mv	a0,s0
    3b70:	40b2                	lw	ra,12(sp)
    3b72:	4422                	lw	s0,8(sp)
    3b74:	4492                	lw	s1,4(sp)
    3b76:	4902                	lw	s2,0(sp)
    3b78:	0141                	addi	sp,sp,16
    3b7a:	8082                	ret
    3b7c:	06840413          	addi	s0,s0,104
    3b80:	bf71                	j	3b1c <__sfp+0x22>
    3b82:	4591                	li	a1,4
    3b84:	854a                	mv	a0,s2
    3b86:	35e1                	jal	3a4e <__sfmoreglue>
    3b88:	c088                	sw	a0,0(s1)
    3b8a:	fd51                	bnez	a0,3b26 <__sfp+0x2c>
    3b8c:	47b1                	li	a5,12
    3b8e:	00f92023          	sw	a5,0(s2)
    3b92:	4401                	li	s0,0
    3b94:	bfe9                	j	3b6e <__sfp+0x74>

00003b96 <_fwalk_reent>:
    3b96:	7179                	addi	sp,sp,-48
    3b98:	d422                	sw	s0,40(sp)
    3b9a:	d04a                	sw	s2,32(sp)
    3b9c:	cc52                	sw	s4,24(sp)
    3b9e:	ca56                	sw	s5,20(sp)
    3ba0:	c85a                	sw	s6,16(sp)
    3ba2:	c65e                	sw	s7,12(sp)
    3ba4:	d606                	sw	ra,44(sp)
    3ba6:	d226                	sw	s1,36(sp)
    3ba8:	ce4e                	sw	s3,28(sp)
    3baa:	8a2a                	mv	s4,a0
    3bac:	8aae                	mv	s5,a1
    3bae:	04850413          	addi	s0,a0,72
    3bb2:	4901                	li	s2,0
    3bb4:	4b05                	li	s6,1
    3bb6:	5bfd                	li	s7,-1
    3bb8:	ec09                	bnez	s0,3bd2 <_fwalk_reent+0x3c>
    3bba:	50b2                	lw	ra,44(sp)
    3bbc:	5422                	lw	s0,40(sp)
    3bbe:	854a                	mv	a0,s2
    3bc0:	5492                	lw	s1,36(sp)
    3bc2:	5902                	lw	s2,32(sp)
    3bc4:	49f2                	lw	s3,28(sp)
    3bc6:	4a62                	lw	s4,24(sp)
    3bc8:	4ad2                	lw	s5,20(sp)
    3bca:	4b42                	lw	s6,16(sp)
    3bcc:	4bb2                	lw	s7,12(sp)
    3bce:	6145                	addi	sp,sp,48
    3bd0:	8082                	ret
    3bd2:	4404                	lw	s1,8(s0)
    3bd4:	00442983          	lw	s3,4(s0)
    3bd8:	19fd                	addi	s3,s3,-1
    3bda:	0009d463          	bgez	s3,3be2 <_fwalk_reent+0x4c>
    3bde:	4000                	lw	s0,0(s0)
    3be0:	bfe1                	j	3bb8 <_fwalk_reent+0x22>
    3be2:	00c4d783          	lhu	a5,12(s1)
    3be6:	00fb7b63          	bgeu	s6,a5,3bfc <_fwalk_reent+0x66>
    3bea:	00e49783          	lh	a5,14(s1)
    3bee:	01778763          	beq	a5,s7,3bfc <_fwalk_reent+0x66>
    3bf2:	85a6                	mv	a1,s1
    3bf4:	8552                	mv	a0,s4
    3bf6:	9a82                	jalr	s5
    3bf8:	00a96933          	or	s2,s2,a0
    3bfc:	06848493          	addi	s1,s1,104
    3c00:	bfe1                	j	3bd8 <_fwalk_reent+0x42>

00003c02 <__swhatbuf_r>:
    3c02:	7119                	addi	sp,sp,-128
    3c04:	daa6                	sw	s1,116(sp)
    3c06:	84ae                	mv	s1,a1
    3c08:	00e59583          	lh	a1,14(a1)
    3c0c:	dca2                	sw	s0,120(sp)
    3c0e:	de86                	sw	ra,124(sp)
    3c10:	8432                	mv	s0,a2
    3c12:	0005dc63          	bgez	a1,3c2a <__swhatbuf_r+0x28>
    3c16:	00c4d783          	lhu	a5,12(s1)
    3c1a:	0006a023          	sw	zero,0(a3)
    3c1e:	0807f793          	andi	a5,a5,128
    3c22:	e785                	bnez	a5,3c4a <__swhatbuf_r+0x48>
    3c24:	40000793          	li	a5,1024
    3c28:	a01d                	j	3c4e <__swhatbuf_r+0x4c>
    3c2a:	0830                	addi	a2,sp,24
    3c2c:	c636                	sw	a3,12(sp)
    3c2e:	23f000ef          	jal	ra,466c <_fstat_r>
    3c32:	46b2                	lw	a3,12(sp)
    3c34:	fe0541e3          	bltz	a0,3c16 <__swhatbuf_r+0x14>
    3c38:	4772                	lw	a4,28(sp)
    3c3a:	67bd                	lui	a5,0xf
    3c3c:	8ff9                	and	a5,a5,a4
    3c3e:	7779                	lui	a4,0xffffe
    3c40:	97ba                	add	a5,a5,a4
    3c42:	0017b793          	seqz	a5,a5
    3c46:	c29c                	sw	a5,0(a3)
    3c48:	bff1                	j	3c24 <__swhatbuf_r+0x22>
    3c4a:	04000793          	li	a5,64
    3c4e:	c01c                	sw	a5,0(s0)
    3c50:	50f6                	lw	ra,124(sp)
    3c52:	5466                	lw	s0,120(sp)
    3c54:	54d6                	lw	s1,116(sp)
    3c56:	4501                	li	a0,0
    3c58:	6109                	addi	sp,sp,128
    3c5a:	8082                	ret

00003c5c <__smakebuf_r>:
    3c5c:	00c5d783          	lhu	a5,12(a1)
    3c60:	1101                	addi	sp,sp,-32
    3c62:	cc22                	sw	s0,24(sp)
    3c64:	ce06                	sw	ra,28(sp)
    3c66:	ca26                	sw	s1,20(sp)
    3c68:	c84a                	sw	s2,16(sp)
    3c6a:	8b89                	andi	a5,a5,2
    3c6c:	842e                	mv	s0,a1
    3c6e:	cf89                	beqz	a5,3c88 <__smakebuf_r+0x2c>
    3c70:	04740793          	addi	a5,s0,71
    3c74:	c01c                	sw	a5,0(s0)
    3c76:	c81c                	sw	a5,16(s0)
    3c78:	4785                	li	a5,1
    3c7a:	c85c                	sw	a5,20(s0)
    3c7c:	40f2                	lw	ra,28(sp)
    3c7e:	4462                	lw	s0,24(sp)
    3c80:	44d2                	lw	s1,20(sp)
    3c82:	4942                	lw	s2,16(sp)
    3c84:	6105                	addi	sp,sp,32
    3c86:	8082                	ret
    3c88:	0074                	addi	a3,sp,12
    3c8a:	0030                	addi	a2,sp,8
    3c8c:	84aa                	mv	s1,a0
    3c8e:	3f95                	jal	3c02 <__swhatbuf_r>
    3c90:	45a2                	lw	a1,8(sp)
    3c92:	892a                	mv	s2,a0
    3c94:	8526                	mv	a0,s1
    3c96:	2231                	jal	3da2 <_malloc_r>
    3c98:	ed01                	bnez	a0,3cb0 <__smakebuf_r+0x54>
    3c9a:	00c41783          	lh	a5,12(s0)
    3c9e:	2007f713          	andi	a4,a5,512
    3ca2:	ff69                	bnez	a4,3c7c <__smakebuf_r+0x20>
    3ca4:	9bf1                	andi	a5,a5,-4
    3ca6:	0027e793          	ori	a5,a5,2
    3caa:	00f41623          	sh	a5,12(s0)
    3cae:	b7c9                	j	3c70 <__smakebuf_r+0x14>
    3cb0:	00000797          	auipc	a5,0x0
    3cb4:	d9478793          	addi	a5,a5,-620 # 3a44 <_cleanup_r>
    3cb8:	d49c                	sw	a5,40(s1)
    3cba:	00c45783          	lhu	a5,12(s0)
    3cbe:	c008                	sw	a0,0(s0)
    3cc0:	c808                	sw	a0,16(s0)
    3cc2:	0807e793          	ori	a5,a5,128
    3cc6:	00f41623          	sh	a5,12(s0)
    3cca:	47a2                	lw	a5,8(sp)
    3ccc:	c85c                	sw	a5,20(s0)
    3cce:	47b2                	lw	a5,12(sp)
    3cd0:	cf91                	beqz	a5,3cec <__smakebuf_r+0x90>
    3cd2:	00e41583          	lh	a1,14(s0)
    3cd6:	8526                	mv	a0,s1
    3cd8:	1bf000ef          	jal	ra,4696 <_isatty_r>
    3cdc:	c901                	beqz	a0,3cec <__smakebuf_r+0x90>
    3cde:	00c45783          	lhu	a5,12(s0)
    3ce2:	9bf1                	andi	a5,a5,-4
    3ce4:	0017e793          	ori	a5,a5,1
    3ce8:	00f41623          	sh	a5,12(s0)
    3cec:	00c45783          	lhu	a5,12(s0)
    3cf0:	00f96933          	or	s2,s2,a5
    3cf4:	01241623          	sh	s2,12(s0)
    3cf8:	b751                	j	3c7c <__smakebuf_r+0x20>

00003cfa <_free_r>:
    3cfa:	c1dd                	beqz	a1,3da0 <_free_r+0xa6>
    3cfc:	ffc5a783          	lw	a5,-4(a1)
    3d00:	1141                	addi	sp,sp,-16
    3d02:	c422                	sw	s0,8(sp)
    3d04:	c606                	sw	ra,12(sp)
    3d06:	c226                	sw	s1,4(sp)
    3d08:	ffc58413          	addi	s0,a1,-4
    3d0c:	0007d363          	bgez	a5,3d12 <_free_r+0x18>
    3d10:	943e                	add	s0,s0,a5
    3d12:	84aa                	mv	s1,a0
    3d14:	1f1000ef          	jal	ra,4704 <__malloc_lock>
    3d18:	82818793          	addi	a5,gp,-2008 # 200000a8 <__malloc_free_list>
    3d1c:	439c                	lw	a5,0(a5)
    3d1e:	ef81                	bnez	a5,3d36 <_free_r+0x3c>
    3d20:	00042223          	sw	zero,4(s0)
    3d24:	8281a423          	sw	s0,-2008(gp) # 200000a8 <__malloc_free_list>
    3d28:	4422                	lw	s0,8(sp)
    3d2a:	40b2                	lw	ra,12(sp)
    3d2c:	8526                	mv	a0,s1
    3d2e:	4492                	lw	s1,4(sp)
    3d30:	0141                	addi	sp,sp,16
    3d32:	1d50006f          	j	4706 <__malloc_unlock>
    3d36:	00f47e63          	bgeu	s0,a5,3d52 <_free_r+0x58>
    3d3a:	4014                	lw	a3,0(s0)
    3d3c:	00d40733          	add	a4,s0,a3
    3d40:	00e79663          	bne	a5,a4,3d4c <_free_r+0x52>
    3d44:	4398                	lw	a4,0(a5)
    3d46:	43dc                	lw	a5,4(a5)
    3d48:	9736                	add	a4,a4,a3
    3d4a:	c018                	sw	a4,0(s0)
    3d4c:	c05c                	sw	a5,4(s0)
    3d4e:	bfd9                	j	3d24 <_free_r+0x2a>
    3d50:	87ba                	mv	a5,a4
    3d52:	43d8                	lw	a4,4(a5)
    3d54:	c319                	beqz	a4,3d5a <_free_r+0x60>
    3d56:	fee47de3          	bgeu	s0,a4,3d50 <_free_r+0x56>
    3d5a:	4394                	lw	a3,0(a5)
    3d5c:	00d78633          	add	a2,a5,a3
    3d60:	00861f63          	bne	a2,s0,3d7e <_free_r+0x84>
    3d64:	4010                	lw	a2,0(s0)
    3d66:	96b2                	add	a3,a3,a2
    3d68:	c394                	sw	a3,0(a5)
    3d6a:	00d78633          	add	a2,a5,a3
    3d6e:	fac71de3          	bne	a4,a2,3d28 <_free_r+0x2e>
    3d72:	4310                	lw	a2,0(a4)
    3d74:	4358                	lw	a4,4(a4)
    3d76:	96b2                	add	a3,a3,a2
    3d78:	c394                	sw	a3,0(a5)
    3d7a:	c3d8                	sw	a4,4(a5)
    3d7c:	b775                	j	3d28 <_free_r+0x2e>
    3d7e:	00c47563          	bgeu	s0,a2,3d88 <_free_r+0x8e>
    3d82:	47b1                	li	a5,12
    3d84:	c09c                	sw	a5,0(s1)
    3d86:	b74d                	j	3d28 <_free_r+0x2e>
    3d88:	4010                	lw	a2,0(s0)
    3d8a:	00c406b3          	add	a3,s0,a2
    3d8e:	00d71663          	bne	a4,a3,3d9a <_free_r+0xa0>
    3d92:	4314                	lw	a3,0(a4)
    3d94:	4358                	lw	a4,4(a4)
    3d96:	96b2                	add	a3,a3,a2
    3d98:	c014                	sw	a3,0(s0)
    3d9a:	c058                	sw	a4,4(s0)
    3d9c:	c3c0                	sw	s0,4(a5)
    3d9e:	b769                	j	3d28 <_free_r+0x2e>
    3da0:	8082                	ret

00003da2 <_malloc_r>:
    3da2:	1101                	addi	sp,sp,-32
    3da4:	ca26                	sw	s1,20(sp)
    3da6:	00358493          	addi	s1,a1,3
    3daa:	98f1                	andi	s1,s1,-4
    3dac:	ce06                	sw	ra,28(sp)
    3dae:	cc22                	sw	s0,24(sp)
    3db0:	c84a                	sw	s2,16(sp)
    3db2:	c64e                	sw	s3,12(sp)
    3db4:	04a1                	addi	s1,s1,8
    3db6:	47b1                	li	a5,12
    3db8:	04f4f363          	bgeu	s1,a5,3dfe <_malloc_r+0x5c>
    3dbc:	44b1                	li	s1,12
    3dbe:	04b4e263          	bltu	s1,a1,3e02 <_malloc_r+0x60>
    3dc2:	892a                	mv	s2,a0
    3dc4:	141000ef          	jal	ra,4704 <__malloc_lock>
    3dc8:	82818793          	addi	a5,gp,-2008 # 200000a8 <__malloc_free_list>
    3dcc:	4398                	lw	a4,0(a5)
    3dce:	843a                	mv	s0,a4
    3dd0:	e039                	bnez	s0,3e16 <_malloc_r+0x74>
    3dd2:	82c18793          	addi	a5,gp,-2004 # 200000ac <__malloc_sbrk_start>
    3dd6:	439c                	lw	a5,0(a5)
    3dd8:	e791                	bnez	a5,3de4 <_malloc_r+0x42>
    3dda:	4581                	li	a1,0
    3ddc:	854a                	mv	a0,s2
    3dde:	2f91                	jal	4532 <_sbrk_r>
    3de0:	82a1a623          	sw	a0,-2004(gp) # 200000ac <__malloc_sbrk_start>
    3de4:	85a6                	mv	a1,s1
    3de6:	854a                	mv	a0,s2
    3de8:	27a9                	jal	4532 <_sbrk_r>
    3dea:	59fd                	li	s3,-1
    3dec:	07351963          	bne	a0,s3,3e5e <_malloc_r+0xbc>
    3df0:	47b1                	li	a5,12
    3df2:	00f92023          	sw	a5,0(s2)
    3df6:	854a                	mv	a0,s2
    3df8:	10f000ef          	jal	ra,4706 <__malloc_unlock>
    3dfc:	a029                	j	3e06 <_malloc_r+0x64>
    3dfe:	fc04d0e3          	bgez	s1,3dbe <_malloc_r+0x1c>
    3e02:	47b1                	li	a5,12
    3e04:	c11c                	sw	a5,0(a0)
    3e06:	4501                	li	a0,0
    3e08:	40f2                	lw	ra,28(sp)
    3e0a:	4462                	lw	s0,24(sp)
    3e0c:	44d2                	lw	s1,20(sp)
    3e0e:	4942                	lw	s2,16(sp)
    3e10:	49b2                	lw	s3,12(sp)
    3e12:	6105                	addi	sp,sp,32
    3e14:	8082                	ret
    3e16:	401c                	lw	a5,0(s0)
    3e18:	8f85                	sub	a5,a5,s1
    3e1a:	0207cf63          	bltz	a5,3e58 <_malloc_r+0xb6>
    3e1e:	46ad                	li	a3,11
    3e20:	00f6f663          	bgeu	a3,a5,3e2c <_malloc_r+0x8a>
    3e24:	c01c                	sw	a5,0(s0)
    3e26:	943e                	add	s0,s0,a5
    3e28:	c004                	sw	s1,0(s0)
    3e2a:	a031                	j	3e36 <_malloc_r+0x94>
    3e2c:	405c                	lw	a5,4(s0)
    3e2e:	02871363          	bne	a4,s0,3e54 <_malloc_r+0xb2>
    3e32:	82f1a423          	sw	a5,-2008(gp) # 200000a8 <__malloc_free_list>
    3e36:	854a                	mv	a0,s2
    3e38:	0cf000ef          	jal	ra,4706 <__malloc_unlock>
    3e3c:	00b40513          	addi	a0,s0,11
    3e40:	00440793          	addi	a5,s0,4
    3e44:	9961                	andi	a0,a0,-8
    3e46:	40f50733          	sub	a4,a0,a5
    3e4a:	df5d                	beqz	a4,3e08 <_malloc_r+0x66>
    3e4c:	943a                	add	s0,s0,a4
    3e4e:	8f89                	sub	a5,a5,a0
    3e50:	c01c                	sw	a5,0(s0)
    3e52:	bf5d                	j	3e08 <_malloc_r+0x66>
    3e54:	c35c                	sw	a5,4(a4)
    3e56:	b7c5                	j	3e36 <_malloc_r+0x94>
    3e58:	8722                	mv	a4,s0
    3e5a:	4040                	lw	s0,4(s0)
    3e5c:	bf95                	j	3dd0 <_malloc_r+0x2e>
    3e5e:	00350413          	addi	s0,a0,3
    3e62:	9871                	andi	s0,s0,-4
    3e64:	fc8502e3          	beq	a0,s0,3e28 <_malloc_r+0x86>
    3e68:	40a405b3          	sub	a1,s0,a0
    3e6c:	854a                	mv	a0,s2
    3e6e:	25d1                	jal	4532 <_sbrk_r>
    3e70:	fb351ce3          	bne	a0,s3,3e28 <_malloc_r+0x86>
    3e74:	bfb5                	j	3df0 <_malloc_r+0x4e>

00003e76 <__sfputc_r>:
    3e76:	461c                	lw	a5,8(a2)
    3e78:	17fd                	addi	a5,a5,-1
    3e7a:	c61c                	sw	a5,8(a2)
    3e7c:	0007da63          	bgez	a5,3e90 <__sfputc_r+0x1a>
    3e80:	4e18                	lw	a4,24(a2)
    3e82:	00e7c563          	blt	a5,a4,3e8c <__sfputc_r+0x16>
    3e86:	47a9                	li	a5,10
    3e88:	00f59463          	bne	a1,a5,3e90 <__sfputc_r+0x1a>
    3e8c:	fe2ff06f          	j	366e <__swbuf_r>
    3e90:	421c                	lw	a5,0(a2)
    3e92:	852e                	mv	a0,a1
    3e94:	00178713          	addi	a4,a5,1
    3e98:	c218                	sw	a4,0(a2)
    3e9a:	00b78023          	sb	a1,0(a5)
    3e9e:	8082                	ret

00003ea0 <__sfputs_r>:
    3ea0:	1101                	addi	sp,sp,-32
    3ea2:	cc22                	sw	s0,24(sp)
    3ea4:	ca26                	sw	s1,20(sp)
    3ea6:	c84a                	sw	s2,16(sp)
    3ea8:	c64e                	sw	s3,12(sp)
    3eaa:	c452                	sw	s4,8(sp)
    3eac:	ce06                	sw	ra,28(sp)
    3eae:	892a                	mv	s2,a0
    3eb0:	89ae                	mv	s3,a1
    3eb2:	8432                	mv	s0,a2
    3eb4:	00d604b3          	add	s1,a2,a3
    3eb8:	5a7d                	li	s4,-1
    3eba:	00941463          	bne	s0,s1,3ec2 <__sfputs_r+0x22>
    3ebe:	4501                	li	a0,0
    3ec0:	a809                	j	3ed2 <__sfputs_r+0x32>
    3ec2:	00044583          	lbu	a1,0(s0)
    3ec6:	864e                	mv	a2,s3
    3ec8:	854a                	mv	a0,s2
    3eca:	3775                	jal	3e76 <__sfputc_r>
    3ecc:	0405                	addi	s0,s0,1
    3ece:	ff4516e3          	bne	a0,s4,3eba <__sfputs_r+0x1a>
    3ed2:	40f2                	lw	ra,28(sp)
    3ed4:	4462                	lw	s0,24(sp)
    3ed6:	44d2                	lw	s1,20(sp)
    3ed8:	4942                	lw	s2,16(sp)
    3eda:	49b2                	lw	s3,12(sp)
    3edc:	4a22                	lw	s4,8(sp)
    3ede:	6105                	addi	sp,sp,32
    3ee0:	8082                	ret

00003ee2 <_vfiprintf_r>:
    3ee2:	7135                	addi	sp,sp,-160
    3ee4:	cd22                	sw	s0,152(sp)
    3ee6:	cb26                	sw	s1,148(sp)
    3ee8:	c94a                	sw	s2,144(sp)
    3eea:	c74e                	sw	s3,140(sp)
    3eec:	cf06                	sw	ra,156(sp)
    3eee:	c552                	sw	s4,136(sp)
    3ef0:	c356                	sw	s5,132(sp)
    3ef2:	c15a                	sw	s6,128(sp)
    3ef4:	dede                	sw	s7,124(sp)
    3ef6:	dce2                	sw	s8,120(sp)
    3ef8:	dae6                	sw	s9,116(sp)
    3efa:	89aa                	mv	s3,a0
    3efc:	84ae                	mv	s1,a1
    3efe:	8932                	mv	s2,a2
    3f00:	8436                	mv	s0,a3
    3f02:	c509                	beqz	a0,3f0c <_vfiprintf_r+0x2a>
    3f04:	4d1c                	lw	a5,24(a0)
    3f06:	e399                	bnez	a5,3f0c <_vfiprintf_r+0x2a>
    3f08:	b8dff0ef          	jal	ra,3a94 <__sinit>
    3f0c:	00004797          	auipc	a5,0x4
    3f10:	b3878793          	addi	a5,a5,-1224 # 7a44 <__sf_fake_stdin>
    3f14:	0cf49b63          	bne	s1,a5,3fea <_vfiprintf_r+0x108>
    3f18:	0049a483          	lw	s1,4(s3)
    3f1c:	00c4d783          	lhu	a5,12(s1)
    3f20:	8ba1                	andi	a5,a5,8
    3f22:	c7f5                	beqz	a5,400e <_vfiprintf_r+0x12c>
    3f24:	489c                	lw	a5,16(s1)
    3f26:	c7e5                	beqz	a5,400e <_vfiprintf_r+0x12c>
    3f28:	02000793          	li	a5,32
    3f2c:	02f104a3          	sb	a5,41(sp)
    3f30:	03000793          	li	a5,48
    3f34:	d202                	sw	zero,36(sp)
    3f36:	02f10523          	sb	a5,42(sp)
    3f3a:	c622                	sw	s0,12(sp)
    3f3c:	02500b93          	li	s7,37
    3f40:	00004a97          	auipc	s5,0x4
    3f44:	b44a8a93          	addi	s5,s5,-1212 # 7a84 <__sf_fake_stdout+0x20>
    3f48:	4c05                	li	s8,1
    3f4a:	4b29                	li	s6,10
    3f4c:	844a                	mv	s0,s2
    3f4e:	00044783          	lbu	a5,0(s0)
    3f52:	c399                	beqz	a5,3f58 <_vfiprintf_r+0x76>
    3f54:	0f779063          	bne	a5,s7,4034 <_vfiprintf_r+0x152>
    3f58:	41240cb3          	sub	s9,s0,s2
    3f5c:	000c8d63          	beqz	s9,3f76 <_vfiprintf_r+0x94>
    3f60:	86e6                	mv	a3,s9
    3f62:	864a                	mv	a2,s2
    3f64:	85a6                	mv	a1,s1
    3f66:	854e                	mv	a0,s3
    3f68:	3f25                	jal	3ea0 <__sfputs_r>
    3f6a:	57fd                	li	a5,-1
    3f6c:	1ef50663          	beq	a0,a5,4158 <_vfiprintf_r+0x276>
    3f70:	5692                	lw	a3,36(sp)
    3f72:	96e6                	add	a3,a3,s9
    3f74:	d236                	sw	a3,36(sp)
    3f76:	00044783          	lbu	a5,0(s0)
    3f7a:	1c078f63          	beqz	a5,4158 <_vfiprintf_r+0x276>
    3f7e:	57fd                	li	a5,-1
    3f80:	00140913          	addi	s2,s0,1
    3f84:	c802                	sw	zero,16(sp)
    3f86:	ce02                	sw	zero,28(sp)
    3f88:	ca3e                	sw	a5,20(sp)
    3f8a:	cc02                	sw	zero,24(sp)
    3f8c:	040109a3          	sb	zero,83(sp)
    3f90:	d482                	sw	zero,104(sp)
    3f92:	00094583          	lbu	a1,0(s2)
    3f96:	4615                	li	a2,5
    3f98:	8556                	mv	a0,s5
    3f9a:	2f81                	jal	46ea <memchr>
    3f9c:	00190413          	addi	s0,s2,1
    3fa0:	47c2                	lw	a5,16(sp)
    3fa2:	e959                	bnez	a0,4038 <_vfiprintf_r+0x156>
    3fa4:	0107f713          	andi	a4,a5,16
    3fa8:	c709                	beqz	a4,3fb2 <_vfiprintf_r+0xd0>
    3faa:	02000713          	li	a4,32
    3fae:	04e109a3          	sb	a4,83(sp)
    3fb2:	0087f713          	andi	a4,a5,8
    3fb6:	c709                	beqz	a4,3fc0 <_vfiprintf_r+0xde>
    3fb8:	02b00713          	li	a4,43
    3fbc:	04e109a3          	sb	a4,83(sp)
    3fc0:	00094683          	lbu	a3,0(s2)
    3fc4:	02a00713          	li	a4,42
    3fc8:	08e68063          	beq	a3,a4,4048 <_vfiprintf_r+0x166>
    3fcc:	47f2                	lw	a5,28(sp)
    3fce:	844a                	mv	s0,s2
    3fd0:	4681                	li	a3,0
    3fd2:	4625                	li	a2,9
    3fd4:	00044703          	lbu	a4,0(s0)
    3fd8:	00140593          	addi	a1,s0,1
    3fdc:	fd070713          	addi	a4,a4,-48 # ffffdfd0 <_eusrstack+0xdfff5fd0>
    3fe0:	0ae67963          	bgeu	a2,a4,4092 <_vfiprintf_r+0x1b0>
    3fe4:	cab5                	beqz	a3,4058 <_vfiprintf_r+0x176>
    3fe6:	ce3e                	sw	a5,28(sp)
    3fe8:	a885                	j	4058 <_vfiprintf_r+0x176>
    3fea:	00004797          	auipc	a5,0x4
    3fee:	a7a78793          	addi	a5,a5,-1414 # 7a64 <__sf_fake_stdout>
    3ff2:	00f49563          	bne	s1,a5,3ffc <_vfiprintf_r+0x11a>
    3ff6:	0089a483          	lw	s1,8(s3)
    3ffa:	b70d                	j	3f1c <_vfiprintf_r+0x3a>
    3ffc:	00004797          	auipc	a5,0x4
    4000:	a2878793          	addi	a5,a5,-1496 # 7a24 <__sf_fake_stderr>
    4004:	f0f49ce3          	bne	s1,a5,3f1c <_vfiprintf_r+0x3a>
    4008:	00c9a483          	lw	s1,12(s3)
    400c:	bf01                	j	3f1c <_vfiprintf_r+0x3a>
    400e:	85a6                	mv	a1,s1
    4010:	854e                	mv	a0,s3
    4012:	f1cff0ef          	jal	ra,372e <__swsetup_r>
    4016:	d909                	beqz	a0,3f28 <_vfiprintf_r+0x46>
    4018:	557d                	li	a0,-1
    401a:	40fa                	lw	ra,156(sp)
    401c:	446a                	lw	s0,152(sp)
    401e:	44da                	lw	s1,148(sp)
    4020:	494a                	lw	s2,144(sp)
    4022:	49ba                	lw	s3,140(sp)
    4024:	4a2a                	lw	s4,136(sp)
    4026:	4a9a                	lw	s5,132(sp)
    4028:	4b0a                	lw	s6,128(sp)
    402a:	5bf6                	lw	s7,124(sp)
    402c:	5c66                	lw	s8,120(sp)
    402e:	5cd6                	lw	s9,116(sp)
    4030:	610d                	addi	sp,sp,160
    4032:	8082                	ret
    4034:	0405                	addi	s0,s0,1
    4036:	bf21                	j	3f4e <_vfiprintf_r+0x6c>
    4038:	41550533          	sub	a0,a0,s5
    403c:	00ac1533          	sll	a0,s8,a0
    4040:	8fc9                	or	a5,a5,a0
    4042:	c83e                	sw	a5,16(sp)
    4044:	8922                	mv	s2,s0
    4046:	b7b1                	j	3f92 <_vfiprintf_r+0xb0>
    4048:	4732                	lw	a4,12(sp)
    404a:	00470693          	addi	a3,a4,4
    404e:	4318                	lw	a4,0(a4)
    4050:	c636                	sw	a3,12(sp)
    4052:	02074963          	bltz	a4,4084 <_vfiprintf_r+0x1a2>
    4056:	ce3a                	sw	a4,28(sp)
    4058:	00044703          	lbu	a4,0(s0)
    405c:	02e00793          	li	a5,46
    4060:	04f71f63          	bne	a4,a5,40be <_vfiprintf_r+0x1dc>
    4064:	00144703          	lbu	a4,1(s0)
    4068:	02a00793          	li	a5,42
    406c:	02f71b63          	bne	a4,a5,40a2 <_vfiprintf_r+0x1c0>
    4070:	47b2                	lw	a5,12(sp)
    4072:	0409                	addi	s0,s0,2
    4074:	00478713          	addi	a4,a5,4
    4078:	439c                	lw	a5,0(a5)
    407a:	c63a                	sw	a4,12(sp)
    407c:	0207c163          	bltz	a5,409e <_vfiprintf_r+0x1bc>
    4080:	ca3e                	sw	a5,20(sp)
    4082:	a835                	j	40be <_vfiprintf_r+0x1dc>
    4084:	40e00733          	neg	a4,a4
    4088:	0027e793          	ori	a5,a5,2
    408c:	ce3a                	sw	a4,28(sp)
    408e:	c83e                	sw	a5,16(sp)
    4090:	b7e1                	j	4058 <_vfiprintf_r+0x176>
    4092:	036787b3          	mul	a5,a5,s6
    4096:	4685                	li	a3,1
    4098:	842e                	mv	s0,a1
    409a:	97ba                	add	a5,a5,a4
    409c:	bf25                	j	3fd4 <_vfiprintf_r+0xf2>
    409e:	57fd                	li	a5,-1
    40a0:	b7c5                	j	4080 <_vfiprintf_r+0x19e>
    40a2:	0405                	addi	s0,s0,1
    40a4:	ca02                	sw	zero,20(sp)
    40a6:	4681                	li	a3,0
    40a8:	4781                	li	a5,0
    40aa:	4625                	li	a2,9
    40ac:	00044703          	lbu	a4,0(s0)
    40b0:	00140593          	addi	a1,s0,1
    40b4:	fd070713          	addi	a4,a4,-48
    40b8:	06e67663          	bgeu	a2,a4,4124 <_vfiprintf_r+0x242>
    40bc:	f2f1                	bnez	a3,4080 <_vfiprintf_r+0x19e>
    40be:	00044583          	lbu	a1,0(s0)
    40c2:	460d                	li	a2,3
    40c4:	00004517          	auipc	a0,0x4
    40c8:	9c850513          	addi	a0,a0,-1592 # 7a8c <__sf_fake_stdout+0x28>
    40cc:	2d39                	jal	46ea <memchr>
    40ce:	cd11                	beqz	a0,40ea <_vfiprintf_r+0x208>
    40d0:	00004797          	auipc	a5,0x4
    40d4:	9bc78793          	addi	a5,a5,-1604 # 7a8c <__sf_fake_stdout+0x28>
    40d8:	8d1d                	sub	a0,a0,a5
    40da:	04000793          	li	a5,64
    40de:	00a797b3          	sll	a5,a5,a0
    40e2:	4542                	lw	a0,16(sp)
    40e4:	0405                	addi	s0,s0,1
    40e6:	8d5d                	or	a0,a0,a5
    40e8:	c82a                	sw	a0,16(sp)
    40ea:	00044583          	lbu	a1,0(s0)
    40ee:	4619                	li	a2,6
    40f0:	00004517          	auipc	a0,0x4
    40f4:	9a050513          	addi	a0,a0,-1632 # 7a90 <__sf_fake_stdout+0x2c>
    40f8:	00140913          	addi	s2,s0,1
    40fc:	02b10423          	sb	a1,40(sp)
    4100:	23ed                	jal	46ea <memchr>
    4102:	c13d                	beqz	a0,4168 <_vfiprintf_r+0x286>
    4104:	ffffc797          	auipc	a5,0xffffc
    4108:	efc78793          	addi	a5,a5,-260 # 0 <_sinit>
    410c:	e795                	bnez	a5,4138 <_vfiprintf_r+0x256>
    410e:	4742                	lw	a4,16(sp)
    4110:	47b2                	lw	a5,12(sp)
    4112:	10077713          	andi	a4,a4,256
    4116:	cf09                	beqz	a4,4130 <_vfiprintf_r+0x24e>
    4118:	0791                	addi	a5,a5,4
    411a:	c63e                	sw	a5,12(sp)
    411c:	5792                	lw	a5,36(sp)
    411e:	97d2                	add	a5,a5,s4
    4120:	d23e                	sw	a5,36(sp)
    4122:	b52d                	j	3f4c <_vfiprintf_r+0x6a>
    4124:	036787b3          	mul	a5,a5,s6
    4128:	4685                	li	a3,1
    412a:	842e                	mv	s0,a1
    412c:	97ba                	add	a5,a5,a4
    412e:	bfbd                	j	40ac <_vfiprintf_r+0x1ca>
    4130:	079d                	addi	a5,a5,7
    4132:	9be1                	andi	a5,a5,-8
    4134:	07a1                	addi	a5,a5,8
    4136:	b7d5                	j	411a <_vfiprintf_r+0x238>
    4138:	0078                	addi	a4,sp,12
    413a:	00000697          	auipc	a3,0x0
    413e:	d6668693          	addi	a3,a3,-666 # 3ea0 <__sfputs_r>
    4142:	8626                	mv	a2,s1
    4144:	080c                	addi	a1,sp,16
    4146:	854e                	mv	a0,s3
    4148:	00000097          	auipc	ra,0x0
    414c:	000000e7          	jalr	zero # 0 <_sinit>
    4150:	57fd                	li	a5,-1
    4152:	8a2a                	mv	s4,a0
    4154:	fcf514e3          	bne	a0,a5,411c <_vfiprintf_r+0x23a>
    4158:	00c4d783          	lhu	a5,12(s1)
    415c:	0407f793          	andi	a5,a5,64
    4160:	ea079ce3          	bnez	a5,4018 <_vfiprintf_r+0x136>
    4164:	5512                	lw	a0,36(sp)
    4166:	bd55                	j	401a <_vfiprintf_r+0x138>
    4168:	0078                	addi	a4,sp,12
    416a:	00000697          	auipc	a3,0x0
    416e:	d3668693          	addi	a3,a3,-714 # 3ea0 <__sfputs_r>
    4172:	8626                	mv	a2,s1
    4174:	080c                	addi	a1,sp,16
    4176:	854e                	mv	a0,s3
    4178:	2a01                	jal	4288 <_printf_i>
    417a:	bfd9                	j	4150 <_vfiprintf_r+0x26e>

0000417c <_printf_common>:
    417c:	7179                	addi	sp,sp,-48
    417e:	ca56                	sw	s5,20(sp)
    4180:	499c                	lw	a5,16(a1)
    4182:	8aba                	mv	s5,a4
    4184:	4598                	lw	a4,8(a1)
    4186:	d422                	sw	s0,40(sp)
    4188:	d226                	sw	s1,36(sp)
    418a:	ce4e                	sw	s3,28(sp)
    418c:	cc52                	sw	s4,24(sp)
    418e:	d606                	sw	ra,44(sp)
    4190:	d04a                	sw	s2,32(sp)
    4192:	c85a                	sw	s6,16(sp)
    4194:	c65e                	sw	s7,12(sp)
    4196:	89aa                	mv	s3,a0
    4198:	842e                	mv	s0,a1
    419a:	84b2                	mv	s1,a2
    419c:	8a36                	mv	s4,a3
    419e:	00e7d363          	bge	a5,a4,41a4 <_printf_common+0x28>
    41a2:	87ba                	mv	a5,a4
    41a4:	c09c                	sw	a5,0(s1)
    41a6:	04344703          	lbu	a4,67(s0)
    41aa:	c319                	beqz	a4,41b0 <_printf_common+0x34>
    41ac:	0785                	addi	a5,a5,1
    41ae:	c09c                	sw	a5,0(s1)
    41b0:	401c                	lw	a5,0(s0)
    41b2:	0207f793          	andi	a5,a5,32
    41b6:	c781                	beqz	a5,41be <_printf_common+0x42>
    41b8:	409c                	lw	a5,0(s1)
    41ba:	0789                	addi	a5,a5,2
    41bc:	c09c                	sw	a5,0(s1)
    41be:	00042903          	lw	s2,0(s0)
    41c2:	00697913          	andi	s2,s2,6
    41c6:	00091a63          	bnez	s2,41da <_printf_common+0x5e>
    41ca:	01940b13          	addi	s6,s0,25
    41ce:	5bfd                	li	s7,-1
    41d0:	445c                	lw	a5,12(s0)
    41d2:	4098                	lw	a4,0(s1)
    41d4:	8f99                	sub	a5,a5,a4
    41d6:	04f94c63          	blt	s2,a5,422e <_printf_common+0xb2>
    41da:	401c                	lw	a5,0(s0)
    41dc:	04344683          	lbu	a3,67(s0)
    41e0:	0207f793          	andi	a5,a5,32
    41e4:	00d036b3          	snez	a3,a3
    41e8:	eba5                	bnez	a5,4258 <_printf_common+0xdc>
    41ea:	04340613          	addi	a2,s0,67
    41ee:	85d2                	mv	a1,s4
    41f0:	854e                	mv	a0,s3
    41f2:	9a82                	jalr	s5
    41f4:	57fd                	li	a5,-1
    41f6:	04f50363          	beq	a0,a5,423c <_printf_common+0xc0>
    41fa:	401c                	lw	a5,0(s0)
    41fc:	4611                	li	a2,4
    41fe:	4098                	lw	a4,0(s1)
    4200:	8b99                	andi	a5,a5,6
    4202:	4454                	lw	a3,12(s0)
    4204:	4481                	li	s1,0
    4206:	00c79763          	bne	a5,a2,4214 <_printf_common+0x98>
    420a:	40e684b3          	sub	s1,a3,a4
    420e:	0004d363          	bgez	s1,4214 <_printf_common+0x98>
    4212:	4481                	li	s1,0
    4214:	441c                	lw	a5,8(s0)
    4216:	4818                	lw	a4,16(s0)
    4218:	00f75463          	bge	a4,a5,4220 <_printf_common+0xa4>
    421c:	8f99                	sub	a5,a5,a4
    421e:	94be                	add	s1,s1,a5
    4220:	4901                	li	s2,0
    4222:	0469                	addi	s0,s0,26
    4224:	5b7d                	li	s6,-1
    4226:	05249863          	bne	s1,s2,4276 <_printf_common+0xfa>
    422a:	4501                	li	a0,0
    422c:	a809                	j	423e <_printf_common+0xc2>
    422e:	4685                	li	a3,1
    4230:	865a                	mv	a2,s6
    4232:	85d2                	mv	a1,s4
    4234:	854e                	mv	a0,s3
    4236:	9a82                	jalr	s5
    4238:	01751e63          	bne	a0,s7,4254 <_printf_common+0xd8>
    423c:	557d                	li	a0,-1
    423e:	50b2                	lw	ra,44(sp)
    4240:	5422                	lw	s0,40(sp)
    4242:	5492                	lw	s1,36(sp)
    4244:	5902                	lw	s2,32(sp)
    4246:	49f2                	lw	s3,28(sp)
    4248:	4a62                	lw	s4,24(sp)
    424a:	4ad2                	lw	s5,20(sp)
    424c:	4b42                	lw	s6,16(sp)
    424e:	4bb2                	lw	s7,12(sp)
    4250:	6145                	addi	sp,sp,48
    4252:	8082                	ret
    4254:	0905                	addi	s2,s2,1
    4256:	bfad                	j	41d0 <_printf_common+0x54>
    4258:	00d40733          	add	a4,s0,a3
    425c:	03000613          	li	a2,48
    4260:	04c701a3          	sb	a2,67(a4)
    4264:	04544703          	lbu	a4,69(s0)
    4268:	00168793          	addi	a5,a3,1
    426c:	97a2                	add	a5,a5,s0
    426e:	0689                	addi	a3,a3,2
    4270:	04e781a3          	sb	a4,67(a5)
    4274:	bf9d                	j	41ea <_printf_common+0x6e>
    4276:	4685                	li	a3,1
    4278:	8622                	mv	a2,s0
    427a:	85d2                	mv	a1,s4
    427c:	854e                	mv	a0,s3
    427e:	9a82                	jalr	s5
    4280:	fb650ee3          	beq	a0,s6,423c <_printf_common+0xc0>
    4284:	0905                	addi	s2,s2,1
    4286:	b745                	j	4226 <_printf_common+0xaa>

00004288 <_printf_i>:
    4288:	7179                	addi	sp,sp,-48
    428a:	d422                	sw	s0,40(sp)
    428c:	d226                	sw	s1,36(sp)
    428e:	d04a                	sw	s2,32(sp)
    4290:	ce4e                	sw	s3,28(sp)
    4292:	d606                	sw	ra,44(sp)
    4294:	cc52                	sw	s4,24(sp)
    4296:	ca56                	sw	s5,20(sp)
    4298:	c85a                	sw	s6,16(sp)
    429a:	89b6                	mv	s3,a3
    429c:	0185c683          	lbu	a3,24(a1)
    42a0:	06900793          	li	a5,105
    42a4:	8932                	mv	s2,a2
    42a6:	84aa                	mv	s1,a0
    42a8:	842e                	mv	s0,a1
    42aa:	04358613          	addi	a2,a1,67
    42ae:	02f68d63          	beq	a3,a5,42e8 <_printf_i+0x60>
    42b2:	06d7e263          	bltu	a5,a3,4316 <_printf_i+0x8e>
    42b6:	05800793          	li	a5,88
    42ba:	18f68863          	beq	a3,a5,444a <_printf_i+0x1c2>
    42be:	00d7ed63          	bltu	a5,a3,42d8 <_printf_i+0x50>
    42c2:	22068163          	beqz	a3,44e4 <_printf_i+0x25c>
    42c6:	04300793          	li	a5,67
    42ca:	0af68e63          	beq	a3,a5,4386 <_printf_i+0xfe>
    42ce:	04240a93          	addi	s5,s0,66
    42d2:	04d40123          	sb	a3,66(s0)
    42d6:	a0c9                	j	4398 <_printf_i+0x110>
    42d8:	06300793          	li	a5,99
    42dc:	0af68563          	beq	a3,a5,4386 <_printf_i+0xfe>
    42e0:	06400793          	li	a5,100
    42e4:	fef695e3          	bne	a3,a5,42ce <_printf_i+0x46>
    42e8:	401c                	lw	a5,0(s0)
    42ea:	4308                	lw	a0,0(a4)
    42ec:	0807f693          	andi	a3,a5,128
    42f0:	00450593          	addi	a1,a0,4
    42f4:	c6c5                	beqz	a3,439c <_printf_i+0x114>
    42f6:	411c                	lw	a5,0(a0)
    42f8:	c30c                	sw	a1,0(a4)
    42fa:	0007d863          	bgez	a5,430a <_printf_i+0x82>
    42fe:	02d00713          	li	a4,45
    4302:	40f007b3          	neg	a5,a5
    4306:	04e401a3          	sb	a4,67(s0)
    430a:	00003697          	auipc	a3,0x3
    430e:	78e68693          	addi	a3,a3,1934 # 7a98 <__sf_fake_stdout+0x34>
    4312:	4729                	li	a4,10
    4314:	a86d                	j	43ce <_printf_i+0x146>
    4316:	07000793          	li	a5,112
    431a:	16f68463          	beq	a3,a5,4482 <_printf_i+0x1fa>
    431e:	02d7e563          	bltu	a5,a3,4348 <_printf_i+0xc0>
    4322:	06e00793          	li	a5,110
    4326:	18f68b63          	beq	a3,a5,44bc <_printf_i+0x234>
    432a:	06f00793          	li	a5,111
    432e:	faf690e3          	bne	a3,a5,42ce <_printf_i+0x46>
    4332:	400c                	lw	a1,0(s0)
    4334:	431c                	lw	a5,0(a4)
    4336:	0805f813          	andi	a6,a1,128
    433a:	00478513          	addi	a0,a5,4
    433e:	06080763          	beqz	a6,43ac <_printf_i+0x124>
    4342:	c308                	sw	a0,0(a4)
    4344:	439c                	lw	a5,0(a5)
    4346:	a88d                	j	43b8 <_printf_i+0x130>
    4348:	07500793          	li	a5,117
    434c:	fef683e3          	beq	a3,a5,4332 <_printf_i+0xaa>
    4350:	07800793          	li	a5,120
    4354:	12f68b63          	beq	a3,a5,448a <_printf_i+0x202>
    4358:	07300793          	li	a5,115
    435c:	f6f699e3          	bne	a3,a5,42ce <_printf_i+0x46>
    4360:	431c                	lw	a5,0(a4)
    4362:	41d0                	lw	a2,4(a1)
    4364:	4581                	li	a1,0
    4366:	00478693          	addi	a3,a5,4
    436a:	c314                	sw	a3,0(a4)
    436c:	0007aa83          	lw	s5,0(a5)
    4370:	8556                	mv	a0,s5
    4372:	2ea5                	jal	46ea <memchr>
    4374:	c501                	beqz	a0,437c <_printf_i+0xf4>
    4376:	41550533          	sub	a0,a0,s5
    437a:	c048                	sw	a0,4(s0)
    437c:	405c                	lw	a5,4(s0)
    437e:	c81c                	sw	a5,16(s0)
    4380:	040401a3          	sb	zero,67(s0)
    4384:	a871                	j	4420 <_printf_i+0x198>
    4386:	431c                	lw	a5,0(a4)
    4388:	04240a93          	addi	s5,s0,66
    438c:	00478693          	addi	a3,a5,4
    4390:	439c                	lw	a5,0(a5)
    4392:	c314                	sw	a3,0(a4)
    4394:	04f40123          	sb	a5,66(s0)
    4398:	4785                	li	a5,1
    439a:	b7d5                	j	437e <_printf_i+0xf6>
    439c:	0407f693          	andi	a3,a5,64
    43a0:	411c                	lw	a5,0(a0)
    43a2:	c30c                	sw	a1,0(a4)
    43a4:	dab9                	beqz	a3,42fa <_printf_i+0x72>
    43a6:	07c2                	slli	a5,a5,0x10
    43a8:	87c1                	srai	a5,a5,0x10
    43aa:	bf81                	j	42fa <_printf_i+0x72>
    43ac:	0405f593          	andi	a1,a1,64
    43b0:	c308                	sw	a0,0(a4)
    43b2:	d9c9                	beqz	a1,4344 <_printf_i+0xbc>
    43b4:	0007d783          	lhu	a5,0(a5)
    43b8:	06f00713          	li	a4,111
    43bc:	0ee68863          	beq	a3,a4,44ac <_printf_i+0x224>
    43c0:	00003697          	auipc	a3,0x3
    43c4:	6d868693          	addi	a3,a3,1752 # 7a98 <__sf_fake_stdout+0x34>
    43c8:	4729                	li	a4,10
    43ca:	040401a3          	sb	zero,67(s0)
    43ce:	404c                	lw	a1,4(s0)
    43d0:	c40c                	sw	a1,8(s0)
    43d2:	0005c563          	bltz	a1,43dc <_printf_i+0x154>
    43d6:	4008                	lw	a0,0(s0)
    43d8:	996d                	andi	a0,a0,-5
    43da:	c008                	sw	a0,0(s0)
    43dc:	e399                	bnez	a5,43e2 <_printf_i+0x15a>
    43de:	8ab2                	mv	s5,a2
    43e0:	cd91                	beqz	a1,43fc <_printf_i+0x174>
    43e2:	8ab2                	mv	s5,a2
    43e4:	02e7f5b3          	remu	a1,a5,a4
    43e8:	1afd                	addi	s5,s5,-1
    43ea:	95b6                	add	a1,a1,a3
    43ec:	0005c583          	lbu	a1,0(a1)
    43f0:	00ba8023          	sb	a1,0(s5)
    43f4:	02e7d5b3          	divu	a1,a5,a4
    43f8:	0ce7f063          	bgeu	a5,a4,44b8 <_printf_i+0x230>
    43fc:	47a1                	li	a5,8
    43fe:	00f71e63          	bne	a4,a5,441a <_printf_i+0x192>
    4402:	401c                	lw	a5,0(s0)
    4404:	8b85                	andi	a5,a5,1
    4406:	cb91                	beqz	a5,441a <_printf_i+0x192>
    4408:	4058                	lw	a4,4(s0)
    440a:	481c                	lw	a5,16(s0)
    440c:	00e7c763          	blt	a5,a4,441a <_printf_i+0x192>
    4410:	03000793          	li	a5,48
    4414:	fefa8fa3          	sb	a5,-1(s5)
    4418:	1afd                	addi	s5,s5,-1
    441a:	41560633          	sub	a2,a2,s5
    441e:	c810                	sw	a2,16(s0)
    4420:	874e                	mv	a4,s3
    4422:	86ca                	mv	a3,s2
    4424:	0070                	addi	a2,sp,12
    4426:	85a2                	mv	a1,s0
    4428:	8526                	mv	a0,s1
    442a:	d53ff0ef          	jal	ra,417c <_printf_common>
    442e:	5a7d                	li	s4,-1
    4430:	0b451e63          	bne	a0,s4,44ec <_printf_i+0x264>
    4434:	557d                	li	a0,-1
    4436:	50b2                	lw	ra,44(sp)
    4438:	5422                	lw	s0,40(sp)
    443a:	5492                	lw	s1,36(sp)
    443c:	5902                	lw	s2,32(sp)
    443e:	49f2                	lw	s3,28(sp)
    4440:	4a62                	lw	s4,24(sp)
    4442:	4ad2                	lw	s5,20(sp)
    4444:	4b42                	lw	s6,16(sp)
    4446:	6145                	addi	sp,sp,48
    4448:	8082                	ret
    444a:	04d582a3          	sb	a3,69(a1)
    444e:	00003697          	auipc	a3,0x3
    4452:	64a68693          	addi	a3,a3,1610 # 7a98 <__sf_fake_stdout+0x34>
    4456:	400c                	lw	a1,0(s0)
    4458:	4308                	lw	a0,0(a4)
    445a:	0805f813          	andi	a6,a1,128
    445e:	411c                	lw	a5,0(a0)
    4460:	0511                	addi	a0,a0,4
    4462:	02080d63          	beqz	a6,449c <_printf_i+0x214>
    4466:	c308                	sw	a0,0(a4)
    4468:	0015f713          	andi	a4,a1,1
    446c:	c701                	beqz	a4,4474 <_printf_i+0x1ec>
    446e:	0205e593          	ori	a1,a1,32
    4472:	c00c                	sw	a1,0(s0)
    4474:	4741                	li	a4,16
    4476:	fbb1                	bnez	a5,43ca <_printf_i+0x142>
    4478:	400c                	lw	a1,0(s0)
    447a:	fdf5f593          	andi	a1,a1,-33
    447e:	c00c                	sw	a1,0(s0)
    4480:	b7a9                	j	43ca <_printf_i+0x142>
    4482:	419c                	lw	a5,0(a1)
    4484:	0207e793          	ori	a5,a5,32
    4488:	c19c                	sw	a5,0(a1)
    448a:	07800793          	li	a5,120
    448e:	04f402a3          	sb	a5,69(s0)
    4492:	00003697          	auipc	a3,0x3
    4496:	61a68693          	addi	a3,a3,1562 # 7aac <__sf_fake_stdout+0x48>
    449a:	bf75                	j	4456 <_printf_i+0x1ce>
    449c:	0405f813          	andi	a6,a1,64
    44a0:	c308                	sw	a0,0(a4)
    44a2:	fc0803e3          	beqz	a6,4468 <_printf_i+0x1e0>
    44a6:	07c2                	slli	a5,a5,0x10
    44a8:	83c1                	srli	a5,a5,0x10
    44aa:	bf7d                	j	4468 <_printf_i+0x1e0>
    44ac:	00003697          	auipc	a3,0x3
    44b0:	5ec68693          	addi	a3,a3,1516 # 7a98 <__sf_fake_stdout+0x34>
    44b4:	4721                	li	a4,8
    44b6:	bf11                	j	43ca <_printf_i+0x142>
    44b8:	87ae                	mv	a5,a1
    44ba:	b72d                	j	43e4 <_printf_i+0x15c>
    44bc:	4194                	lw	a3,0(a1)
    44be:	431c                	lw	a5,0(a4)
    44c0:	49cc                	lw	a1,20(a1)
    44c2:	0806f813          	andi	a6,a3,128
    44c6:	00478513          	addi	a0,a5,4
    44ca:	00080663          	beqz	a6,44d6 <_printf_i+0x24e>
    44ce:	c308                	sw	a0,0(a4)
    44d0:	439c                	lw	a5,0(a5)
    44d2:	c38c                	sw	a1,0(a5)
    44d4:	a801                	j	44e4 <_printf_i+0x25c>
    44d6:	c308                	sw	a0,0(a4)
    44d8:	0406f693          	andi	a3,a3,64
    44dc:	439c                	lw	a5,0(a5)
    44de:	daf5                	beqz	a3,44d2 <_printf_i+0x24a>
    44e0:	00b79023          	sh	a1,0(a5)
    44e4:	00042823          	sw	zero,16(s0)
    44e8:	8ab2                	mv	s5,a2
    44ea:	bf1d                	j	4420 <_printf_i+0x198>
    44ec:	4814                	lw	a3,16(s0)
    44ee:	8656                	mv	a2,s5
    44f0:	85ca                	mv	a1,s2
    44f2:	8526                	mv	a0,s1
    44f4:	9982                	jalr	s3
    44f6:	f3450fe3          	beq	a0,s4,4434 <_printf_i+0x1ac>
    44fa:	401c                	lw	a5,0(s0)
    44fc:	8b89                	andi	a5,a5,2
    44fe:	e78d                	bnez	a5,4528 <_printf_i+0x2a0>
    4500:	47b2                	lw	a5,12(sp)
    4502:	4448                	lw	a0,12(s0)
    4504:	f2f559e3          	bge	a0,a5,4436 <_printf_i+0x1ae>
    4508:	853e                	mv	a0,a5
    450a:	b735                	j	4436 <_printf_i+0x1ae>
    450c:	4685                	li	a3,1
    450e:	8656                	mv	a2,s5
    4510:	85ca                	mv	a1,s2
    4512:	8526                	mv	a0,s1
    4514:	9982                	jalr	s3
    4516:	f1650fe3          	beq	a0,s6,4434 <_printf_i+0x1ac>
    451a:	0a05                	addi	s4,s4,1
    451c:	445c                	lw	a5,12(s0)
    451e:	4732                	lw	a4,12(sp)
    4520:	8f99                	sub	a5,a5,a4
    4522:	fefa45e3          	blt	s4,a5,450c <_printf_i+0x284>
    4526:	bfe9                	j	4500 <_printf_i+0x278>
    4528:	4a01                	li	s4,0
    452a:	01940a93          	addi	s5,s0,25
    452e:	5b7d                	li	s6,-1
    4530:	b7f5                	j	451c <_printf_i+0x294>

00004532 <_sbrk_r>:
    4532:	1141                	addi	sp,sp,-16
    4534:	c422                	sw	s0,8(sp)
    4536:	842a                	mv	s0,a0
    4538:	852e                	mv	a0,a1
    453a:	c601a823          	sw	zero,-912(gp) # 200004f0 <errno>
    453e:	c606                	sw	ra,12(sp)
    4540:	f81fe0ef          	jal	ra,34c0 <_sbrk>
    4544:	57fd                	li	a5,-1
    4546:	00f51763          	bne	a0,a5,4554 <_sbrk_r+0x22>
    454a:	c7018793          	addi	a5,gp,-912 # 200004f0 <errno>
    454e:	439c                	lw	a5,0(a5)
    4550:	c391                	beqz	a5,4554 <_sbrk_r+0x22>
    4552:	c01c                	sw	a5,0(s0)
    4554:	40b2                	lw	ra,12(sp)
    4556:	4422                	lw	s0,8(sp)
    4558:	0141                	addi	sp,sp,16
    455a:	8082                	ret

0000455c <__sread>:
    455c:	1141                	addi	sp,sp,-16
    455e:	c422                	sw	s0,8(sp)
    4560:	842e                	mv	s0,a1
    4562:	00e59583          	lh	a1,14(a1)
    4566:	c606                	sw	ra,12(sp)
    4568:	2245                	jal	4708 <_read_r>
    456a:	00054963          	bltz	a0,457c <__sread+0x20>
    456e:	487c                	lw	a5,84(s0)
    4570:	97aa                	add	a5,a5,a0
    4572:	c87c                	sw	a5,84(s0)
    4574:	40b2                	lw	ra,12(sp)
    4576:	4422                	lw	s0,8(sp)
    4578:	0141                	addi	sp,sp,16
    457a:	8082                	ret
    457c:	00c45783          	lhu	a5,12(s0)
    4580:	777d                	lui	a4,0xfffff
    4582:	177d                	addi	a4,a4,-1
    4584:	8ff9                	and	a5,a5,a4
    4586:	00f41623          	sh	a5,12(s0)
    458a:	b7ed                	j	4574 <__sread+0x18>

0000458c <__swrite>:
    458c:	00c5d783          	lhu	a5,12(a1)
    4590:	1101                	addi	sp,sp,-32
    4592:	cc22                	sw	s0,24(sp)
    4594:	ca26                	sw	s1,20(sp)
    4596:	c84a                	sw	s2,16(sp)
    4598:	c64e                	sw	s3,12(sp)
    459a:	ce06                	sw	ra,28(sp)
    459c:	1007f793          	andi	a5,a5,256
    45a0:	84aa                	mv	s1,a0
    45a2:	842e                	mv	s0,a1
    45a4:	8932                	mv	s2,a2
    45a6:	89b6                	mv	s3,a3
    45a8:	c791                	beqz	a5,45b4 <__swrite+0x28>
    45aa:	00e59583          	lh	a1,14(a1)
    45ae:	4689                	li	a3,2
    45b0:	4601                	li	a2,0
    45b2:	2231                	jal	46be <_lseek_r>
    45b4:	00c45783          	lhu	a5,12(s0)
    45b8:	777d                	lui	a4,0xfffff
    45ba:	177d                	addi	a4,a4,-1
    45bc:	8ff9                	and	a5,a5,a4
    45be:	00f41623          	sh	a5,12(s0)
    45c2:	00e41583          	lh	a1,14(s0)
    45c6:	4462                	lw	s0,24(sp)
    45c8:	40f2                	lw	ra,28(sp)
    45ca:	86ce                	mv	a3,s3
    45cc:	864a                	mv	a2,s2
    45ce:	49b2                	lw	s3,12(sp)
    45d0:	4942                	lw	s2,16(sp)
    45d2:	8526                	mv	a0,s1
    45d4:	44d2                	lw	s1,20(sp)
    45d6:	6105                	addi	sp,sp,32
    45d8:	a83d                	j	4616 <_write_r>

000045da <__sseek>:
    45da:	1141                	addi	sp,sp,-16
    45dc:	c422                	sw	s0,8(sp)
    45de:	842e                	mv	s0,a1
    45e0:	00e59583          	lh	a1,14(a1)
    45e4:	c606                	sw	ra,12(sp)
    45e6:	28e1                	jal	46be <_lseek_r>
    45e8:	57fd                	li	a5,-1
    45ea:	00c45703          	lhu	a4,12(s0)
    45ee:	00f51b63          	bne	a0,a5,4604 <__sseek+0x2a>
    45f2:	77fd                	lui	a5,0xfffff
    45f4:	17fd                	addi	a5,a5,-1
    45f6:	8ff9                	and	a5,a5,a4
    45f8:	00f41623          	sh	a5,12(s0)
    45fc:	40b2                	lw	ra,12(sp)
    45fe:	4422                	lw	s0,8(sp)
    4600:	0141                	addi	sp,sp,16
    4602:	8082                	ret
    4604:	6785                	lui	a5,0x1
    4606:	8fd9                	or	a5,a5,a4
    4608:	00f41623          	sh	a5,12(s0)
    460c:	c868                	sw	a0,84(s0)
    460e:	b7fd                	j	45fc <__sseek+0x22>

00004610 <__sclose>:
    4610:	00e59583          	lh	a1,14(a1)
    4614:	a805                	j	4644 <_close_r>

00004616 <_write_r>:
    4616:	1141                	addi	sp,sp,-16
    4618:	c422                	sw	s0,8(sp)
    461a:	842a                	mv	s0,a0
    461c:	852e                	mv	a0,a1
    461e:	85b2                	mv	a1,a2
    4620:	8636                	mv	a2,a3
    4622:	c601a823          	sw	zero,-912(gp) # 200004f0 <errno>
    4626:	c606                	sw	ra,12(sp)
    4628:	e49fe0ef          	jal	ra,3470 <_write>
    462c:	57fd                	li	a5,-1
    462e:	00f51763          	bne	a0,a5,463c <_write_r+0x26>
    4632:	c7018793          	addi	a5,gp,-912 # 200004f0 <errno>
    4636:	439c                	lw	a5,0(a5)
    4638:	c391                	beqz	a5,463c <_write_r+0x26>
    463a:	c01c                	sw	a5,0(s0)
    463c:	40b2                	lw	ra,12(sp)
    463e:	4422                	lw	s0,8(sp)
    4640:	0141                	addi	sp,sp,16
    4642:	8082                	ret

00004644 <_close_r>:
    4644:	1141                	addi	sp,sp,-16
    4646:	c422                	sw	s0,8(sp)
    4648:	842a                	mv	s0,a0
    464a:	852e                	mv	a0,a1
    464c:	c601a823          	sw	zero,-912(gp) # 200004f0 <errno>
    4650:	c606                	sw	ra,12(sp)
    4652:	20cd                	jal	4734 <_close>
    4654:	57fd                	li	a5,-1
    4656:	00f51763          	bne	a0,a5,4664 <_close_r+0x20>
    465a:	c7018793          	addi	a5,gp,-912 # 200004f0 <errno>
    465e:	439c                	lw	a5,0(a5)
    4660:	c391                	beqz	a5,4664 <_close_r+0x20>
    4662:	c01c                	sw	a5,0(s0)
    4664:	40b2                	lw	ra,12(sp)
    4666:	4422                	lw	s0,8(sp)
    4668:	0141                	addi	sp,sp,16
    466a:	8082                	ret

0000466c <_fstat_r>:
    466c:	1141                	addi	sp,sp,-16
    466e:	c422                	sw	s0,8(sp)
    4670:	842a                	mv	s0,a0
    4672:	852e                	mv	a0,a1
    4674:	85b2                	mv	a1,a2
    4676:	c601a823          	sw	zero,-912(gp) # 200004f0 <errno>
    467a:	c606                	sw	ra,12(sp)
    467c:	20d1                	jal	4740 <_fstat>
    467e:	57fd                	li	a5,-1
    4680:	00f51763          	bne	a0,a5,468e <_fstat_r+0x22>
    4684:	c7018793          	addi	a5,gp,-912 # 200004f0 <errno>
    4688:	439c                	lw	a5,0(a5)
    468a:	c391                	beqz	a5,468e <_fstat_r+0x22>
    468c:	c01c                	sw	a5,0(s0)
    468e:	40b2                	lw	ra,12(sp)
    4690:	4422                	lw	s0,8(sp)
    4692:	0141                	addi	sp,sp,16
    4694:	8082                	ret

00004696 <_isatty_r>:
    4696:	1141                	addi	sp,sp,-16
    4698:	c422                	sw	s0,8(sp)
    469a:	842a                	mv	s0,a0
    469c:	852e                	mv	a0,a1
    469e:	c601a823          	sw	zero,-912(gp) # 200004f0 <errno>
    46a2:	c606                	sw	ra,12(sp)
    46a4:	2065                	jal	474c <_isatty>
    46a6:	57fd                	li	a5,-1
    46a8:	00f51763          	bne	a0,a5,46b6 <_isatty_r+0x20>
    46ac:	c7018793          	addi	a5,gp,-912 # 200004f0 <errno>
    46b0:	439c                	lw	a5,0(a5)
    46b2:	c391                	beqz	a5,46b6 <_isatty_r+0x20>
    46b4:	c01c                	sw	a5,0(s0)
    46b6:	40b2                	lw	ra,12(sp)
    46b8:	4422                	lw	s0,8(sp)
    46ba:	0141                	addi	sp,sp,16
    46bc:	8082                	ret

000046be <_lseek_r>:
    46be:	1141                	addi	sp,sp,-16
    46c0:	c422                	sw	s0,8(sp)
    46c2:	842a                	mv	s0,a0
    46c4:	852e                	mv	a0,a1
    46c6:	85b2                	mv	a1,a2
    46c8:	8636                	mv	a2,a3
    46ca:	c601a823          	sw	zero,-912(gp) # 200004f0 <errno>
    46ce:	c606                	sw	ra,12(sp)
    46d0:	2061                	jal	4758 <_lseek>
    46d2:	57fd                	li	a5,-1
    46d4:	00f51763          	bne	a0,a5,46e2 <_lseek_r+0x24>
    46d8:	c7018793          	addi	a5,gp,-912 # 200004f0 <errno>
    46dc:	439c                	lw	a5,0(a5)
    46de:	c391                	beqz	a5,46e2 <_lseek_r+0x24>
    46e0:	c01c                	sw	a5,0(s0)
    46e2:	40b2                	lw	ra,12(sp)
    46e4:	4422                	lw	s0,8(sp)
    46e6:	0141                	addi	sp,sp,16
    46e8:	8082                	ret

000046ea <memchr>:
    46ea:	0ff5f593          	andi	a1,a1,255
    46ee:	962a                	add	a2,a2,a0
    46f0:	00c51463          	bne	a0,a2,46f8 <memchr+0xe>
    46f4:	4501                	li	a0,0
    46f6:	8082                	ret
    46f8:	00054783          	lbu	a5,0(a0)
    46fc:	feb78de3          	beq	a5,a1,46f6 <memchr+0xc>
    4700:	0505                	addi	a0,a0,1
    4702:	b7fd                	j	46f0 <memchr+0x6>

00004704 <__malloc_lock>:
    4704:	8082                	ret

00004706 <__malloc_unlock>:
    4706:	8082                	ret

00004708 <_read_r>:
    4708:	1141                	addi	sp,sp,-16
    470a:	c422                	sw	s0,8(sp)
    470c:	842a                	mv	s0,a0
    470e:	852e                	mv	a0,a1
    4710:	85b2                	mv	a1,a2
    4712:	8636                	mv	a2,a3
    4714:	c601a823          	sw	zero,-912(gp) # 200004f0 <errno>
    4718:	c606                	sw	ra,12(sp)
    471a:	20a9                	jal	4764 <_read>
    471c:	57fd                	li	a5,-1
    471e:	00f51763          	bne	a0,a5,472c <_read_r+0x24>
    4722:	c7018793          	addi	a5,gp,-912 # 200004f0 <errno>
    4726:	439c                	lw	a5,0(a5)
    4728:	c391                	beqz	a5,472c <_read_r+0x24>
    472a:	c01c                	sw	a5,0(s0)
    472c:	40b2                	lw	ra,12(sp)
    472e:	4422                	lw	s0,8(sp)
    4730:	0141                	addi	sp,sp,16
    4732:	8082                	ret

00004734 <_close>:
    4734:	05800793          	li	a5,88
    4738:	c6f1a823          	sw	a5,-912(gp) # 200004f0 <errno>
    473c:	557d                	li	a0,-1
    473e:	8082                	ret

00004740 <_fstat>:
    4740:	05800793          	li	a5,88
    4744:	c6f1a823          	sw	a5,-912(gp) # 200004f0 <errno>
    4748:	557d                	li	a0,-1
    474a:	8082                	ret

0000474c <_isatty>:
    474c:	05800793          	li	a5,88
    4750:	c6f1a823          	sw	a5,-912(gp) # 200004f0 <errno>
    4754:	4501                	li	a0,0
    4756:	8082                	ret

00004758 <_lseek>:
    4758:	05800793          	li	a5,88
    475c:	c6f1a823          	sw	a5,-912(gp) # 200004f0 <errno>
    4760:	557d                	li	a0,-1
    4762:	8082                	ret

00004764 <_read>:
    4764:	05800793          	li	a5,88
    4768:	c6f1a823          	sw	a5,-912(gp) # 200004f0 <errno>
    476c:	557d                	li	a0,-1
    476e:	8082                	ret
    4770:	a3c4                	fsd	fs1,128(a5)
    4772:	f5b3e9bf afbbbcca 	0xafbbbccaf5b3e9bf
    477a:	000d                	c.nop	3
    477c:	5441                	li	s0,-16
    477e:	000d                	c.nop	3
    4780:	5441                	li	s0,-16
    4782:	0d49                	addi	s10,s10,18
    4784:	0000                	unimp
    4786:	0000                	unimp
    4788:	6946                	flw	fs2,80(sp)
    478a:	6f62                	flw	ft10,24(sp)
    478c:	006d6f63          	bltu	s10,t1,47aa <_read+0x46>
    4790:	e9b2                	fsw	fa2,208(sp)
    4792:	afd1                	j	4f66 <asc2_1608+0xbe>
    4794:	c5d0                	sw	a2,12(a1)
    4796:	a7caa2cf          	fnmadd.q	ft5,fs5,ft8,fs4,rdn
    479a:	dcb0                	sw	a2,120(s1)
    479c:	0000                	unimp
    479e:	0000                	unimp
    47a0:	e6b0                	fsw	fa2,72(a3)
    47a2:	beb1                	j	42fe <_printf_i+0x76>
    47a4:	c5d0                	sw	a2,12(a1)
    47a6:	fdd5a2cf          	0xfdd5a2cf
    47aa:	b7c8                	fsd	fa0,168(a5)
    47ac:	0000                	unimp
    47ae:	0000                	unimp
    47b0:	5441                	li	s0,-16
    47b2:	5247432b          	0x5247432b
    47b6:	4745                	li	a4,17
    47b8:	00000d3f 5247432b 	0x5247432b00000d3f
    47c0:	4745                	li	a4,17
    47c2:	203a                	fld	ft0,392(sp)
    47c4:	2c30                	fld	fa2,88(s0)
    47c6:	0031                	c.nop	12
    47c8:	5350                	lw	a2,36(a4)
    47ca:	e1b2a2d7          	0xe1b2a2d7
    47ce:	dece                	sw	s3,124(sp)
    47d0:	a7d0                	fsd	fa2,136(a5)
    47d2:	0000                	unimp
    47d4:	5350                	lw	a2,36(a4)
    47d6:	e1b2a2d7          	0xe1b2a2d7
    47da:	a7d0d0d3          	0xa7d0d0d3
    47de:	0000                	unimp
    47e0:	5441                	li	s0,-16
    47e2:	4d43542b          	0x4d43542b
    47e6:	5451                	li	s0,-12
    47e8:	5054                	lw	a3,36(s0)
    47ea:	4255                	li	tp,21
    47ec:	223d                	jal	491a <_read+0x1b6>
    47ee:	7424                	flw	fs1,104(s0)
    47f0:	6968                	flw	fa0,84(a0)
    47f2:	676e                	flw	fa4,216(sp)
    47f4:	2f70752f          	0x2f70752f
    47f8:	7270                	flw	fa2,100(a2)
    47fa:	7265706f          	j	5bf20 <_data_lma+0x54460>
    47fe:	7974                	flw	fa3,116(a0)
    4800:	4a325a2f          	0x4a325a2f
    4804:	4f35434b          	fnmsub.q	ft6,fa0,fs3,fs1,rmm
    4808:	434c                	lw	a1,4(a4)
    480a:	6d732f37          	lui	t5,0x6d732
    480e:	7261                	lui	tp,0xffff8
    4810:	4374                	lw	a3,68(a4)
    4812:	7261                	lui	tp,0xffff8
    4814:	2274                	fld	fa3,192(a2)
    4816:	312c                	fld	fa1,96(a0)
    4818:	222c                	fld	fa1,64(a2)
    481a:	6d225c7b          	0x6d225c7b
    481e:	7465                	lui	s0,0xffff9
    4820:	6f68                	flw	fa0,92(a4)
    4822:	5c64                	lw	s1,124(s0)
    4824:	3a22                	fld	fs4,40(sp)
    4826:	225c                	fld	fa5,128(a2)
    4828:	6572                	flw	fa0,28(sp)
    482a:	6f70                	flw	fa2,92(a4)
    482c:	7472                	flw	fs0,60(sp)
    482e:	225c                	fld	fa5,128(a2)
    4830:	5c2c                	lw	a1,120(s0)
    4832:	6322                	flw	ft6,8(sp)
    4834:	696c                	flw	fa1,84(a0)
    4836:	6e65                	lui	t3,0x19
    4838:	5474                	lw	a3,108(s0)
    483a:	6e656b6f          	jal	s6,5af20 <_data_lma+0x53460>
    483e:	225c                	fld	fa5,128(a2)
    4840:	5c3a                	lw	s8,172(sp)
    4842:	3122                	fld	ft2,40(sp)
    4844:	3332                	fld	ft6,296(sp)
    4846:	225c                	fld	fa5,128(a2)
    4848:	5c2c                	lw	a1,120(s0)
    484a:	7022                	flw	ft0,40(sp)
    484c:	7261                	lui	tp,0xffff8
    484e:	6d61                	lui	s10,0x18
    4850:	3a225c73          	csrrwi	s8,pmpcfg2,4
    4854:	70225c7b          	0x70225c7b
    4858:	6f72                	flw	ft10,28(sp)
    485a:	7564                	flw	fs1,108(a0)
    485c:	44497463          	bgeu	s2,tp,4ca4 <asc2_1206+0x270>
    4860:	225c                	fld	fa5,128(a2)
    4862:	5c3a                	lw	s8,172(sp)
    4864:	2522                	fld	fa0,8(sp)
    4866:	7d225c73          	csrrwi	s8,0x7d2,4
    486a:	227d                	jal	4a18 <_read+0x2b4>
    486c:	0a0d                	addi	s4,s4,3
    486e:	0000                	unimp
    4870:	6874                	flw	fa3,84(s0)
    4872:	6e69                	lui	t3,0x1a
    4874:	00000067          	jr	zero # 0 <_sinit>
    4878:	cfc9                	beqz	a5,4912 <_read+0x1ae>
    487a:	a8b1                	j	48d6 <_read+0x172>
    487c:	a7ca                	fsd	fs2,456(sp)
    487e:	dcb0                	sw	a2,120(s1)
    4880:	0000                	unimp
    4882:	0000                	unimp
    4884:	cfc9                	beqz	a5,491e <_read+0x1ba>
    4886:	a8b1                	j	48e2 <_read+0x17e>
    4888:	a6b9c9b3          	0xa6b9c9b3
    488c:	0000                	unimp
    488e:	0000                	unimp
    4890:	5441                	li	s0,-16
    4892:	50494d2b          	0x50494d2b
    4896:	4c4c4143          	0x4c4c4143
    489a:	00000d3f 4d2b0000 	0x4d2b000000000d3f
    48a2:	5049                	c.li	zero,-14
    48a4:	4c4c4143          	0x4c4c4143
    48a8:	203a                	fld	ft0,392(sp)
    48aa:	0031                	c.nop	12
    48ac:	b4ceb9bb          	0xb4ceb9bb
    48b0:	a1c8f1bb          	0xa1c8f1bb
    48b4:	bdb5                	j	4730 <_read_r+0x28>
    48b6:	5049                	c.li	zero,-14
    48b8:	0000                	unimp
    48ba:	0000                	unimp
    48bc:	5441                	li	s0,-16
    48be:	50494d2b          	0x50494d2b
    48c2:	4c4c4143          	0x4c4c4143
    48c6:	313d                	jal	44f4 <_printf_i+0x26c>
    48c8:	000d                	c.nop	3
    48ca:	0000                	unimp
    48cc:	a1c8f1bb          	0xa1c8f1bb
    48d0:	5049                	c.li	zero,-14
    48d2:	a6b9c9b3          	0xa6b9c9b3
    48d6:	0000                	unimp
    48d8:	5441                	li	s0,-16
    48da:	4443542b          	0x4443542b
    48de:	5645                	li	a2,-15
    48e0:	4e49                	li	t3,18
    48e2:	4f46                	lw	t5,80(sp)
    48e4:	3d544553          	0x3d544553
    48e8:	2c31                	jal	4b04 <asc2_1206+0xd0>
    48ea:	5a22                	lw	s4,40(sp)
    48ec:	4a32                	lw	s4,12(sp)
    48ee:	4f35434b          	fnmsub.q	ft6,fa0,fs3,fs1,rmm
    48f2:	434c                	lw	a1,4(a4)
    48f4:	222c2237          	lui	tp,0x222c2
    48f8:	72616d73          	csrrsi	s10,0x726,2
    48fc:	4374                	lw	a3,68(a4)
    48fe:	7261                	lui	tp,0xffff8
    4900:	2274                	fld	fa3,192(a2)
    4902:	222c                	fld	fa1,64(a2)
    4904:	7668                	flw	fa0,108(a2)
    4906:	7452                	flw	fs0,52(sp)
    4908:	3552                	fld	fa0,304(sp)
    490a:	50657053          	0x50657053
    490e:	7768                	flw	fa0,108(a4)
    4910:	7144                	flw	fs1,36(a0)
    4912:	354c                	fld	fa1,168(a0)
    4914:	576e                	lw	a4,248(sp)
    4916:	5244                	lw	s1,36(a2)
    4918:	5132                	lw	sp,44(sp)
    491a:	3d3d                	jal	4758 <_lseek>
    491c:	0d22                	slli	s10,s10,0x8
    491e:	0000                	unimp
    4920:	4443542b          	0x4443542b
    4924:	5645                	li	a2,-15
    4926:	4e49                	li	t3,18
    4928:	4f46                	lw	t5,80(sp)
    492a:	3a544553          	0x3a544553
    492e:	4f20                	lw	s0,88(a4)
    4930:	0000004b          	fnmsub.s	ft0,ft0,ft0,ft0,rne
    4934:	bdc6                	fsd	fa7,248(sp)
    4936:	a8cc                	fsd	fa1,144(s1)
    4938:	c5d0                	sw	a2,12(a1)
    493a:	e8c9a2cf          	fnmadd.s	ft5,fs3,fa2,ft9,rdn
    493e:	c3d6                	sw	s5,196(sp)
    4940:	a7ca                	fsd	fs2,456(sp)
    4942:	dcb0                	sw	a2,120(s1)
    4944:	0000                	unimp
    4946:	0000                	unimp
    4948:	bdc6                	fsd	fa7,248(sp)
    494a:	a8cc                	fsd	fa1,144(s1)
    494c:	c5d0                	sw	a2,12(a1)
    494e:	e8c9a2cf          	fnmadd.s	ft5,fs3,fa2,ft9,rdn
    4952:	c3d6                	sw	s5,196(sp)
    4954:	a6b9c9b3          	0xa6b9c9b3
    4958:	0000                	unimp
    495a:	0000                	unimp
    495c:	5441                	li	s0,-16
    495e:	4d43542b          	0x4d43542b
    4962:	5451                	li	s0,-12
    4964:	4354                	lw	a3,4(a4)
    4966:	3d4e4e4f          	0x3d4e4e4f
    496a:	2c31                	jal	4b86 <asc2_1206+0x152>
    496c:	3032                	fld	ft0,296(sp)
    496e:	3030                	fld	fa2,96(s0)
    4970:	2c30                	fld	fa2,88(s0)
    4972:	3432                	fld	fs0,296(sp)
    4974:	2c30                	fld	fa2,88(s0)
    4976:	2c31                	jal	4b92 <asc2_1206+0x15e>
    4978:	0d31                	addi	s10,s10,12
    497a:	0000                	unimp
    497c:	4d43542b          	0x4d43542b
    4980:	5451                	li	s0,-12
    4982:	4354                	lw	a3,4(a4)
    4984:	3a4e4e4f          	fnmadd.d	ft8,ft8,ft4,ft7,rmm
    4988:	4f20                	lw	s0,88(a4)
    498a:	432b004b          	fnmsub.d	ft0,fs6,fs2,fs0,rne
    498e:	454d                	li	a0,19
    4990:	4520                	lw	s0,72(a0)
    4992:	5252                	lw	tp,52(sp)
    4994:	203a524f          	fnmadd.s	ft4,fs4,ft3,ft4,unknown
    4998:	0034                	addi	a3,sp,8
    499a:	0000                	unimp
    499c:	acc1                	j	4c6c <asc2_1206+0x238>
    499e:	d3bd                	beqz	a5,4904 <_read+0x1a0>
    49a0:	a7ca                	fsd	fs2,456(sp)
    49a2:	dcb0                	sw	a2,120(s1)
    49a4:	0000                	unimp
    49a6:	0000                	unimp
    49a8:	5441                	li	s0,-16
    49aa:	4d43542b          	0x4d43542b
    49ae:	5451                	li	s0,-12
    49b0:	4454                	lw	a3,12(s0)
    49b2:	5349                	li	t1,-14
    49b4:	4e4e4f43          	fmadd.q	ft10,ft8,ft4,fs1,rmm
    49b8:	000d                	c.nop	3
    49ba:	0000                	unimp
    49bc:	acc1                	j	4c8c <asc2_1206+0x258>
    49be:	d3bd                	beqz	a5,4924 <_read+0x1c0>
    49c0:	a6b9c9b3          	0xa6b9c9b3
    49c4:	0000                	unimp
    49c6:	0000                	unimp
    49c8:	5441                	li	s0,-16
    49ca:	4d43542b          	0x4d43542b
    49ce:	5451                	li	s0,-12
    49d0:	5354                	lw	a3,36(a4)
    49d2:	4255                	li	tp,21
    49d4:	223d                	jal	4b02 <asc2_1206+0xce>
    49d6:	7424                	flw	fs1,104(s0)
    49d8:	6968                	flw	fa0,84(a0)
    49da:	676e                	flw	fa4,216(sp)
    49dc:	776f642f          	0x776f642f
    49e0:	2f6e                	fld	ft10,216(sp)
    49e2:	7270                	flw	fa2,100(a2)
    49e4:	7265706f          	j	5c10a <_data_lma+0x5464a>
    49e8:	7974                	flw	fa3,116(a0)
    49ea:	4a325a2f          	0x4a325a2f
    49ee:	4f35434b          	fnmsub.q	ft6,fa0,fs3,fs1,rmm
    49f2:	434c                	lw	a1,4(a4)
    49f4:	6d732f37          	lui	t5,0x6d732
    49f8:	7261                	lui	tp,0xffff8
    49fa:	4374                	lw	a3,68(a4)
    49fc:	7261                	lui	tp,0xffff8
    49fe:	2274                	fld	fa3,192(a2)
    4a00:	312c                	fld	fa1,96(a0)
    4a02:	000d                	c.nop	3
    4a04:	4d43542b          	0x4d43542b
    4a08:	5451                	li	s0,-12
    4a0a:	5354                	lw	a3,36(a4)
    4a0c:	4255                	li	tp,21
    4a0e:	203a                	fld	ft0,392(sp)
    4a10:	00004b4f          	fnmadd.s	fs6,ft0,ft0,ft0,rmm
    4a14:	a9b6                	fsd	fa3,208(sp)
    4a16:	c4d4                	sw	a3,12(s1)
    4a18:	eab1                	bnez	a3,4a6c <asc2_1206+0x38>
    4a1a:	a7caa9c7          	fmsub.q	fs3,fs5,ft8,fs4,rdn
    4a1e:	dcb0                	sw	a2,120(s1)
    4a20:	0000                	unimp
    4a22:	0000                	unimp
    4a24:	a9b6                	fsd	fa3,208(sp)
    4a26:	c4d4                	sw	a3,12(s1)
    4a28:	eab1                	bnez	a3,4a7c <asc2_1206+0x48>
    4a2a:	c9b3a9c7          	fmsub.s	fs3,ft7,fs11,fs9,rdn
    4a2e:	a6b9                	j	4d7c <asc2_1206+0x348>
    4a30:	0000                	unimp
	...

00004a34 <asc2_1206>:
	...
    4a44:	403f 0000 0000 0000 0000 0030 0040 0030     ?@........0.@.0.
    4a54:	0040 0000 0009 c00b 003d c00b 003d 0009     @.......=...=...
    4a64:	c018 4024 e07f 4022 8031 0000 0018 c024     ..$@.."@1.....$.
    4a74:	001b 800d 4032 8001 8003 401c 4027 801c     ....2@.....@'@..
    4a84:	4007 4000 0010 0060 0000 0000 0000 0000     .@.@..`.........
    4a94:	0000 0000 0000 801f 4020 2040 0000 2040     ........ @@ ..@ 
    4aa4:	4020 801f 0000 0000 0009 0006 801f 0006      @..............
    4ab4:	0009 0000 0004 0004 803f 0004 0004 0000     ........?.......
    4ac4:	1000 6000 0000 0000 0000 0000 0004 0004     ...`............
    4ad4:	0004 0004 0004 0000 0000 4000 0000 0000     ...........@....
    4ae4:	0000 0000 2000 c001 0006 0038 0040 0000     ..... ....8.@...
    4af4:	801f 4020 4020 4020 801f 0000 0000 4010     .. @ @ @.......@
    4b04:	c03f 4000 0000 0000 c018 4021 4022 4024     ?..@......!@"@$@
    4b14:	4018 0000 8010 4020 4024 4024 801b 0000     .@.... @$@$@....
    4b24:	0002 000d 0011 c03f 4001 0000 803c 4024     ......?..@..<.$@
    4b34:	4024 4024 8023 0000 801f 4024 4024 4034     $@$@#.....$@$@4@
    4b44:	8003 0000 0030 0020 c027 0038 0020 0000     ....0. .'.8. ...
    4b54:	801b 4024 4024 4024 801b 0000 001c c022     ..$@$@$@......".
    4b64:	4022 4022 801f 0000 0000 0000 4008 0000     "@"@.........@..
	...
    4b7c:	6004 0000 0000 0000 0000 0004 000a 0011     .`..............
    4b8c:	8020 4040 0009 0009 0009 0009 0009 0000      .@@............
    4b9c:	0000 4040 8020 0011 000a 0004 0018 0020     ..@@ ......... .
    4bac:	4023 0024 0018 0000 801f 4020 4027 4029     #@$....... @'@)@
    4bbc:	401f 0000 4000 c007 0039 000f c001 4000     .@...@..9......@
    4bcc:	4020 c03f 4024 4024 801b 0000 801f 4020      @?.$@$@...... @
    4bdc:	4020 4020 8030 0000 4020 c03f 4020 4020      @ @0... @?. @ @
    4bec:	801f 0000 4020 c03f 4024 402e c030 0000     .... @?.$@.@0...
    4bfc:	4020 c03f 4024 002e 0030 0000 000f 8010      @?.$@..0.......
    4c0c:	4020 4022 8033 0002 4020 c03f 0004 0004      @"@3... @?.....
    4c1c:	c03f 4020 4020 4020 c03f 4020 4020 0000     ?. @ @ @?. @ @..
    4c2c:	6000 2020 2020 c03f 0020 0020 4020 c03f     .`    ?. . . @?.
    4c3c:	4024 000b c030 4020 4020 c03f 4020 4000     $@..0. @ @?. @.@
    4c4c:	4000 c000 c03f 003c c003 003c c03f 0000     .@..?.<...<.?...
    4c5c:	4020 c03f 400c 0023 c03f 0020 801f 4020      @?..@#.?. ... @
    4c6c:	4020 4020 801f 0000 4020 c03f 4024 0024      @ @.... @?.$@$.
    4c7c:	0018 0000 801f 4021 4021 e020 a01f 0000     ......!@!@ .....
    4c8c:	4020 c03f 4024 0026 c019 4000 c018 4024      @?.$@&....@..$@
    4c9c:	4024 4022 8031 0000 0030 4020 c03f 4020     $@"@1...0. @?. @
    4cac:	0030 0000 0020 803f 4000 4000 803f 0020     0... .?..@.@?. .
    4cbc:	0020 003e c001 0007 0038 0020 0038 c007      .>.....8. .8...
    4ccc:	003c c007 0038 0000 4020 c039 0006 c039     <...8... @9...9.
    4cdc:	4020 0000 0020 4038 c007 4038 0020 0000      @.. .8@..8@ ...
    4cec:	4030 c021 4026 4038 c020 0000 0000 0000     0@!.&@8@ .......
    4cfc:	e07f 2040 2040 0000 0000 0070 000c 8003     ..@ @ ....p.....
    4d0c:	4000 0000 0000 2040 2040 e07f 0000 0000     .@....@ @ ......
    4d1c:	0000 0020 0040 0020 0000 0000 1000 1000     .. .@. .........
    4d2c:	1000 1000 1000 1000 0000 0000 0040 0000     ............@...
    4d3c:	0000 0000 0000 8002 4005 4005 c003 4000     .........@.@...@
    4d4c:	0020 c03f 4004 4004 8003 0000 0000 8003      .?..@.@........
    4d5c:	4004 4004 4006 0000 0000 8003 4004 4024     .@.@.@.......@$@
    4d6c:	c03f 4000 0000 8003 4005 4005 4003 0000     ?..@.....@.@.@..
    4d7c:	0000 4004 c01f 4024 4024 0020 0000 e002     ...@..$@$@ .....
    4d8c:	5005 5005 5006 2004 4020 c03f 4004 0004     .P.P.P.  @?..@..
    4d9c:	c003 4000 0000 4004 c027 4000 0000 0000     ...@...@'..@....
    4dac:	1000 1000 1004 e027 0000 0000 4020 c03f     ......'..... @?.
    4dbc:	4001 0007 c004 4004 4020 4020 c03f 4000     .@.....@ @ @?..@
    4dcc:	4000 0000 c007 0004 c007 0004 c003 0000     .@..............
    4ddc:	4004 c007 4004 0004 c003 4000 0000 8003     .@...@.....@....
    4dec:	4004 4004 8003 0000 1004 f007 5004 4004     .@.@.........P.@
    4dfc:	8003 0000 0000 8003 4004 5004 f007 1000     .........@.P....
    4e0c:	4004 c007 4002 0004 0004 0000 0000 4006     .@...@.........@
    4e1c:	4005 4005 c004 0000 0000 0004 801f 4004     .@.@...........@
    4e2c:	4000 0000 0004 8007 4000 4004 c007 4000     .@.......@.@...@
    4e3c:	0004 0007 c004 8001 0006 0004 0006 c001     ................
    4e4c:	0007 c001 0006 0000 4004 c006 0001 c006     .........@......
    4e5c:	4004 0000 1004 1007 e004 8001 0006 0004     .@..............
    4e6c:	0000 4004 c005 4006 4004 0000 0000 0000     ...@...@.@......
    4e7c:	0004 e07b 2040 0000 0000 0000 0000 f0ff     ..{.@ ..........
    4e8c:	0000 0000 0000 2040 e07b 0004 0000 0000     ......@ {.......
    4e9c:	0040 0080 0040 0020 0020 0040               @...@. . .@.

00004ea8 <asc2_1608>:
	...
    4ebc:	0000 cc1f 0c00 0000 0000 0000 0000 0008     ................
    4ecc:	0030 0060 0008 0030 0060 0000 2002 fc03     0.`...0.`.... ..
    4edc:	201e 2002 fc03 201e 2002 0000 0000 180e     . . ... . ......
    4eec:	0411 ff3f 8410 780c 0000 0000 000f 8410     ..?....x........
    4efc:	380f c000 7807 8418 7800 0000 7800 840f     .8...x...x...x..
    4f0c:	c410 2411 980e e400 8400 0800 0008 0068     ...$..........h.
    4f1c:	0070 0000 0000 0000 0000 0000 0000 0000     p...............
    4f2c:	0000 e007 1818 0420 0240 0000 0000 0240     ...... .@.....@.
    4f3c:	0420 1818 e007 0000 0000 0000 4002 4002      ............@.@
    4f4c:	8001 f00f 8001 4002 4002 0000 8000 8000     .......@.@......
    4f5c:	8000 f80f 8000 8000 8000 0000 0100 0d00     ................
    4f6c:	0e00 0000 0000 0000 0000 0000 0000 8000     ................
    4f7c:	8000 8000 8000 8000 8000 8000 0000 0c00     ................
    4f8c:	0c00 0000 0000 0000 0000 0000 0000 0600     ................
    4f9c:	1800 6000 8001 0006 0018 0020 0000 f007     ...`...... .....
    4fac:	0808 0410 0410 0808 f007 0000 0000 0408     ................
    4fbc:	0408 fc1f 0400 0400 0000 0000 0000 0c0e     ................
    4fcc:	1410 2410 4410 8411 0c0e 0000 0000 180c     ...$.D..........
    4fdc:	0410 0411 0411 8812 700c 0000 0000 e000     .........p......
    4fec:	2003 2404 2408 fc1f 2400 0000 0000 981f     . .$.$...$......
    4ffc:	8410 0411 0411 8810 7010 0000 0000 f007     .........p......
    500c:	8808 0411 0411 8818 7000 0000 0000 001c     .........p......
    501c:	0010 fc10 0013 001c 0010 0000 0000 380e     ...............8
    502c:	4411 8410 8410 4411 380e 0000 0000 0007     .D.....D.8......
    503c:	8c08 4410 4410 8808 f007 0000 0000 0000     ...D.D..........
    504c:	0000 0c03 0c03 0000 0000 0000 0000 0000     ................
    505c:	0100 0601 0000 0000 0000 0000 0000 8000     ................
    506c:	4001 2002 1004 0808 0410 0000 2002 2002     .@. ......... . 
    507c:	2002 2002 2002 2002 2002 0000 0000 0410     . . . . . ......
    508c:	0808 1004 2002 4001 8000 0000 0000 000e     ..... .@........
    509c:	0012 0c10 6c10 8010 000f 0000 e003 180c     .....l..........
    50ac:	e413 2414 c417 2808 d007 0000 0400 3c00     ...$...(.......<
    50bc:	c403 401c 4007 e400 1c00 0400 0410 fc1f     ...@.@..........
    50cc:	0411 0411 0411 880e 7000 0000 e003 180c     .........p......
    50dc:	0410 0410 0410 0810 101c 0000 0410 fc1f     ................
    50ec:	0410 0410 0410 0808 f007 0000 0410 fc1f     ................
    50fc:	0411 0411 c417 0410 1808 0000 0410 fc1f     ................
    510c:	0411 0011 c017 0010 0008 0000 e003 180c     ................
    511c:	0410 0410 4410 781c 4000 0000 0410 fc1f     .....D.x.@......
    512c:	8410 8000 8000 8410 fc1f 0410 0000 0410     ................
    513c:	0410 fc1f 0410 0410 0000 0000 0300 0100     ................
    514c:	0110 0110 fe1f 0010 0010 0000 0410 fc1f     ................
    515c:	0411 8003 6414 1c18 0410 0000 0410 fc1f     .....d..........
    516c:	0410 0400 0400 0400 0c00 0000 0410 fc1f     ................
    517c:	001f fc00 001f fc1f 0410 0000 0410 fc1f     ................
    518c:	040c 0003 e000 1810 fc1f 0010 f007 0808     ................
    519c:	0410 0410 0410 0808 f007 0000 0410 fc1f     ................
    51ac:	8410 8010 8010 8010 000f 0000 f007 1808     ................
    51bc:	2410 2410 1c10 0a08 f207 0000 0410 fc1f     .$.$............
    51cc:	0411 0011 c011 3011 0c0e 0400 0000 1c0e     .......0........
    51dc:	0411 8410 8410 4410 381c 0000 0018 0010     .......D.8......
    51ec:	0410 fc1f 0410 0010 0018 0000 0010 f81f     ................
    51fc:	0410 0400 0400 0410 f81f 0010 0010 001e     ................
    520c:	e011 1c00 7000 8013 001c 0010 c01f 3c10     .....p.........<
    521c:	e000 001f e000 3c10 c01f 0000 0410 0c18     .......<........
    522c:	3416 c001 c001 3416 0c18 0410 0010 001c     .4.....4........
    523c:	0413 fc00 0413 001c 0010 0000 0408 1c10     ................
    524c:	6410 8410 0413 041c 1810 0000 0000 0000     .d..............
    525c:	0000 fe7f 0240 0240 0240 0000 0000 0030     ....@.@.@.....0.
    526c:	000c 8003 6000 1c00 0300 0000 0000 0240     .....`........@.
    527c:	0240 0240 fe7f 0000 0000 0000 0000 0000     @.@.............
    528c:	0020 0040 0040 0040 0020 0000 0100 0100      .@.@.@. .......
    529c:	0100 0100 0100 0100 0100 0100 0000 0040     ..............@.
    52ac:	0040 0020 0000 0000 0000 0000 0000 9800     @. .............
    52bc:	2401 4401 4401 4401 fc00 0400 0010 fc1f     .$.D.D.D........
    52cc:	8800 0401 0401 8800 7000 0000 0000 7000     .........p.....p
    52dc:	8800 0401 0401 0401 8800 0000 0000 7000     ...............p
    52ec:	8800 0401 0401 0811 fc1f 0400 0000 f800     ................
    52fc:	4401 4401 4401 4401 c800 0000 0000 0401     .D.D.D.D........
    530c:	0401 fc0f 0411 0411 0011 0018 0000 d600     ................
    531c:	2901 2901 2901 c901 0601 0000 0410 fc1f     .).).)..........
    532c:	8400 0001 0001 0401 fc00 0400 0000 0401     ................
    533c:	0419 fc19 0400 0400 0000 0000 0000 0300     ................
    534c:	0100 0101 0119 fe19 0000 0000 0410 fc1f     ................
    535c:	2400 4000 b401 0c01 0401 0000 0000 0410     .$.@............
    536c:	0410 fc1f 0400 0400 0000 0000 0401 fc01     ................
    537c:	0401 0001 fc01 0401 0001 fc00 0401 fc01     ................
    538c:	8400 0001 0001 0401 fc00 0400 0000 f800     ................
    539c:	0401 0401 0401 0401 f800 0000 0101 ff01     ................
    53ac:	8500 0401 0401 8800 7000 0000 0000 7000     .........p.....p
    53bc:	8800 0401 0401 0501 ff01 0100 0401 0401     ................
    53cc:	fc01 8400 0401 0001 8001 0000 0000 cc00     ................
    53dc:	2401 2401 2401 2401 9801 0000 0000 0001     .$.$.$.$........
    53ec:	0001 f807 0401 0401 0000 0000 0001 f801     ................
    53fc:	0400 0400 0400 0801 fc01 0400 0001 8001     ................
    540c:	7001 0c00 1000 6001 8001 0001 f001 0c01     .p.....`........
    541c:	3000 c001 3000 0c01 f001 0001 0000 0401     .0...0..........
    542c:	8c01 7400 7001 8c01 0401 0000 0101 8101     ...t.p..........
    543c:	7101 0e00 1800 6001 8001 0001 0000 8401     .q.....`........
    544c:	0c01 3401 4401 8401 0c01 0000 0000 0000     ...4.D..........
    545c:	0000 0000 0001 fc3e 0240 0240 0000 0000     ......>.@.@.....
    546c:	0000 0000 ffff 0000 0000 0000 0000 0240     ..............@.
    547c:	0240 fc3e 0001 0000 0000 0000 0000 0060     @.>...........`.
    548c:	0080 0080 0040 0040 0020 0020               ....@.@. . .

00005498 <asc2_2412>:
	...
    54c8:	0000 0f00 3880 fe0f 0f38 3880 0000 0000     .....8..8..8....
	...
    54e4:	0000 0001 0600 0000 000c 3800 0000 0031     ...........8..1.
    54f4:	0600 0000 000c 3800 0000 0030 0000 0000     .......8..0.....
    5504:	0000 0000 8061 6700 07f8 80f9 6100 0080     ....a..g.....a..
    5514:	8061 6100 0080 8061 6700 07f8 80f9 6100     a..a..a..g.....a
    5524:	0080 0000 0000 0000 0000 c001 03e0 f0e0     ................
    5534:	3006 0408 0818 ff1f 04fe 080e 8707 03f0     .0..............
    5544:	e081 0000 0000 0000 f001 0600 000c 0404     ................
    5554:	0608 700c f901 00c0 000e 3b00 00e0 18ec     ...p.......;....
    5564:	0807 0408 180c 0300 00e0 0000 0100 00e0     ................
    5574:	f007 f803 0418 081c 1704 0708 d0e1 c003     ................
    5584:	00e0 b023 3c00 0008 0820 0000 0010 0000     ..#..<.. .......
    5594:	0000 0100 0000 0031 3200 0000 001c 0000     ......1..2......
	...
    55c8:	007f ff01 07c0 f080 000c 1018 0400 0020     .............. .
    55d8:	0002 0000 0000 2000 0200 0010 0c04 1800     ....... ........
    55e8:	8007 01f0 c0ff 7f00 0000 0000 0000 0000     ................
	...
    5604:	0042 6600 0000 0066 3c00 0000 0018 ff03     B..f..f..<......
    5614:	00c0 0018 3c00 0000 0066 6600 0000 0042     .....<..f..f..B.
    5624:	0000 0000 0008 0800 0000 0008 0800 0000     ................
    5634:	0008 ff01 00c0 0008 0800 0000 0008 0800     ................
    5644:	0000 0008 0000 0000 0100 0000 0031 3200     ............1..2
    5654:	0000 001c 0000 0000 0000 0000 0000 0000     ................
	...
    5670:	0008 0800 0000 0008 0800 0000 0008 0800     ................
    5680:	0000 0008 0800 0000 0008 0800 0000 0000     ................
	...
    5698:	0038 3800 0000 0038 0000 0000 0000 0000     8..8..8.........
	...
    56b8:	0600 0000 001c 7000 0100 0080 000e 3800     .......p.......8
    56c8:	0000 00c0 0007 1c00 0000 0030 0000 0000     ..........0.....
    56d8:	0000 0000 807f ff01 03e0 7080 0006 0418     ...........p....
    56e8:	0800 0004 0608 1800 8003 0170 e0ff 7f00     ..........p.....
    56f8:	0080 0000 0000 0000 0000 0001 0108 0800     ................
    5708:	0001 0308 f8ff ff07 00f8 0800 0000 0008     ................
    5718:	0800 0000 0000 0000 0000 0100 38c0 c002     .............8..
    5728:	0458 9800 0104 0418 1802 0404 0618 181c     X...............
    5738:	f803 0118 f8e0 0000 0000 0000 0000 0100     ................
    5748:	e0c0 c003 04f0 0800 0804 0408 0808 1806     ................
    5758:	0308 18f4 e701 00f0 e001 0000 0000 0000     ................
    5768:	0000 0000 0003 0d00 0000 0011 6100 0000     .............a..
    5778:	0881 0103 0708 f8ff ff0f 00f8 0801 0100     ................
    5788:	0008 0000 0000 0000 e000 fc07 06d0 0808     ................
    5798:	1006 0608 0810 1006 0608 3818 0f06 06f0     ...........8....
    57a8:	c007 0000 0000 0000 0000 0000 803f ff01     ............?...
    57b8:	03e0 3084 0802 0418 0810 1004 0408 0810     ...0............
    57c8:	1807 0310 f00f 0700 00c0 0000 0000 0000     ................
    57d8:	0000 c003 0700 0000 0006 0600 f800 0706     ................
    57e8:	06f8 0018 e006 0700 0000 0006 0000 0000     ................
    57f8:	0000 0100 e0e1 f703 06f0 1034 1804 0408     ..........4.....
    5808:	0818 0c04 0408 080c 1606 0318 f0f3 c101     ................
    5818:	00e0 0000 0000 0000 00f8 fc03 0330 3806     ............0..8
    5828:	0204 0408 0802 0204 0408 1004 0803 01f0     ................
    5838:	c0ff 7f00 0000 0000 0000 0000 0000 0000     ................
	...
    5850:	3870 7000 0038 3870 0000 0000 0000 0000     p8.p8.p8........
	...
    5874:	1a30 3000 001c 0000 0000 0000 0000 0000     0..0............
	...
    588c:	0000 0800 0000 0014 2200 0000 0041 8000     ........."..A...
    589c:	0180 4000 0002 0420 1000 0008 0008 0000     ...@.. .........
    58ac:	0000 0000 0021 2100 0000 0021 2100 0000     ....!..!..!..!..
    58bc:	0021 2100 0000 0021 2100 0000 0021 2100     !..!..!..!..!..!
	...
    58d4:	0000 0008 0408 1000 0002 0120 4000 8000     .......... ..@..
    58e4:	0080 0041 2200 0000 0014 0800 0000 0000     ..A.."..........
    58f4:	0000 0300 00c0 c004 0400 0000 0008 0838     ..............8.
    5904:	380f 0808 0838 0010 300c 0700 00e0 c003     .8..8....0......
	...
    591c:	803f ff00 03e0 7080 0f02 0610 8870 c004     ?......p....p...
    592c:	0488 0883 7f04 0288 90c0 0103 0020 40fe     ............ ..@
    593c:	0000 0008 1800 0100 00f8 083e c201 0700     ..........>.....
    594c:	0002 e207 0000 00fe 1f00 00c8 f801 0000     ................
    595c:	0038 0800 0004 0708 f8ff ff07 04f8 0808     8...............
    596c:	0804 0408 0808 0804 0608 0818 f403 0118     ................
    597c:	f0e7 0100 00e0 0000 0000 0000 803f ff01     ............?...
    598c:	03e0 7080 0002 0418 0800 0004 0408 0800     ...p............
    599c:	0004 0610 2000 8007 00c0 0000 0004 0708     ..... ..........
    59ac:	f8ff ff07 04f8 0800 0004 0408 0800 0004     ................
    59bc:	0218 1000 8003 0170 e0ff 7f00 0080 0000     ......p.........
    59cc:	0004 0708 f8ff ff07 04f8 0808 0804 0408     ................
    59dc:	0808 0804 0408 083e 0004 0608 1800 0001     ......>.........
    59ec:	0060 0000 0004 0708 f8ff ff07 04f8 0808     `...............
    59fc:	0804 0400 0008 0804 0400 003e 0006 0600     ..........>.....
    5a0c:	0000 8001 0000 0000 0000 0000 803f ff01     ............?...
    5a1c:	03e0 7080 0006 0418 0800 0204 0408 0802     ...p............
    5a2c:	0302 07f0 f083 0200 0000 0002 0004 0708     ................
    5a3c:	f8ff ff07 04f8 0808 0800 0000 0008 0800     ................
    5a4c:	0000 0008 0804 0708 f8ff ff07 04f8 0800     ................
    5a5c:	0000 0000 0000 0004 0408 0800 0004 0708     ................
    5a6c:	f8ff ff07 04f8 0800 0004 0408 0800 0000     ................
	...
    5a84:	0600 0000 0007 0100 0004 0401 0100 0004     ................
    5a94:	0703 feff ff07 04fc 0000 0004 0400 0000     ................
    5aa4:	0004 0708 f8ff ff07 04f8 080c 1800 0000     ................
    5ab4:	003e c704 0580 c803 0006 04f8 3800 0004     >............8..
    5ac4:	0018 0800 0004 0708 f8ff ff07 04f8 0800     ................
    5ad4:	0000 0008 0800 0000 0008 0800 0000 0008     ................
    5ae4:	1800 0000 0060 0000 0004 0708 f8ff 8007     ....`...........
    5af4:	0708 00fc 7f00 00c0 f803 0700 00c0 0078     ..............x.
    5b04:	8007 0708 f8ff ff07 04f8 0800 0004 0708     ................
    5b14:	f8ff 0007 0308 00c0 e000 0000 0038 1e00     ............8...
    5b24:	0000 0007 0100 04c0 f000 ff07 04f8 0000     ................
    5b34:	0000 0000 807f ff01 03e0 7080 0006 0418     ...........p....
    5b44:	0800 0004 0608 1800 0003 0130 e0ff 7f00     ..........0.....
    5b54:	0080 0000 0004 0708 f8ff ff07 04f8 0804     ................
    5b64:	0404 0400 0004 0404 0400 0004 0c06 0300     ................
    5b74:	00f8 f001 0000 0000 0000 0000 807f ff01     ................
    5b84:	03e0 7080 0006 0488 8800 0004 06c8 3c00     ...p...........<
    5b94:	0003 013e e6ff 7f00 0084 0000 0004 0708     ..>.............
    5ba4:	f8ff ff07 04f8 0808 0804 0400 000c 0f04     ................
    5bb4:	0400 c00b 1006 03f0 38f0 e001 0008 0800     .........8......
    5bc4:	0000 0100 f8e0 f003 0630 1030 1804 0408     ........0.0.....
    5bd4:	0818 0c04 0408 080c 0602 0218 f007 8107     ................
    5be4:	00e0 0000 8001 0600 0000 0004 0400 0000     ................
    5bf4:	0004 0708 f8ff ff07 04f8 0800 0004 0400     ................
    5c04:	0000 0006 0100 0080 0004 0700 e0ff ff07     ................
    5c14:	04f0 1800 0000 0008 0800 0000 0008 0800     ................
    5c24:	0000 0408 1000 ff07 04e0 0000 0004 0600     ................
    5c34:	0000 e007 0700 00fe 1f04 00e0 f801 0000     ................
    5c44:	0038 e001 3e04 0700 00c0 0006 0400 0000     8....>..........
    5c54:	0004 0700 00e0 ff07 04c0 f81f 0700 07c0     ................
    5c64:	00f8 ff07 0480 f83f 0700 04c0 00f8 0007     ......?.........
    5c74:	0400 0000 0000 0400 0800 0006 0718 78c0     ...............x
    5c84:	f105 00c8 003e 1f00 0480 e863 8007 06f8     ....>.....c.....
    5c94:	1800 0004 0008 0000 0004 0600 0000 8007     ................
    5ca4:	0700 08e0 7c04 0008 f81f 0700 00f8 0818     .....|..........
    5cb4:	e004 0708 0000 0006 0400 0000 0000 0100     ................
    5cc4:	0800 0006 0438 f800 0304 04e8 080f 7c04     ....8..........|
    5cd4:	0508 08f0 c007 0708 1800 0004 0060 0000     ............`...
	...
    5cf0:	0000 3f00 feff 0020 2002 0200 0020 2002     ...?.. .. .. .. 
    5d00:	0200 0020 0002 0000 0000 0000 0000 0008     .. .............
    5d10:	0700 0000 c000 0000 0038 0600 0000 c001     ........8.......
    5d20:	0000 0030 0e00 0000 0001 0000 0000 0000     ..0.............
    5d30:	0000 0020 2002 0200 0020 2002 0200 0020     .. .. .. .. .. .
    5d40:	3f02 feff 0000 0000 0000 0000 0000 0000     .?..............
	...
    5d58:	0800 0000 0010 3000 0000 0020 3000 0000     .......0.. ..0..
    5d68:	0010 0800 0000 0000 0000 0000 0000 0001     ................
    5d78:	0100 0000 0001 0100 0000 0001 0100 0000     ................
    5d88:	0001 0100 0000 0001 0100 0000 0001 0100     ................
	...
    5da0:	2000 0000 0020 1000 0000 0010 0000 0000     . .. ...........
	...
    5dc0:	f000 1900 00f8 181b 2200 0008 0826 2400     ........."..&..$
    5dd0:	0008 1024 3f00 00f8 f81f 0000 0008 1800     ..$..?..........
    5de0:	0000 0400 0000 ff07 0ff8 f0ff 1800 0018     ................
    5df0:	0810 2000 0008 0820 3000 0018 f01f 0f00     ... .. ..0......
    5e00:	00c0 0000 0000 0000 c007 1f00 00f0 3018     ...............0
    5e10:	2000 0008 0820 2000 0008 083c 1c00 0010     . .. .. ..<.....
    5e20:	6000 0000 0000 0000 0000 0000 c007 1f00     .`..............
    5e30:	00f0 1838 2000 0008 0820 2000 0408 1010     ..8.. .. .. ....
    5e40:	ff07 0ff8 f0ff 0000 0010 0000 0000 0000     ................
    5e50:	0000 0700 00c0 f01f 1200 0030 1822 2200     ..........0.".."
    5e60:	0008 0822 3200 0008 101e 0e00 0020 0000     .."..2...... ...
    5e70:	0000 0000 0020 2000 0008 0820 ff01 03f8     .... .. .. .....
    5e80:	f8ff 2006 0408 0820 2004 0708 0020 0003     ... .. .. .. ...
	...
    5e98:	0e00 0e00 006e f31f 3100 00b1 b120 2000     ....n....1.. .. 
    5ea8:	00b1 9131 1f00 0013 1e2e 2000 000e 0030     ..1........ ..0.
    5eb8:	0000 0400 0800 ff07 0ff8 f8ff 1000 0008     ................
    5ec8:	0020 2000 0000 0820 3f00 00f8 f81f 0000      .. .. ..?......
    5ed8:	0008 0000 0000 0000 0000 2000 0008 0820     ........... .. .
    5ee8:	2000 0608 f83f 3f06 00f8 0800 0000 0008     . ..?..?........
    5ef8:	0800 0000 0000 0000 0000 0000 0000 0000     ................
    5f08:	0003 0300 2000 0001 0120 2000 0603 fe3f     ..... .. .. ..?.
    5f18:	3f06 00fc 0000 0000 0000 0000 0000 0400     .?..............
    5f28:	0800 ff07 0ff8 f8ff 0100 0088 0003 2f00     .............../
    5f38:	00c0 f838 2000 0038 0820 0000 0008 0000     ..8.. 8. .......
    5f48:	0000 0000 0000 0004 0408 0800 0004 0708     ................
    5f58:	f8ff ff0f 00f8 0800 0000 0008 0800 0000     ................
    5f68:	0000 0000 2000 0008 f83f 3f00 00f8 0810     ..... ..?..?....
    5f78:	2000 0000 f83f 3f00 00f8 0810 2000 0000     . ..?..?..... ..
    5f88:	f83f 3f00 00f8 0800 0000 0000 0820 3f00     ?..?........ ..?
    5f98:	00f8 f83f 1000 0008 0010 2000 0000 0820     ..?........ .. .
    5fa8:	3f00 00f8 f81f 0000 0008 0000 0000 0000     .?..............
    5fb8:	c007 0f00 00f0 3018 3000 0008 0820 2000     .......0.0.. .. 
    5fc8:	0008 0830 1800 0030 f00f 0700 00c0 0000     ..0...0.........
    5fd8:	0000 0000 0120 3f00 00ff ff3f 1000 0011     .... ..?..?.....
    5fe8:	0920 2000 0008 0820 3000 0038 f01f 0f00      .. .. ..08.....
    5ff8:	00c0 0000 0000 0000 c007 1f00 00f0 1838     ..............8.
    6008:	2000 0008 0820 2000 0009 1110 1f00 00ff     . .. .. ........
    6018:	ff3f 0000 0001 0000 2000 0008 0820 2000     ?........ .. .. 
    6028:	0008 f83f 3f00 00f8 0808 1000 0008 0820     ..?..?........ .
    6038:	2000 0000 0030 3000 0000 0000 0000 0000     . ..0..0........
    6048:	0000 0c00 0078 181e 3300 0008 0823 2100     ....x....3..#..!
    6058:	0008 8821 2100 0098 f030 3800 0060 0000     ..!..!..0..8`...
    6068:	0000 0000 0020 2000 0000 0020 ff00 03f0     .... .. .. .....
    6078:	f8ff 2000 0008 0820 2000 0008 3000 0000     ... .. .. ...0..
	...
    6090:	0020 3f00 00f0 f87f 0000 0018 0800 0000      ..?............
    60a0:	0008 1020 3f00 00f8 f07f 0000 0010 0000     .. ..?..........
    60b0:	0000 0000 0020 3000 0000 003c 3f00 0080     .... ..0..<..?..
    60c0:	f023 0000 0078 7000 2300 0080 003c 3000     #...x..p.#..<..0
    60d0:	0000 0020 2000 0000 003c 3f00 00e0 f823     .. .. ..<..?..#.
    60e0:	0000 00e0 0027 3e00 0000 e03f 2100 00f8     ....'..>..?..!..
    60f0:	e001 3e00 0000 0020 0000 0000 0820 2000     ...>.. ..... .. 
    6100:	0008 3838 3e00 0068 8027 0300 00c8 f82c     ..88.>h.'.....,.
    6110:	3800 0038 1820 2000 0008 0000 0000 0000     .88. .. ........
    6120:	0020 3000 0003 013c 3f00 0083 ec23 0000      ..0..<..?..#...
    6130:	0070 8023 3c00 0000 0020 2000 0000 0000     p.#..<.. .. ....
    6140:	0000 0000 0000 3800 0008 3820 2000 00f8     .......8.. 8. ..
    6150:	e823 2f00 0088 083e 3800 0008 1820 0000     #../..>..8.. ...
    6160:	0070 0000 0000 0000 0000 0000 0000 0000     p...............
    6170:	0000 0000 0008 1400 1f00 fcf7 0030 2006     ............0.. 
    6180:	0200 0000 0000 0000 0000 0000 0000 0000     ................
	...
    6198:	0000 ffff 00ff 0000 0000 0000 0000 0000     ................
	...
    61b0:	0000 0020 3002 0600 f71f 00fc 0014 0800     .. ..0..........
	...
    61d0:	0000 1800 0000 0060 4000 0000 0040 2000     ......`..@..@.. 
    61e0:	0000 0010 0800 0000 0004 0400 0000 000c     ................
    61f0:	1000 0000                                   ....

000061f4 <asc2_3216>:
	...
    624c:	f007 c000 ff07 e0e1 f007 e001 0000 c000     ................
	...
    627c:	2000 0000 c001 0000 8007 0000 001f 0000     . ..............
    628c:	001e 0000 201c 0000 c001 0000 8007 0000     ..... ..........
    629c:	001f 0000 001e 0000 001c 0000 0000 0000     ................
	...
    62b8:	1800 000c 1800 000c 1800 e00f 1f00 00fc     ................
    62c8:	f803 000c 1800 000c 1800 000c 1800 000c     ................
    62d8:	1800 000c 1800 e00f 1f00 00fc f803 000c     ................
    62e8:	1800 000c 1800 000c 0000 0000 0000 0000     ................
    62f8:	0000 0000 0000 8007 7800 c007 fc00 4006     .........x.....@
    6308:	0e01 2000 0703 2000 0302 2080 ff0f fcff     ... ... ... ....
    6318:	0102 20c0 0002 60e0 3001 4070 f001 803f     ... ...`.0p@..?.
    6328:	f000 001f 0000 0000 0000 0000 fe00 0000     ................
    6338:	ff01 0000 0103 0080 0002 6080 0103 c081     ...........`....
    6348:	ff01 0007 fe00 0018 0000 00e0 0300 00bf     ................
    6358:	0c00 c0ff 7100 6080 c101 2000 0103 6080     .....q.`... ...`
    6368:	0000 c0ff 0000 003f 0000 0000 0000 001f     ......?.........
    6378:	0000 c07f fc00 c0c0 ff01 6080 0303 20e0     ...........`... 
    6388:	0202 2078 0602 201e fc03 4007 f001 8003     ..x ... ...@....
    6398:	0100 c003 0100 601c 0100 20e0 0100 2000     .......`... ... 
    63a8:	0100 4000 0000 8001 0000 0000 0000 0000     ...@............
    63b8:	2000 0000 601c 0000 401c 0000 801f 0000     . ...`...@......
    63c8:	000f 0000 0000 0000 0000 0000 0000 0000     ................
	...
    6410:	0700 00f8 3f00 00ff 7800 c007 c001 e000     .....?...x......
    6420:	0003 3000 0004 0800 0008 0400 0010 0200     ...0............
	...
    6438:	0010 0200 0008 0400 0004 0800 0003 3000     ...............0
    6448:	c001 e000 7800 c007 3f00 00ff 0700 00f8     .....x...?......
	...
    647c:	0c00 0018 0e00 0038 0e00 0038 0600 0030     ......8...8...0.
    648c:	0300 0060 6100 8043 ff00 80ff 6100 0043     ..`..aC......aC.
    649c:	0300 0060 0600 0030 0e00 0038 0e00 0038     ..`...0...8...8.
    64ac:	0c00 0018 0000 0000 0000 0000 0000 0000     ................
    64bc:	0000 0080 0000 0080 0000 0080 0000 0080     ................
    64cc:	0000 0080 0000 0080 7f00 00ff 0000 0080     ................
    64dc:	0000 0080 0000 0080 0000 0080 0000 0080     ................
    64ec:	0000 0080 0000 0000 0000 0000 0000 0100     ................
    64fc:	0000 e300 0000 e200 0000 fc00 0000 7800     ...............x
	...
    6538:	0000 0080 0000 0080 0000 0080 0000 0080     ................
    6548:	0000 0080 0000 0080 0000 0080 0000 0080     ................
    6558:	0000 0080 0000 0080 0000 0080 0000 0080     ................
    6568:	0000 0080 0000 0080 0000 0000 0000 0000     ................
    6578:	0000 0000 0000 c000 0000 e001 0000 e001     ................
    6588:	0000 c000 0000 0000 0000 0000 0000 0000     ................
	...
    65b8:	0000 0c00 0000 3800 0000 e000 0000 8003     .......8........
    65c8:	0000 000e 0000 0038 0000 00e0 0300 0080     ......8.........
    65d8:	0e00 0000 3800 0000 e000 0000 8003 0000     .....8..........
    65e8:	000e 0000 0018 0000 0000 0000 0000 0000     ................
    65f8:	0000 0000 0f00 00f8 7f00 00ff f000 8007     ................
    6608:	8001 c000 0003 6000 0002 2000 0002 2000     .......`... ... 
    6618:	0002 2000 0003 6000 8001 c000 e000 8003     ... ...`........
    6628:	7f00 00ff 0f00 00f8 0000 0000 0000 0000     ................
	...
    6640:	8000 2000 8000 2000 8000 2000 8000 6000     ... ... ... ...`
    6650:	ff01 e0ff ff03 e0ff 0000 6000 0000 2000     ...........`... 
    6660:	0000 2000 0000 2000 0000 0000 0000 0000     ... ... ........
	...
    667c:	7800 e000 9800 6001 0001 6002 0002 6004     .x.....`...`...`
    668c:	0002 6008 0002 6010 0002 6020 0002 6040     ...`...`.. `..@`
    669c:	0003 6080 8301 6000 fe01 e000 7c00 8007     ...`...`.....|..
	...
    66bc:	f000 8007 f001 c007 0001 4000 0002 2000     ...........@... 
    66cc:	0102 2000 0102 2000 0102 2000 0303 2080     ... ... ... ... 
    66dc:	8601 4080 fc01 c0c0 7800 807f 0000 001e     ...@.....x......
	...
    66f8:	0000 0008 0000 0038 0000 0048 0100 0088     ......8...H.....
    6708:	0600 0008 0c00 1008 3000 1008 4000 1008     .........0...@..
    6718:	ff01 f0ff ff03 f0ff ff03 f0ff 0000 1008     ................
    6728:	0000 1008 0000 1008 0000 0000 0000 0000     ................
    6738:	0000 0000 0000 8007 1f00 4086 e103 2000     ...........@... 
    6748:	0203 2000 0403 2000 0403 2000 0403 2000     ... ... ... ... 
    6758:	0403 2000 0603 4000 0303 c001 0103 80ff     ... ...@........
    6768:	0003 007e 0000 0000 0000 0000 0000 0000     ..~.............
    6778:	0000 0000 0700 00fc 3f00 00ff 7000 80c3     .........?...p..
    6788:	8100 c080 0101 6000 0203 2000 0202 2000     .......`... ... 
    6798:	0202 2000 0202 2000 0302 4000 c101 c080     ... ... ...@....
    67a8:	c000 80ff 0000 007e 0000 0000 0000 0000     ......~.........
    67b8:	0000 0000 f000 0000 c003 0000 8003 0000     ................
    67c8:	0003 0000 0003 e007 0003 e03f 0103 00c0     ..........?.....
    67d8:	0603 0000 1803 0000 6003 0000 8003 0000     .........`......
    67e8:	0003 0000 0000 0000 0000 0000 0000 0000     ................
    67f8:	0000 001f 7800 803f fc00 c060 8e01 40c0     .....x?...`....@
    6808:	0703 2080 0302 2000 0102 2080 0102 2080     ... ... ... ... 
    6818:	0102 20c0 0103 40e0 8601 c070 fc00 803f     ... ...@..p...?.
    6828:	7800 001f 0000 0000 0000 0000 0000 0000     .x..............
    6838:	3f00 0000 ff00 c081 c001 c0c1 0001 2060     .?............` 
    6848:	0002 2020 0002 2020 0002 2020 0002 6020     ..  ..  ..  .. `
    6858:	0002 c040 0001 80c1 c100 008f 7f00 00fe     ..@.............
    6868:	1f00 00f0 0000 0000 0000 0000 0000 0000     ................
	...
    688c:	0300 c000 0700 e081 0700 e081 0300 c000     ................
	...
    68cc:	0600 6600 0600 7800 0000 0000 0000 0000     ...f...x........
	...
    68fc:	0000 0080 0100 00c0 0300 0060 0600 0030     ..........`...0.
    690c:	0c00 0018 1800 000c 3000 0006 6000 0003     .........0...`..
    691c:	c000 8001 0001 4000 0002 2000 0004 1000     .......@... ....
	...
    6938:	0400 0010 0400 0010 0400 0010 0400 0010     ................
    6948:	0400 0010 0400 0010 0400 0010 0400 0010     ................
    6958:	0400 0010 0400 0010 0400 0010 0400 0010     ................
    6968:	0400 0010 0400 0010 0000 0000 0000 0000     ................
    6978:	0000 0000 0004 1000 0002 2000 0001 4000     ........... ...@
    6988:	c000 8001 6000 0003 3000 0006 1800 000c     .....`...0......
    6998:	0c00 0018 0600 0030 0300 0060 0100 00c0     ......0...`.....
    69a8:	0000 0080 0000 0000 0000 0000 0000 0000     ................
    69b8:	0000 0000 7800 0000 f801 0000 3802 0000     .....x.......8..
    69c8:	0002 0000 0004 c000 0004 e079 0004 e081     ..........y.....
    69d8:	0104 c000 0304 0000 0202 0000 0603 0000     ................
    69e8:	fc01 0000 f800 0000 0000 0000 0000 0000     ................
    69f8:	0f00 00f8 3f00 00fe 7000 8007 c000 c000     .....?...p......
    6a08:	0101 40f8 0703 20fc 1e02 2004 3002 2008     ...@... ... .0. 
    6a18:	2002 2030 3f02 20fc 3f01 4004 8001 c00c     . 0 .?. .?.@....
    6a28:	e000 8031 1f00 00c2 0000 0000 0000 2000     ..1............ 
    6a38:	0000 6000 0000 e003 0000 203e 0300 20e0     ...`......> ... 
    6a48:	3e00 0020 e003 0020 8003 0020 fc07 0020     .> ... ... ... .
    6a58:	3f00 00e0 0300 20fe 0000 e03f 0000 e001     .?..... ..?.....
    6a68:	0000 2000 0000 2000 0000 0000 0000 0000     ... ... ........
    6a78:	0002 2000 0002 2000 ff03 e0ff ff03 e0ff     ... ... ........
    6a88:	0102 2000 0102 2000 0102 2000 0102 2000     ... ... ... ... 
    6a98:	0102 2000 0303 2000 8601 6080 fc01 c0c0     ... ... ...`....
    6aa8:	f800 807f 0000 001f 0000 0000 0000 0000     ................
    6ab8:	0700 00f8 3f00 00ff 7000 8007 c000 c000     .....?...p......
    6ac8:	0001 4000 0003 2000 0002 2000 0002 2000     ...@... ... ... 
    6ad8:	0002 2000 0002 2000 0001 4000 8001 c000     ... ... ...@....
    6ae8:	c003 8001 3000 0006 0000 0000 0000 0000     .....0..........
    6af8:	0002 2000 0002 2000 ff03 e0ff ff03 e0ff     ... ... ........
    6b08:	0002 2000 0002 2000 0002 2000 0002 2000     ... ... ... ... 
    6b18:	0003 6000 0001 4000 8001 c000 f000 8007     ...`...@........
    6b28:	7f00 00fe 0f00 00f8 0000 0000 0000 0000     ................
    6b38:	0002 2000 0002 2000 ff03 e0ff ff03 e0ff     ... ... ........
    6b48:	0102 2000 0102 2000 0102 2000 0102 2000     ... ... ... ... 
    6b58:	0102 2000 0302 2080 0f02 20e0 0003 6000     ... ... ... ...`
    6b68:	c003 e000 6000 0003 0000 0000 0000 0000     .....`..........
    6b78:	0002 2000 0002 2000 ff03 e0ff ff03 e0ff     ... ... ........
    6b88:	0102 2000 0102 2000 0102 0000 0102 0000     ... ... ........
    6b98:	0102 0000 0102 0000 0302 0080 0f03 00e0     ................
    6ba8:	0003 0000 c003 0000 6000 0000 0000 0000     .........`......
    6bb8:	0700 00f8 3f00 00fe 7000 8007 c001 c001     .....?...p......
    6bc8:	0001 4000 0003 2000 0002 2000 0002 2000     ...@... ... ... 
    6bd8:	0002 2000 0001 2020 0001 4020 c003 803f     ... ..  .. @..?.
    6be8:	3000 803f 0000 0020 0000 0020 0002 2000     .0?... ... .... 
    6bf8:	0002 2000 ff03 e0ff ff03 e0ff 0002 2080     ... ........... 
    6c08:	0002 2080 0000 0080 0000 0080 0000 0080     ... ............
    6c18:	0002 2080 0002 2080 ff03 e0ff ff03 e0ff     ... ... ........
    6c28:	0002 2000 0002 2000 0000 0000 0000 0000     ... ... ........
	...
    6c40:	0002 2000 0002 2000 0002 2000 0002 2000     ... ... ... ... 
    6c50:	ff03 e0ff ff03 e0ff 0002 2000 0002 2000     ........... ... 
    6c60:	0002 2000 0002 2000 0000 0000 0000 0000     ... ... ........
	...
    6c78:	0000 0e00 0000 0f00 0000 0f00 0000 0100     ................
    6c88:	0002 0100 0002 0100 0002 0300 0002 0600     ................
    6c98:	ff03 fcff ff03 f8ff 0002 0000 0002 0000     ................
    6ca8:	0002 0000 0002 0000 0000 0000 0000 0000     ................
    6cb8:	0002 2000 0002 2000 ff03 e0ff ff03 e0ff     ... ... ........
    6cc8:	0002 20c0 0102 2000 0700 0080 0f00 00e0     ... ... ........
    6cd8:	3000 00f8 6002 203e 8003 200f 0003 e003     .0...`> ... ....
    6ce8:	0002 e000 0002 2000 0000 2000 0000 0000     ....... ... ....
    6cf8:	0002 2000 0002 2000 ff03 e0ff ff03 e0ff     ... ... ........
    6d08:	0002 2000 0002 2000 0000 2000 0000 2000     ... ... ... ... 
    6d18:	0000 2000 0000 2000 0000 2000 0000 6000     ... ... ... ...`
    6d28:	0000 e000 0000 0003 0000 0000 0002 2000     ............... 
    6d38:	0002 2000 ff03 e0ff e003 2000 ff03 2000     ... ....... ... 
    6d48:	1f00 00f0 0100 80ff 0000 e00f 0000 001e     ................
    6d58:	0300 00e0 3e00 2000 e003 2000 ff03 e0ff     .....>. ... ....
    6d68:	ff03 e0ff 0002 2000 0002 2000 0002 2000     ....... ... ... 
    6d78:	0002 2000 ff03 e0ff 8003 2000 f003 2000     ... ....... ... 
    6d88:	fc00 0000 1f00 0000 0700 00c0 0100 00f0     ................
    6d98:	0000 007c 0002 801f 0002 e007 ff03 e0ff     ..|.............
    6da8:	0002 0000 0002 0000 0000 0000 0000 0000     ................
    6db8:	0f00 00f8 3f00 00fe f000 8007 8001 c000     .....?..........
    6dc8:	0001 4000 0002 2000 0002 2000 0002 2000     ...@... ... ... 
    6dd8:	0002 2000 0001 4000 8001 c000 f000 8003     ... ...@........
    6de8:	3f00 00fe 0f00 00f8 0000 0000 0000 0000     .?..............
    6df8:	0002 2000 0002 2000 ff03 e0ff ff03 e0ff     ... ... ........
    6e08:	0002 2080 0002 2080 0002 0080 0002 0080     ... ... ........
    6e18:	0002 0080 0002 0080 0103 0080 8301 0000     ................
    6e28:	fe00 0000 7c00 0000 0000 0000 0000 0000     .....|..........
    6e38:	0f00 00f8 7f00 00ff f000 8003 8001 c001     ................
    6e48:	0001 4006 0002 2004 0002 2004 0002 2006     ...@... ... ... 
    6e58:	0002 e003 0001 f800 8001 5c00 e000 8c03     ...........\....
    6e68:	3f00 0cff 0f00 18fc 0000 0000 0000 0000     .?..............
    6e78:	0002 2000 0002 2000 ff03 e0ff ff03 e0ff     ... ... ........
    6e88:	0102 2000 0102 2000 0102 0080 0102 00e0     ... ... ........
    6e98:	0102 00fc 0303 803f 8601 e007 fc01 e000     ......?.........
    6ea8:	f800 2000 0000 2000 0000 0000 0000 0000     ... ... ........
    6eb8:	0000 0000 7800 0006 fe00 e001 8601 c000     .....x..........
    6ec8:	0303 4000 0302 2000 0102 2080 0102 2080     ...@... ... ... 
    6ed8:	0102 20c0 0002 20c0 0001 60e0 8001 c070     ... ... ...`..p.
    6ee8:	e003 803f 0000 001f 0000 0000 0000 0000     ..?.............
    6ef8:	6000 0000 8003 0000 0003 0000 0002 0000     .`..............
    6f08:	0002 2000 0002 2000 ff03 e0ff ff03 e0ff     ... ... ........
    6f18:	0002 2000 0002 2000 0002 0000 0002 0000     ... ... ........
    6f28:	8003 0000 e000 0000 0000 0000 0002 0000     ................
    6f38:	0002 0000 ff03 00ff ff03 c0ff 0002 4000     ...............@
    6f48:	0002 6000 0000 2000 0000 2000 0000 2000     ...`... ... ... 
    6f58:	0000 2000 0002 4000 0002 8000 ff03 00ff     ... ...@........
    6f68:	0002 0000 0002 0000 0000 0000 0000 0000     ................
    6f78:	0002 0000 0002 0000 c003 0000 fc03 0000     ................
    6f88:	3f02 00c0 0300 00f8 0000 807f 0000 e007     .?..............
    6f98:	0000 8007 0000 0078 0302 00c0 3c02 0000     ......x......<..
    6fa8:	c003 0000 0002 0000 0002 0000 0002 0000     ................
    6fb8:	c003 0000 ff03 0080 3f02 00fe 0002 e07f     .........?......
    6fc8:	0000 000f 0002 00f0 ef03 0000 ff03 0080     ................
    6fd8:	0f02 00fe 0000 e03f 0000 001f 0702 00e0     ......?.........
    6fe8:	f803 0000 0003 0000 0002 0000 0000 0000     ................
    6ff8:	0002 2000 0002 2000 8003 e000 f003 2003     ... ... ....... 
    7008:	fc02 200c 1f02 0030 0700 00c0 0700 00f0     ... ..0.........
    7018:	1802 007c 6002 201f 8003 e003 0002 e000     ..|..`. ........
    7028:	0002 2000 0000 2000 0000 0000 0000 0000     ... ... ........
    7038:	0002 0000 0003 0000 c003 0000 f803 0000     ................
    7048:	3e02 2000 0f02 20c0 0100 e0ff 0000 e07f     .>. ... ........
    7058:	0300 2080 1c02 2000 7002 0000 8003 0000     ... ... .p......
    7068:	0002 0000 0002 0000 0000 0000 0000 0000     ................
    7078:	0000 2000 6000 e000 8003 e003 0003 a00f     ... .`..........
    7088:	0002 203e 0002 20f8 0302 20e0 0f02 2080     ..> ... ... ... 
    7098:	3e02 2000 7802 2000 e003 6000 8003 e000     .>. .x. ...`....
    70a8:	0002 0003 0000 0000 0000 0000 0000 0000     ................
	...
    70cc:	ff1f fcff 0010 0400 0010 0400 0010 0400     ................
    70dc:	0010 0400 0010 0400 0010 0400 0010 0400     ................
	...
    7100:	0007 0000 c003 0000 7800 0000 1e00 0000     .........x......
    7110:	0300 00c0 0000 00f0 0000 001e 0000 8007     ................
    7120:	0000 f000 0000 3c00 0000 0600 0000 0000     .......<........
	...
    713c:	0010 0400 0010 0400 0010 0400 0010 0400     ................
    714c:	0010 0400 0010 0400 0010 0400 ff1f fcff     ................
	...
    7184:	0002 0000 0004 0000 0008 0000 0018 0000     ................
    7194:	0010 0000 0018 0000 0018 0000 0004 0000     ................
    71a4:	0002 0000 0000 0000 0000 0000 0000 0000     ................
    71b4:	0000 0100 0000 0100 0000 0100 0000 0100     ................
    71c4:	0000 0100 0000 0100 0000 0100 0000 0100     ................
    71d4:	0000 0100 0000 0100 0000 0100 0000 0100     ................
    71e4:	0000 0100 0000 0100 0000 0100 0000 0100     ................
	...
    7200:	0010 0000 0010 0000 0010 0000 0018 0000     ................
    7210:	0008 0000 0004 0000 0000 0000 0000 0000     ................
	...
    7238:	0000 8003 0100 c08f 0300 608c 0600 2018     ...........`... 
    7248:	0400 2010 0400 2010 0400 2020 0400 4020     ... ... ..  .. @
    7258:	0600 4020 0300 c0ff 0100 e0ff 0000 2000     .. @........... 
    7268:	0000 2000 0000 c000 0000 0000 0000 0000     ... ............
    7278:	0002 0000 0002 0000 ff03 e0ff ff07 c0ff     ................
    7288:	0100 c080 0200 6000 0200 2000 0400 2000     .......`... ... 
    7298:	0400 2000 0400 2000 0600 4000 0300 c000     ... ... ...@....
    72a8:	0100 80ff 0000 00fe 0000 0000 0000 0000     ................
    72b8:	0000 0000 0000 007e 0100 80ff 0300 c081     ......~.........
    72c8:	0200 4000 0600 2000 0400 2000 0400 2000     ...@... ... ... 
    72d8:	0400 2000 0600 2000 0300 40c0 0100 80c0     ... ... ...@....
    72e8:	0000 0003 0000 0000 0000 0000 0000 0000     ................
    72f8:	0000 0000 0000 007e 0100 80ff 0300 c080     ......~.........
    7308:	0600 6000 0400 2000 0400 2000 0400 2000     ...`... ... ... 
    7318:	0402 4000 0202 8000 ff03 e0ff ff07 c0ff     ...@............
    7328:	0000 4000 0000 4000 0000 0000 0000 0000     ...@...@........
    7338:	0000 0000 0000 007e 0100 80ff 0300 c011     ......~.........
    7348:	0200 4010 0400 6010 0400 2010 0400 2010     ...@...`... ... 
    7358:	0400 2010 0600 2010 0300 4010 0100 c0f0     ... ... ...@....
    7368:	0000 0071 0000 0000 0000 0000 0000 0000     ..q.............
    7378:	0000 0000 0400 0000 0400 2000 0400 2000     ........... ... 
    7388:	0400 2000 7f00 e0ff ff01 e0ff 0401 2000     ... ........... 
    7398:	0403 2000 0402 2000 0402 2000 0402 0000     ... ... ... ....
    73a8:	0002 0000 c001 0000 c001 0000 0000 0000     ................
    73b8:	0000 0000 0000 1c00 0000 3ee3 0300 c2ff     ...........>....
    73c8:	0200 c30c 0400 c104 0400 c104 0400 c104     ................
    73d8:	0400 c104 0600 c10c 0300 c3f8 0500 62f0     ...............b
    73e8:	0600 7e00 0600 3c00 0000 0000 0000 0000     ...~...<........
    73f8:	0002 2000 0002 2000 ff03 e0ff ff07 e0ff     ... ... ........
    7408:	0100 2000 0200 2000 0600 0000 0400 0000     ... ... ........
    7418:	0400 0000 0400 2000 0600 2000 0300 e0ff     ....... ... ....
    7428:	0100 e0ff 0000 2000 0000 2000 0000 0000     ....... ... ....
	...
    7440:	0400 2000 0400 2000 0400 2000 0400 2000     ... ... ... ... 
    7450:	8703 e0ff 8f03 e0ff 8003 2000 0000 2000     ........... ... 
    7460:	0000 2000 0000 2000 0000 0000 0000 0000     ... ... ........
	...
    7480:	0000 0600 0000 0700 0000 0100 0000 0100     ................
    7490:	0400 0100 0400 0100 0400 0300 0400 0600     ................
    74a0:	8703 fcff 8f03 f8ff 8003 0000 0000 0000     ................
	...
    74b8:	0002 2000 0002 2000 ff03 e0ff ff07 e0ff     ... ... ........
    74c8:	0000 2008 0000 2010 0000 0030 0000 00fc     ... ... ..0.....
    74d8:	0500 008e 0700 a007 0600 e001 0400 e000     ................
    74e8:	0400 2000 0000 2000 0000 0000 0000 0000     ... ... ........
	...
    7500:	0002 2000 0002 2000 0002 2000 0002 2000     ... ... ... ... 
    7510:	ff03 e0ff ff07 e0ff 0000 2000 0000 2000     ........... ... 
    7520:	0000 2000 0000 2000 0000 0000 0000 0000     ... ... ........
	...
    7538:	0400 2000 0700 e0ff 0f00 e0ff 0200 2000     ... ........... 
    7548:	0400 0000 0400 2000 0700 e0ff 0300 e0ff     ....... ........
    7558:	0200 2000 0400 0000 0400 2000 0700 e0ff     ... ....... ....
    7568:	0300 e0ff 0000 2000 0000 0000 0000 0000     ....... ........
    7578:	0400 2000 0400 2000 0700 e0ff 0f00 e0ff     ... ... ........
    7588:	0100 2000 0200 2000 0200 0000 0400 0000     ... ... ........
    7598:	0400 0000 0400 2000 0600 2000 0300 e0ff     ....... ... ....
    75a8:	0100 e0ff 0000 2000 0000 2000 0000 0000     ....... ... ....
    75b8:	0000 0000 0000 007e 0000 80ff 0300 c081     ......~.........
    75c8:	0200 4000 0600 2000 0400 2000 0400 2000     ...@... ... ... 
    75d8:	0400 2000 0600 2000 0200 4000 0300 c081     ... ... ...@....
    75e8:	0100 80ff 0000 007e 0000 0000 0000 0000     ......~.........
    75f8:	0400 0100 0400 0100 0700 ffff 0f00 ffff     ................
    7608:	0100 c100 0200 4100 0400 2000 0400 2000     .......A... ... 
    7618:	0400 2000 0400 2000 0600 4000 0300 c001     ... ... ...@....
    7628:	0100 80ff 0000 007e 0000 0000 0000 0000     ......~.........
    7638:	0000 0000 0000 007e 0100 80ff 0300 c080     ......~.........
    7648:	0200 6000 0400 2000 0400 2000 0400 2000     ...`... ... ... 
    7658:	0400 2000 0200 4100 0300 c100 0300 ffff     ... ...A........
    7668:	0700 ffff 0000 0100 0000 0100 0000 0000     ................
    7678:	0400 2000 0400 2000 0400 2000 0400 2000     ... ... ... ... 
    7688:	0f00 e0ff 0f00 e0ff 0000 20c0 0100 2000     ........... ... 
    7698:	0200 2000 0600 2000 0400 0000 0400 0000     ... ... ........
    76a8:	0700 0000 0300 0000 0000 0000 0000 0000     ................
    76b8:	0000 0000 0000 e003 0100 e0c0 0300 40e0     ...............@
    76c8:	0600 2030 0400 2030 0400 2018 0400 2018     ..0 ..0 ... ... 
    76d8:	0400 2018 0400 200c 0200 600c 0300 c007     ... ... ...`....
    76e8:	0700 8083 0000 0000 0000 0000 0000 0000     ................
    76f8:	0000 0000 0400 0000 0400 0000 0400 0000     ................
    7708:	0c00 0000 1f00 80ff ff00 c0ff 0400 6000     ...............`
    7718:	0400 2000 0400 2000 0400 2000 0400 4000     ... ... ... ...@
    7728:	0000 8001 0000 0000 0000 0000 0000 0000     ................
    7738:	0400 0000 0400 0000 0700 80ff 0f00 c0ff     ................
    7748:	0000 6000 0000 2000 0000 2000 0000 2000     ...`... ... ... 
    7758:	0000 2000 0400 4000 0400 8000 0700 e0ff     ... ...@........
    7768:	0f00 c0ff 0000 4000 0000 4000 0000 0000     .......@...@....
    7778:	0400 0000 0400 0000 0700 0080 0700 00f0     ................
    7788:	0400 00fe 0400 c01f 0000 e003 0000 8003     ................
    7798:	0000 001c 0400 0060 0700 0080 0600 0000     ......`.........
    77a8:	0400 0000 0000 0000 0000 0000 0400 0000     ................
    77b8:	0600 0000 0700 00c0 0700 00fc 0400 803f     ..............?.
    77c8:	0000 e003 0400 800f 0600 00f0 0700 00f0     ................
    77d8:	0700 80ff 0400 e00f 0000 8003 0400 003c     ..............<.
    77e8:	0700 00c0 0600 0000 0400 0000 0000 0000     ................
    77f8:	0000 2000 0400 2000 0400 6000 0700 e000     ... ... ...`....
    7808:	0700 2083 0700 00e6 0400 00f8 0000 003c     ... ..........<.
    7818:	0400 205e 0500 a087 0600 e001 0400 6000     ..^ ...........`
    7828:	0400 2000 0000 2000 0000 0000 0000 0000     ... ... ........
    7838:	0400 0000 0400 0300 0700 0300 0700 01e0     ................
    7848:	0400 01f8 0400 021f 0000 fc07 0000 e000     ................
    7858:	0000 0007 0400 0038 0700 00c0 0600 0000     ......8.........
    7868:	0400 0000 0400 0000 0000 0000 0000 0000     ................
    7878:	0000 0000 0700 6080 0600 e000 0400 e003     .......`........
    7888:	0400 a007 0400 200e 0400 203c 0400 2070     ....... ..< ..p 
    7898:	0500 20e0 0700 2080 0700 6000 0400 e000     ... ... ...`....
    78a8:	0000 8003 0000 0000 0000 0000 0000 0000     ................
	...
    78d0:	0000 0080 0000 0080 0100 0040 fe07 f83f     ..........@...?.
    78e0:	0008 0400 0010 0200 0010 0200 0000 0000     ................
	...
    7914:	ffff ffff 0000 0000 0000 0000 0000 0000     ................
	...
    793c:	0010 0200 0010 0200 0008 0400 fe07 f83f     ..............?.
    794c:	0100 0040 0000 0080 0000 0080 0000 0000     ..@.............
	...
    7978:	0018 0000 0030 0000 0040 0000 0040 0000     ....0...@...@...
    7988:	0040 0000 0020 0000 0030 0000 0008 0000     @... ...0.......
    7998:	0004 0000 0002 0000 0002 0000 0002 0000     ................
    79a8:	000c 0000 0018 0000 0000 0000 6f6e 0032     ............no2.
    79b8:	4d53 5241 2054 4853 504f 4950 474e 4143     SMART SHOPPINGCA
    79c8:	5452 0000 3a41 6441 0064 0000 3a42 6544     RT..A:Add...B:De
    79d8:	656c 6574 0000 0000 3a43 6441 0064 0000     lete....C:Add...
    79e8:	7246 6975 0074 0000 3a44 6544 656c 6574     Fruit...D:Delete
    79f8:	0000 0000 3a45 6142 6b63 0000 3a46 6150     ....E:Back..F:Pa
    7a08:	0079 0000 6375 7261 0064 0000 6572 7663     y...ucard...recv
    7a18:	7520 7261 2074 736d 0d67 0000                uart msg...

00007a24 <__sf_fake_stderr>:
	...

00007a44 <__sf_fake_stdin>:
	...

00007a64 <__sf_fake_stdout>:
	...
    7a84:	2d23 2b30 0020 0000 6c68 004c 6665 4567     #-0+ ...hlL.efgE
    7a94:	4746 0000 3130 3332 3534 3736 3938 4241     FG..0123456789AB
    7aa4:	4443 4645 0000 0000 3130 3332 3534 3736     CDEF....01234567
    7ab4:	3938 6261 6463 6665 0000 0000               89abcdef....
