
successVersion.elf:     file format elf32-littleriscv
successVersion.elf
architecture: riscv:rv32, flags 0x00000112:
EXEC_P, HAS_SYMS, D_PAGED
start address 0x00000000

Program Header:
    LOAD off    0x00001000 vaddr 0x00000000 paddr 0x00000000 align 2**12
         filesz 0x0000cdac memsz 0x0000cdac flags r-x
    LOAD off    0x0000e000 vaddr 0x20000000 paddr 0x0000cdac align 2**12
         filesz 0x00000208 memsz 0x00000878 flags rw-
    LOAD off    0x0000e800 vaddr 0x20007800 paddr 0x20007800 align 2**12
         filesz 0x00000000 memsz 0x00000800 flags rw-

Sections:
Idx Name          Size      VMA       LMA       File off  Algn
  0 .init         00000038  00000000  00000000  00001000  2**1
                  CONTENTS, ALLOC, LOAD, READONLY, CODE
  1 .vector       000001c8  00000038  00000038  00001038  2**1
                  CONTENTS, ALLOC, LOAD, READONLY, CODE
  2 .text         0000cbac  00000200  00000200  00001200  2**3
                  CONTENTS, ALLOC, LOAD, READONLY, CODE
  3 .fini         00000000  0000cdac  0000cdac  0000e208  2**0
                  CONTENTS, ALLOC, LOAD, CODE
  4 .dalign       00000000  20000000  20000000  0000e208  2**0
                  CONTENTS
  5 .dlalign      00000000  0000cdac  0000cdac  0000e208  2**0
                  CONTENTS
  6 .data         00000208  20000000  0000cdac  0000e000  2**2
                  CONTENTS, ALLOC, LOAD, DATA
  7 .bss          00000670  20000208  0000cfb4  0000e208  2**2
                  ALLOC
  8 .stack        00000800  20007800  20007800  0000e800  2**0
                  ALLOC
  9 .debug_info   00018adc  00000000  00000000  0000e208  2**0
                  CONTENTS, READONLY, DEBUGGING
 10 .debug_abbrev 000039c7  00000000  00000000  00026ce4  2**0
                  CONTENTS, READONLY, DEBUGGING
 11 .debug_loc    00007860  00000000  00000000  0002a6ab  2**0
                  CONTENTS, READONLY, DEBUGGING
 12 .debug_aranges 00000840  00000000  00000000  00031f10  2**3
                  CONTENTS, READONLY, DEBUGGING
 13 .debug_ranges 00000e18  00000000  00000000  00032750  2**3
                  CONTENTS, READONLY, DEBUGGING
 14 .debug_line   00010f90  00000000  00000000  00033568  2**0
                  CONTENTS, READONLY, DEBUGGING
 15 .debug_str    00002ce3  00000000  00000000  000444f8  2**0
                  CONTENTS, READONLY, DEBUGGING
 16 .comment      00000033  00000000  00000000  000471db  2**0
                  CONTENTS, READONLY
 17 .debug_frame  000029c4  00000000  00000000  00047210  2**2
                  CONTENTS, READONLY, DEBUGGING
 18 .stab         00000084  00000000  00000000  00049bd4  2**2
                  CONTENTS, READONLY, DEBUGGING
 19 .stabstr      00000117  00000000  00000000  00049c58  2**0
                  CONTENTS, READONLY, DEBUGGING
SYMBOL TABLE:
00000000 l    d  .init	00000000 .init
00000038 l    d  .vector	00000000 .vector
00000200 l    d  .text	00000000 .text
0000cdac l    d  .fini	00000000 .fini
20000000 l    d  .dalign	00000000 .dalign
0000cdac l    d  .dlalign	00000000 .dlalign
20000000 l    d  .data	00000000 .data
20000208 l    d  .bss	00000000 .bss
20007800 l    d  .stack	00000000 .stack
00000000 l    d  .debug_info	00000000 .debug_info
00000000 l    d  .debug_abbrev	00000000 .debug_abbrev
00000000 l    d  .debug_loc	00000000 .debug_loc
00000000 l    d  .debug_aranges	00000000 .debug_aranges
00000000 l    d  .debug_ranges	00000000 .debug_ranges
00000000 l    d  .debug_line	00000000 .debug_line
00000000 l    d  .debug_str	00000000 .debug_str
00000000 l    d  .comment	00000000 .comment
00000000 l    d  .debug_frame	00000000 .debug_frame
00000000 l    d  .stab	00000000 .stab
00000000 l    d  .stabstr	00000000 .stabstr
00000000 l    df *ABS*	00000000 ./Startup/startup_ch32v30x_D8C.o
00000038 l       .vector	00000000 _vector_base
00000000 l    df *ABS*	00000000 HX77.c
00000000 l    df *ABS*	00000000 Key_Get.c
00000000 l    df *ABS*	00000000 L610.c
00000000 l    df *ABS*	00000000 allshow.c
00000888 l     F .text	0000001c insertProduct.part.0
00000000 l    df *ABS*	00000000 ch32v30x_it.c
00000000 l    df *ABS*	00000000 lcd.c
00000000 l    df *ABS*	00000000 main.c
00000000 l    df *ABS*	00000000 pages.c
00000000 l    df *ABS*	00000000 system_ch32v30x.c
00000000 l    df *ABS*	00000000 ch32v30x_dma.c
00000000 l    df *ABS*	00000000 ch32v30x_exti.c
00000000 l    df *ABS*	00000000 ch32v30x_fsmc.c
00000000 l    df *ABS*	00000000 ch32v30x_gpio.c
00000000 l    df *ABS*	00000000 ch32v30x_misc.c
00000000 l    df *ABS*	00000000 ch32v30x_rcc.c
20000010 l     O .data	00000010 APBAHBPrescTable
200001f8 l     O .data	00000004 ADCPrescTable
00000000 l    df *ABS*	00000000 ch32v30x_usart.c
00000000 l    df *ABS*	00000000 exit.c
00000000 l    df *ABS*	00000000 usart.c
00000000 l    df *ABS*	00000000 debug.c
20000212 l     O .bss	00000002 p_ms
20000214 l     O .bss	00000001 p_us
200001fc l     O .data	00000004 curbrk.5226
00000000 l    df *ABS*	00000000 fixunssfsi.c
00000000 l    df *ABS*	00000000 exit.c
00000000 l    df *ABS*	00000000 fputs.c
00000000 l    df *ABS*	00000000 locale.c
00000000 l    df *ABS*	00000000 malloc.c
00000000 l    df *ABS*	00000000 mbtowc_r.c
00000000 l    df *ABS*	00000000 memcpy.c
00000000 l    df *ABS*	00000000 nano-mallocr.c
00000000 l    df *ABS*	00000000 nano-mallocr.c
00000000 l    df *ABS*	00000000 printf.c
00000000 l    df *ABS*	00000000 sbrkr.c
00000000 l    df *ABS*	00000000 snprintf.c
00000000 l    df *ABS*	00000000 strlen.c
00000000 l    df *ABS*	00000000 strstr.c
00000000 l    df *ABS*	00000000 strtod.c
00004368 l     F .text	0000004e sulp
0000c928 l     O .text	00000014 fpi.3395
0000c93c l     O .text	00000014 fpinan.3431
0000c960 l     O .text	00000028 tinytens
00000000 l    df *ABS*	00000000 strtol.c
00005116 l     F .text	00000144 _strtol_l.isra.0
00000000 l    df *ABS*	00000000 wbuf.c
00000000 l    df *ABS*	00000000 wctomb_r.c
00000000 l    df *ABS*	00000000 wsetup.c
00000000 l    df *ABS*	00000000 fflush.c
00000000 l    df *ABS*	00000000 findfp.c
0000560c l     F .text	0000006a std
00000000 l    df *ABS*	00000000 fwalk.c
00000000 l    df *ABS*	00000000 gdtoa-gethex.c
00005840 l     F .text	00000076 rshift
00000000 l    df *ABS*	00000000 gdtoa-hexnan.c
00005dc4 l     F .text	0000002c L_shift
00000000 l    df *ABS*	00000000 localeconv.c
00000000 l    df *ABS*	00000000 makebuf.c
00000000 l    df *ABS*	00000000 mlock.c
00000000 l    df *ABS*	00000000 mprec.c
0000cbe0 l     O .text	0000000c p05.3319
00000000 l    df *ABS*	00000000 nano-mallocr.c
00000000 l    df *ABS*	00000000 nano-vfprintf.c
00000000 l    df *ABS*	00000000 nano-vfprintf.c
00006da8 l     F .text	0000002a __sfputc_r
00000000 l    df *ABS*	00000000 nano-vfprintf_i.c
00000000 l    df *ABS*	00000000 sf_nan.c
00000000 l    df *ABS*	00000000 stdio.c
00000000 l    df *ABS*	00000000 strncmp.c
00000000 l    df *ABS*	00000000 writer.c
00000000 l    df *ABS*	00000000 closer.c
00000000 l    df *ABS*	00000000 fstatr.c
00000000 l    df *ABS*	00000000 isattyr.c
00000000 l    df *ABS*	00000000 lseekr.c
00000000 l    df *ABS*	00000000 memchr.c
00000000 l    df *ABS*	00000000 memmove.c
00000000 l    df *ABS*	00000000 nano-mallocr.c
00000000 l    df *ABS*	00000000 readr.c
00000000 l    df *ABS*	00000000 nano-mallocr.c
00000000 l    df *ABS*	00000000 adddf3.c
00000000 l    df *ABS*	00000000 divdf3.c
00000000 l    df *ABS*	00000000 eqdf2.c
00000000 l    df *ABS*	00000000 gedf2.c
00000000 l    df *ABS*	00000000 ledf2.c
00000000 l    df *ABS*	00000000 muldf3.c
00000000 l    df *ABS*	00000000 subdf3.c
00000000 l    df *ABS*	00000000 unorddf2.c
00000000 l    df *ABS*	00000000 fixdfsi.c
00000000 l    df *ABS*	00000000 fixunsdfsi.c
00000000 l    df *ABS*	00000000 floatsidf.c
00000000 l    df *ABS*	00000000 floatunsidf.c
00000000 l    df *ABS*	00000000 lesf2.c
00000000 l    df *ABS*	00000000 unordsf2.c
00000000 l    df *ABS*	00000000 truncdfsf2.c
00000000 l    df *ABS*	00000000 libgcc2.c
00000000 l    df *ABS*	00000000 close.c
00000000 l    df *ABS*	00000000 fstat.c
00000000 l    df *ABS*	00000000 isatty.c
00000000 l    df *ABS*	00000000 lseek.c
00000000 l    df *ABS*	00000000 read.c
00000000 l    df *ABS*	00000000 _exit.c
00000000 l    df *ABS*	00000000 ctype_.c
00000000 l    df *ABS*	00000000 libgcc2.c
00000000 l    df *ABS*	00000000 impure.c
20000020 l     O .data	00000060 impure_data
00000000 l    df *ABS*	00000000 reent.c
00007720 g     F .text	00000014 _malloc_usable_size_r
00003310  w      .text	00000000 EXTI2_IRQHandler
0000335a  w      .text	00000000 TIM8_TRG_COM_IRQHandler
0000335c  w      .text	00000000 TIM8_CC_IRQHandler
000069cc g     F .text	00000046 __any_on
000075de g     F .text	0000002a _isatty_r
00002294 g     F .text	00000172 LCD_ShowChar
00007608 g     F .text	0000002e _lseek_r
0000343a g     F .text	00000014 DMA_Cmd
00003392  w      .text	00000000 UART8_IRQHandler
00008418 g     F .text	0000006a .hidden __eqdf2
200001f0 g     O .data	00000002 BACK_COLOR
20000240 g     O .bss	00000028 arr
00000412 g     F .text	00000010 HX711_W_PD_SCK
0000423c g     F .text	00000042 printf
200009f0 g       .data	00000000 __global_pointer$
00003336  w      .text	00000000 TIM1_CC_IRQHandler
000074f2 g     F .text	00000036 __sseek
000056c8 g     F .text	0000006c __sinit
00005278 g     F .text	000000c0 __swbuf_r
0000097c g     F .text	00000002 HardFault_Handler
00005680 g     F .text	00000048 __sfmoreglue
00006084 g     F .text	00000002 __malloc_unlock
20000268 g     O .bss	00000004 Weight_Maopi
0000336c  w      .text	00000000 TIM6_IRQHandler
000032fc  w      .text	00000000 SysTick_Handler
000058b6 g     F .text	00000040 __hexdig_fun
000003c6 g     F .text	0000004c HX711_GPIO_Init
000036c8 g     F .text	000000b8 NVIC_Init
00003302  w      .text	00000000 PVD_IRQHandler
00003362  w      .text	00000000 SDIO_IRQHandler
00007650 g     F .text	0000004a memmove
00003394  w      .text	00000000 TIM9_BRK_IRQHandler
000042a8 g     F .text	00000070 snprintf
00003fa4 g     F .text	00000018 __locale_ctype_ptr
000033a8  w      .text	00000000 DMA2_Channel8_IRQHandler
00000978 g     F .text	00000004 NMI_Handler
00006086 g     F .text	0000008c _Balloc
2000026c g     O .bss	00000004 HX711_Buffer
00003382  w      .text	00000000 CAN2_RX1_IRQHandler
00003312  w      .text	00000000 EXTI3_IRQHandler
00009860 g     O .text	00000474 asc2_1206
20000270 g     O .bss	00000008 list
00008482 g     F .text	000000ae .hidden __gtdf2
00005f80 g     F .text	00000006 __localeconv_l
0000338a  w      .text	00000000 USBHS_IRQHandler
00000b52 g     F .text	0000003e LCD_Clear
00003a26 g     F .text	0000000c USART_GetFlagStatus
000033aa  w      .text	00000000 DMA2_Channel9_IRQHandler
000075b2 g     F .text	0000002c _fstat_r
000033a2  w      .text	00000000 TIM10_CC_IRQHandler
20000874 g     O .bss	00000004 errno
20000208 g       .bss	00000000 _sbss
00000800 g       *ABS*	00000000 __stack_size
2000020a g     O .bss	00000002 POINT_COLOR
00000a50 g     F .text	000000b8 LCD_Scan_Dir
00002e6e g     F .text	0000006e Pages_Pay
0000359a g     F .text	0000001e FSMC_NORSRAMCmd
0000400a g     F .text	000000b6 memcpy
00005e20 g     F .text	00000160 __hexnan
00005676 g     F .text	0000000a _cleanup_r
00006b28 g     F .text	00000280 _svfprintf_r
000092da g     F .text	00000070 .hidden __floatsidf
00008530 g     F .text	000000b6 .hidden __ltdf2
000009f4 g     F .text	0000000e LCD_WriteRAM_Prepare
0000330c  w      .text	00000000 EXTI0_IRQHandler
00003342  w      .text	00000000 I2C2_EV_IRQHandler
000033a0  w      .text	00000000 TIM10_TRG_COM_IRQHandler
000004aa g     F .text	0000003c charArrayToU8
2000044c g     O .bss	00000004 endptr
200001f4 g     O .data	00000004 SystemCoreClock
00006922 g     F .text	00000074 __ratio
00000522 g     F .text	0000003c weight_check_delete
00003a1c g     F .text	0000000a USART_ReceiveData
00002504 g     F .text	000000b2 LCD_DrawLine
00003fbc g     F .text	0000000a malloc
00009664 g     F .text	0000000c _fstat
0000cb18 g     O .text	000000c8 __mprec_tens
00000038 g       .init	00000000 _einit
000093b0 g     F .text	0000008c .hidden __lesf2
000038ac g     F .text	0000001e RCC_APB2PeriphClockCmd
0000927e g     F .text	0000005c .hidden __fixunsdfsi
00003384  w      .text	00000000 CAN2_SCE_IRQHandler
00003324  w      .text	00000000 ADC1_2_IRQHandler
000035b8 g     F .text	000000c2 GPIO_Init
000032fa  w      .text	00000000 Break_Point_Handler
00006344 g     F .text	0000001c __i2b
2000020c g     O .bss	00000004 NVIC_Priority_Group
00003346  w      .text	00000000 SPI1_IRQHandler
000039c0 g     F .text	0000001c USART_Cmd
0000427e g     F .text	0000002a _sbrk_r
00003304  w      .text	00000000 TAMPER_IRQHandler
0000a2c4 g     O .text	00000d5c asc2_2412
000076f2 g     F .text	0000002e _read_r
00003a76 g     F .text	00000016 USART_ClearITPendingBit
00003380  w      .text	00000000 CAN2_RX0_IRQHandler
2000086e g     O .bss	00000001 recv_ok
00003358  w      .text	00000000 TIM8_UP_IRQHandler
000038ca g     F .text	0000001e RCC_APB1PeriphClockCmd
00000422 g     F .text	0000003c HX711_R_DOUT
00007734 g     F .text	00000730 .hidden __adddf3
000032f6  w      .text	00000000 Ecall_M_Mode_Handler
20007800 g       .stack	00000000 _heap_end
0000679a g     F .text	000000b4 __b2d
00009670 g     F .text	0000000c _isatty
00003d88 g     F .text	0000002e Delay_Us
20000204 g     O .data	00000004 _global_impure_ptr
0000769a g     F .text	00000058 _realloc_r
00003372  w      .text	00000000 DMA2_Channel2_IRQHandler
0000388e g     F .text	0000001e RCC_AHBPeriphClockCmd
0000331c  w      .text	00000000 DMA1_Channel4_IRQHandler
0000caf0 g     O .text	00000028 __mprec_bigtens
000061ee g     F .text	000000a6 __s2b
0000934a g     F .text	00000066 .hidden __floatunsidf
00003e34 g     F .text	00000026 _sbrk
00006630 g     F .text	00000032 __mcmp
0000525a g     F .text	0000001e strtol
20000220 g     O .bss	00000020 uart_buf
00003396  w      .text	00000000 TIM9_UP_IRQHandler
0000334e  w      .text	00000000 USART3_IRQHandler
000034d6 g     F .text	0000000a EXTI_ClearITPendingBit
00003306  w      .text	00000000 RTC_IRQHandler
000043b6 g     F .text	00000c7c _strtod_l
00005df0 g     F .text	00000030 __match
0000097e g     F .text	00000042 LCD_Reset_GPIO_Init
20000878 g       .bss	00000000 _ebss
00003a32 g     F .text	00000044 USART_GetITStatus
20000450 g     O .bss	00000004 number
00003322  w      .text	00000000 DMA1_Channel7_IRQHandler
000004e6 g     F .text	0000003c weight_check_add
20000278 g     O .bss	00000004 former_weight
00006294 g     F .text	00000046 __hi0bits
0000332a  w      .text	00000000 CAN1_RX1_IRQHandler
00009216 g     F .text	00000068 .hidden __fixdfsi
00003d5e g     F .text	0000002a Delay_Init
0000338c  w      .text	00000000 DVP_IRQHandler
0000336a  w      .text	00000000 UART5_IRQHandler
0000055e g     F .text	0000014a Key_GetNum
00003684 g     F .text	00000004 GPIO_SetBits
0000333c  w      .text	00000000 TIM4_IRQHandler
00008530 g     F .text	000000b6 .hidden __ledf2
00003b44 g     F .text	0000013a USARTx_Init
0000368c g     F .text	0000000a GPIO_WriteBit
00003370  w      .text	00000000 DMA2_Channel1_IRQHandler
000064a4 g     F .text	000000be __pow5mult
0000ca8c g     O .text	00000020 __sf_fake_stderr
000042a8 g     F .text	00000070 sniprintf
0000333e  w      .text	00000000 I2C1_EV_IRQHandler
20000870 g     O .bss	00000002 received_data
00002c66 g     F .text	0000009c Pages_X_add
00006a3a g     F .text	000000ee __ssputs_r
00003780 g     F .text	0000010e RCC_GetClocksFreq
20000454 g     O .bss	00000004 strx
00003320  w      .text	00000000 DMA1_Channel6_IRQHandler
000095e2 g     F .text	00000076 .hidden __clzsi2
00006dd2 g     F .text	00000044 __sfputs_r
00003368  w      .text	00000000 UART4_IRQHandler
00000b08 g     F .text	0000004a LCD_Display_Dir
00003376  w      .text	00000000 DMA2_Channel4_IRQHandler
00007636 g     F .text	0000001a memchr
000038e8 g     F .text	000000d8 USART_Init
000040c0 g     F .text	000000a8 _free_r
0000333a  w      .text	00000000 TIM3_IRQHandler
0000330a  w      .text	00000000 RCC_IRQHandler
00000a02 g     F .text	0000004e LCD_SetCursor
00003334  w      .text	00000000 TIM1_TRG_COM_IRQHandler
00003316  w      .text	00000000 DMA1_Channel1_IRQHandler
00000000 g       .init	00000000 _start
000033a6  w      .text	00000000 DMA2_Channel7_IRQHandler
20000000 g     O .data	00000010 AHBPrescTable
0000432a g     F .text	0000003e strstr
0000967c g     F .text	0000000c _lseek
00006562 g     F .text	000000ce __lshift
000030ec g     F .text	0000005c Pages_error
00003350  w      .text	00000000 EXTI15_10_IRQHandler
2000027c g     O .bss	00000014 buffer
0000752e g     F .text	0000002c strncmp
000039dc g     F .text	00000036 USART_ITConfig
20000290 g     O .bss	00000004 current_product_weight
0000344e g     F .text	0000006a EXTI_Init
00006360 g     F .text	00000144 __multiply
0000684e g     F .text	000000d4 __d2b
20000208 g     O .bss	00000001 Key_Num
00003688 g     F .text	00000004 GPIO_ResetBits
0000336e  w      .text	00000000 TIM7_IRQHandler
00007588 g     F .text	0000002a _close_r
0000337e  w      .text	00000000 CAN2_TX_IRQHandler
20000000 g       .dalign	00000000 _data_vma
00003364  w      .text	00000000 TIM5_IRQHandler
000034e0 g     F .text	000000ba FSMC_NORSRAMInit
00005358 g     F .text	00000110 __swsetup_r
0000332e  w      .text	00000000 EXTI9_5_IRQHandler
00007e64 g     F .text	000005b4 .hidden __divdf3
00005734 g     F .text	000000a0 __sfp
00002edc g     F .text	00000210 renderCurrentProductsPage
00006996 g     F .text	00000036 __copybits
00003696 g     F .text	0000002c GPIO_EXTILineConfig
0000045e g     F .text	0000004c HX711_ReadData
000085e6 g     F .text	000004b8 .hidden __muldf3
00007474 g     F .text	00000030 __sread
0000337c  w      .text	00000000 ETH_WKUP_IRQHandler
00006082 g     F .text	00000002 __malloc_lock
000008fe g     F .text	0000007a deleteProduct
20000294 g     O .bss	00000004 num
000055a6 g     F .text	00000066 _fflush_r
00006a12 g     F .text	00000028 _calloc_r
000034b8 g     F .text	0000001e EXTI_GetITStatus
00003348  w      .text	00000000 SPI2_IRQHandler
0000caac g     O .text	00000020 __sf_fake_stdin
00000b90 g     F .text	00001694 LCD_Init
00000200 g     F .text	000000a8 memset
00002706 g     F .text	00000248 main
00002dd6 g     F .text	00000098 Pages_X_delete
00009cd4 g     O .text	000005f0 asc2_1608
0000339c  w      .text	00000000 TIM10_BRK_IRQHandler
0000248e g     F .text	00000076 LCD_Color_Fill
000093b0 g     F .text	0000008c .hidden __ltsf2
0000339a  w      .text	00000000 TIM9_CC_IRQHandler
00007528 g     F .text	00000006 __sclose
00003378  w      .text	00000000 DMA2_Channel5_IRQHandler
00009478 g     F .text	0000016a .hidden __truncdfsf2
00004168 g     F .text	000000d4 _malloc_r
00005338 g     F .text	00000020 __ascii_wctomb
0000331e  w      .text	00000000 DMA1_Channel5_IRQHandler
00002224 g     F .text	00000070 LCD_Fast_DrawPoint
00003a8c g     F .text	0000004c EXTI4_IRQHandler
00003db6 g     F .text	0000002e Delay_Ms
00003328  w      .text	00000000 USB_LP_CAN1_RX0_IRQHandler
000006b8 g     F .text	000001d0 L610_Recive
20000458 g     O .bss	00000400 USART_Rbuffer
000002a8 g     F .text	0000011e strcmp
00003148 g     F .text	000000fa SystemInit
0000335e  w      .text	00000000 RNG_IRQHandler
00008418 g     F .text	0000006a .hidden __nedf2
0000423c g     F .text	00000042 iprintf
00003326  w      .text	00000000 USB_HP_CAN1_TX_IRQHandler
0000ccac g     O .text	00000100 .hidden __clz_tab
00000000 g       .init	00000000 _sinit
0000294e g     F .text	00000244 renderMainPage
20000860 g     O .bss	0000000e lcddev
00005032 g     F .text	000000e4 strtof
0000755a g     F .text	0000002e _write_r
00003ad8 g     F .text	0000006c extix_init
0000331a  w      .text	00000000 DMA1_Channel3_IRQHandler
20000298 g     O .bss	00000004 pi_weight
00003360  w      .text	00000000 FSMC_IRQHandler
0000337a  w      .text	00000000 ETH_IRQHandler
00007468 g     F .text	0000000c nanf
000070b2 g     F .text	0000010c _printf_common
20000200 g     O .data	00000004 _impure_ptr
00003332  w      .text	00000000 TIM1_UP_IRQHandler
00005468 g     F .text	0000013e __sflush_r
00006b28 g     F .text	00000280 _svfiprintf_r
000025f8 g     F .text	0000010e LCD_Draw_Circle
00003300  w      .text	00000000 WWDG_IRQHandler
2000029c g     O .bss	00000001 numx
00003388  w      .text	00000000 USBHSWakeup_IRQHandler
000033ae  w      .text	00000000 DMA2_Channel11_IRQHandler
00003fd0 g     F .text	0000003a __ascii_mbtowc
000032f8  w      .text	00000000 Ecall_U_Mode_Handler
00006754 g     F .text	00000046 __ulp
200002a0 g     O .bss	00000004 Weight_Shiwu
000033a4  w      .text	00000000 DMA2_Channel6_IRQHandler
00003338  w      .text	00000000 TIM2_IRQHandler
20008000 g       .stack	00000000 _eusrstack
000032fe  w      .text	00000000 SW_Handler
00003330  w      .text	00000000 TIM1_BRK_IRQHandler
00005f86 g     F .text	0000005a __swhatbuf_r
00003a12 g     F .text	0000000a USART_SendData
000033ac  w      .text	00000000 DMA2_Channel10_IRQHandler
0000330e  w      .text	00000000 EXTI1_IRQHandler
000006a8 g     F .text	00000010 L610_Pub
20000858 g     O .bss	00000001 USART_Rbuffer_Num
00003de4 g     F .text	00000050 _write
20000208 g       .data	00000000 _edata
20000878 g       .bss	00000000 _end
0000943c g     F .text	0000003c .hidden __unordsf2
0000b020 g     O .text	000017c0 asc2_3216
200002a4 g     O .bss	00000004 pi
00003ede g     F .text	000000b4 _fputs_r
00003352  w      .text	00000000 RTCAlarm_IRQHandler
000008a4 g     F .text	0000000a initProductList
0000cdac g       .dlalign	00000000 _data_lma
0000339e  w      .text	00000000 TIM10_UP_IRQHandler
00002b92 g     F .text	000000d4 Pages_add
00003398  w      .text	00000000 TIM9_TRG_COM_IRQHandler
00003390  w      .text	00000000 UART7_IRQHandler
00003d12 g     F .text	0000004c USART2_IRQHandler
0000338e  w      .text	00000000 UART6_IRQHandler
000074a4 g     F .text	0000004e __swrite
00003eb0 g     F .text	0000002e exit
00006e16 g     F .text	0000029c _vfiprintf_r
000057d4 g     F .text	0000006c _fwalk_reent
00003242 g     F .text	000000b0 SystemCoreClockUpdate
00006662 g     F .text	000000f2 __mdiff
00003344  w      .text	00000000 I2C2_ER_IRQHandler
00003318  w      .text	00000000 DMA1_Channel2_IRQHandler
0000cacc g     O .text	00000020 __sf_fake_stdout
00003356  w      .text	00000000 TIM8_BRK_IRQHandler
0000c988 g     O .text	00000101 _ctype_
00009688 g     F .text	0000000c _read
000091da g     F .text	0000003c .hidden __unorddf2
000033b0  w      .text	00000000 handle_reset
000008ae g     F .text	00000050 insertProduct
0000332c  w      .text	00000000 CAN1_SCE_IRQHandler
00003e5a g     F .text	00000056 .hidden __fixunssfsi
00003308  w      .text	00000000 FLASH_IRQHandler
00002406 g     F .text	00000088 LCD_ShowString
00009694 g     F .text	00000002 _exit
20000210 g     O .bss	00000001 uart_cnt
00003c7e g     F .text	00000094 USART1_IRQHandler
00005fe0 g     F .text	000000a2 __smakebuf_r
00004318 g     F .text	00000012 strlen
00003386  w      .text	00000000 OTG_FS_IRQHandler
000071be g     F .text	000002aa _printf_i
00003366  w      .text	00000000 SPI3_IRQHandler
00003f9e g     F .text	00000006 __locale_ctype_ptr_l
00008482 g     F .text	000000ae .hidden __gedf2
000058f6 g     F .text	000004ce __gethex
2000021c g     O .bss	00000004 __malloc_sbrk_start
00003340  w      .text	00000000 I2C1_ER_IRQHandler
000036c2 g     F .text	00000006 NVIC_PriorityGroupConfig
00003f92 g     F .text	0000000c fputs
20000218 g     O .bss	00000004 __malloc_free_list
2000085c g     O .bss	00000004 len
00008a9e g     F .text	0000073c .hidden __subdf3
00006e16 g     F .text	0000029c _vfprintf_r
000062da g     F .text	0000006a __lo0bits
00002d02 g     F .text	000000d4 Pages_delete
200002a8 g     O .bss	00000004 weight
000009c0 g     F .text	0000001c LCD_RD_DATA
0000367a g     F .text	0000000a GPIO_ReadInputDataBit
200002ac g     O .bss	000001a0 product
000009dc g     F .text	00000018 LCD_ReadReg
20000080 g     O .data	0000016c __global_locale
00003354  w      .text	00000000 USBWakeUp_IRQHandler
00009658 g     F .text	0000000c _close
000025b6 g     F .text	00000042 LCD_DrawRectangle
00003fc6 g     F .text	0000000a free
00003374  w      .text	00000000 DMA2_Channel3_IRQHandler
00006156 g     F .text	00000098 __multadd
00006112 g     F .text	00000044 _Bfree



Disassembly of section .init:

00000000 <_sinit>:
   0:	3b00306f          	j	33b0 <handle_reset>
   4:	00000013          	nop
   8:	00000013          	nop
   c:	00000013          	nop
  10:	00000013          	nop
  14:	00000013          	nop
  18:	00000013          	nop
  1c:	00000013          	nop
  20:	00000013          	nop
  24:	00000013          	nop
  28:	00000013          	nop
  2c:	00000013          	nop
  30:	00000013          	nop
  34:	00100073          	ebreak

Disassembly of section .vector:

00000038 <_vector_base>:
	...
  40:	0978                	addi	a4,sp,156
  42:	0000                	unimp
  44:	097c                	addi	a5,sp,156
  46:	0000                	unimp
  48:	0000                	unimp
  4a:	0000                	unimp
  4c:	32f6                	fld	ft5,376(sp)
	...
  56:	0000                	unimp
  58:	32f8                	fld	fa4,224(a3)
  5a:	0000                	unimp
  5c:	32fa                	fld	ft5,440(sp)
	...
  66:	0000                	unimp
  68:	32fc                	fld	fa5,224(a3)
  6a:	0000                	unimp
  6c:	0000                	unimp
  6e:	0000                	unimp
  70:	32fe                	fld	ft5,504(sp)
  72:	0000                	unimp
  74:	0000                	unimp
  76:	0000                	unimp
  78:	3300                	fld	fs0,32(a4)
  7a:	0000                	unimp
  7c:	3302                	fld	ft6,32(sp)
  7e:	0000                	unimp
  80:	3304                	fld	fs1,32(a4)
  82:	0000                	unimp
  84:	3306                	fld	ft6,96(sp)
  86:	0000                	unimp
  88:	3308                	fld	fa0,32(a4)
  8a:	0000                	unimp
  8c:	330a                	fld	ft6,160(sp)
  8e:	0000                	unimp
  90:	330c                	fld	fa1,32(a4)
  92:	0000                	unimp
  94:	330e                	fld	ft6,224(sp)
  96:	0000                	unimp
  98:	3310                	fld	fa2,32(a4)
  9a:	0000                	unimp
  9c:	3312                	fld	ft6,288(sp)
  9e:	0000                	unimp
  a0:	3a8c                	fld	fa1,48(a3)
  a2:	0000                	unimp
  a4:	3316                	fld	ft6,352(sp)
  a6:	0000                	unimp
  a8:	3318                	fld	fa4,32(a4)
  aa:	0000                	unimp
  ac:	331a                	fld	ft6,416(sp)
  ae:	0000                	unimp
  b0:	331c                	fld	fa5,32(a4)
  b2:	0000                	unimp
  b4:	331e                	fld	ft6,480(sp)
  b6:	0000                	unimp
  b8:	3320                	fld	fs0,96(a4)
  ba:	0000                	unimp
  bc:	3322                	fld	ft6,40(sp)
  be:	0000                	unimp
  c0:	3324                	fld	fs1,96(a4)
  c2:	0000                	unimp
  c4:	3326                	fld	ft6,104(sp)
  c6:	0000                	unimp
  c8:	3328                	fld	fa0,96(a4)
  ca:	0000                	unimp
  cc:	332a                	fld	ft6,168(sp)
  ce:	0000                	unimp
  d0:	332c                	fld	fa1,96(a4)
  d2:	0000                	unimp
  d4:	332e                	fld	ft6,232(sp)
  d6:	0000                	unimp
  d8:	3330                	fld	fa2,96(a4)
  da:	0000                	unimp
  dc:	3332                	fld	ft6,296(sp)
  de:	0000                	unimp
  e0:	3334                	fld	fa3,96(a4)
  e2:	0000                	unimp
  e4:	3336                	fld	ft6,360(sp)
  e6:	0000                	unimp
  e8:	3338                	fld	fa4,96(a4)
  ea:	0000                	unimp
  ec:	333a                	fld	ft6,424(sp)
  ee:	0000                	unimp
  f0:	333c                	fld	fa5,96(a4)
  f2:	0000                	unimp
  f4:	333e                	fld	ft6,488(sp)
  f6:	0000                	unimp
  f8:	3340                	fld	fs0,160(a4)
  fa:	0000                	unimp
  fc:	3342                	fld	ft6,48(sp)
  fe:	0000                	unimp
 100:	3344                	fld	fs1,160(a4)
 102:	0000                	unimp
 104:	3346                	fld	ft6,112(sp)
 106:	0000                	unimp
 108:	3348                	fld	fa0,160(a4)
 10a:	0000                	unimp
 10c:	3c7e                	fld	fs8,504(sp)
 10e:	0000                	unimp
 110:	3d12                	fld	fs10,288(sp)
 112:	0000                	unimp
 114:	334e                	fld	ft6,240(sp)
 116:	0000                	unimp
 118:	3350                	fld	fa2,160(a4)
 11a:	0000                	unimp
 11c:	3352                	fld	ft6,304(sp)
 11e:	0000                	unimp
 120:	3354                	fld	fa3,160(a4)
 122:	0000                	unimp
 124:	3356                	fld	ft6,368(sp)
 126:	0000                	unimp
 128:	3358                	fld	fa4,160(a4)
 12a:	0000                	unimp
 12c:	335a                	fld	ft6,432(sp)
 12e:	0000                	unimp
 130:	335c                	fld	fa5,160(a4)
 132:	0000                	unimp
 134:	335e                	fld	ft6,496(sp)
 136:	0000                	unimp
 138:	3360                	fld	fs0,224(a4)
 13a:	0000                	unimp
 13c:	3362                	fld	ft6,56(sp)
 13e:	0000                	unimp
 140:	3364                	fld	fs1,224(a4)
 142:	0000                	unimp
 144:	3366                	fld	ft6,120(sp)
 146:	0000                	unimp
 148:	3368                	fld	fa0,224(a4)
 14a:	0000                	unimp
 14c:	336a                	fld	ft6,184(sp)
 14e:	0000                	unimp
 150:	336c                	fld	fa1,224(a4)
 152:	0000                	unimp
 154:	336e                	fld	ft6,248(sp)
 156:	0000                	unimp
 158:	3370                	fld	fa2,224(a4)
 15a:	0000                	unimp
 15c:	3372                	fld	ft6,312(sp)
 15e:	0000                	unimp
 160:	3374                	fld	fa3,224(a4)
 162:	0000                	unimp
 164:	3376                	fld	ft6,376(sp)
 166:	0000                	unimp
 168:	3378                	fld	fa4,224(a4)
 16a:	0000                	unimp
 16c:	337a                	fld	ft6,440(sp)
 16e:	0000                	unimp
 170:	337c                	fld	fa5,224(a4)
 172:	0000                	unimp
 174:	337e                	fld	ft6,504(sp)
 176:	0000                	unimp
 178:	3380                	fld	fs0,32(a5)
 17a:	0000                	unimp
 17c:	3382                	fld	ft7,32(sp)
 17e:	0000                	unimp
 180:	3384                	fld	fs1,32(a5)
 182:	0000                	unimp
 184:	3386                	fld	ft7,96(sp)
 186:	0000                	unimp
 188:	3388                	fld	fa0,32(a5)
 18a:	0000                	unimp
 18c:	338a                	fld	ft7,160(sp)
 18e:	0000                	unimp
 190:	338c                	fld	fa1,32(a5)
 192:	0000                	unimp
 194:	338e                	fld	ft7,224(sp)
 196:	0000                	unimp
 198:	3390                	fld	fa2,32(a5)
 19a:	0000                	unimp
 19c:	3392                	fld	ft7,288(sp)
 19e:	0000                	unimp
 1a0:	3394                	fld	fa3,32(a5)
 1a2:	0000                	unimp
 1a4:	3396                	fld	ft7,352(sp)
 1a6:	0000                	unimp
 1a8:	3398                	fld	fa4,32(a5)
 1aa:	0000                	unimp
 1ac:	339a                	fld	ft7,416(sp)
 1ae:	0000                	unimp
 1b0:	339c                	fld	fa5,32(a5)
 1b2:	0000                	unimp
 1b4:	339e                	fld	ft7,480(sp)
 1b6:	0000                	unimp
 1b8:	33a0                	fld	fs0,96(a5)
 1ba:	0000                	unimp
 1bc:	33a2                	fld	ft7,40(sp)
 1be:	0000                	unimp
 1c0:	33a4                	fld	fs1,96(a5)
 1c2:	0000                	unimp
 1c4:	33a6                	fld	ft7,104(sp)
 1c6:	0000                	unimp
 1c8:	33a8                	fld	fa0,96(a5)
 1ca:	0000                	unimp
 1cc:	33aa                	fld	ft7,168(sp)
 1ce:	0000                	unimp
 1d0:	33ac                	fld	fa1,96(a5)
 1d2:	0000                	unimp
 1d4:	33ae                	fld	ft7,232(sp)
	...

Disassembly of section .text:

00000200 <memset>:
     200:	433d                	li	t1,15
     202:	872a                	mv	a4,a0
     204:	02c37363          	bgeu	t1,a2,22a <memset+0x2a>
     208:	00f77793          	andi	a5,a4,15
     20c:	efbd                	bnez	a5,28a <memset+0x8a>
     20e:	e5ad                	bnez	a1,278 <memset+0x78>
     210:	ff067693          	andi	a3,a2,-16
     214:	8a3d                	andi	a2,a2,15
     216:	96ba                	add	a3,a3,a4
     218:	c30c                	sw	a1,0(a4)
     21a:	c34c                	sw	a1,4(a4)
     21c:	c70c                	sw	a1,8(a4)
     21e:	c74c                	sw	a1,12(a4)
     220:	0741                	addi	a4,a4,16
     222:	fed76be3          	bltu	a4,a3,218 <memset+0x18>
     226:	e211                	bnez	a2,22a <memset+0x2a>
     228:	8082                	ret
     22a:	40c306b3          	sub	a3,t1,a2
     22e:	068a                	slli	a3,a3,0x2
     230:	00000297          	auipc	t0,0x0
     234:	9696                	add	a3,a3,t0
     236:	00a68067          	jr	10(a3)
     23a:	00b70723          	sb	a1,14(a4)
     23e:	00b706a3          	sb	a1,13(a4)
     242:	00b70623          	sb	a1,12(a4)
     246:	00b705a3          	sb	a1,11(a4)
     24a:	00b70523          	sb	a1,10(a4)
     24e:	00b704a3          	sb	a1,9(a4)
     252:	00b70423          	sb	a1,8(a4)
     256:	00b703a3          	sb	a1,7(a4)
     25a:	00b70323          	sb	a1,6(a4)
     25e:	00b702a3          	sb	a1,5(a4)
     262:	00b70223          	sb	a1,4(a4)
     266:	00b701a3          	sb	a1,3(a4)
     26a:	00b70123          	sb	a1,2(a4)
     26e:	00b700a3          	sb	a1,1(a4)
     272:	00b70023          	sb	a1,0(a4)
     276:	8082                	ret
     278:	0ff5f593          	andi	a1,a1,255
     27c:	00859693          	slli	a3,a1,0x8
     280:	8dd5                	or	a1,a1,a3
     282:	01059693          	slli	a3,a1,0x10
     286:	8dd5                	or	a1,a1,a3
     288:	b761                	j	210 <memset+0x10>
     28a:	00279693          	slli	a3,a5,0x2
     28e:	00000297          	auipc	t0,0x0
     292:	9696                	add	a3,a3,t0
     294:	8286                	mv	t0,ra
     296:	fa8680e7          	jalr	-88(a3)
     29a:	8096                	mv	ra,t0
     29c:	17c1                	addi	a5,a5,-16
     29e:	8f1d                	sub	a4,a4,a5
     2a0:	963e                	add	a2,a2,a5
     2a2:	f8c374e3          	bgeu	t1,a2,22a <memset+0x2a>
     2a6:	b7a5                	j	20e <memset+0xe>

000002a8 <strcmp>:
     2a8:	00b56733          	or	a4,a0,a1
     2ac:	53fd                	li	t2,-1
     2ae:	8b0d                	andi	a4,a4,3
     2b0:	e779                	bnez	a4,37e <strcmp+0xd6>
     2b2:	7f7f87b7          	lui	a5,0x7f7f8
     2b6:	f7f78793          	addi	a5,a5,-129 # 7f7f7f7f <_eusrstack+0x5f7eff7f>
     2ba:	4110                	lw	a2,0(a0)
     2bc:	4194                	lw	a3,0(a1)
     2be:	00f672b3          	and	t0,a2,a5
     2c2:	00f66333          	or	t1,a2,a5
     2c6:	92be                	add	t0,t0,a5
     2c8:	0062e2b3          	or	t0,t0,t1
     2cc:	0c729763          	bne	t0,t2,39a <strcmp+0xf2>
     2d0:	06d61863          	bne	a2,a3,340 <strcmp+0x98>
     2d4:	4150                	lw	a2,4(a0)
     2d6:	41d4                	lw	a3,4(a1)
     2d8:	00f672b3          	and	t0,a2,a5
     2dc:	00f66333          	or	t1,a2,a5
     2e0:	92be                	add	t0,t0,a5
     2e2:	0062e2b3          	or	t0,t0,t1
     2e6:	0a729863          	bne	t0,t2,396 <strcmp+0xee>
     2ea:	04d61b63          	bne	a2,a3,340 <strcmp+0x98>
     2ee:	4510                	lw	a2,8(a0)
     2f0:	4594                	lw	a3,8(a1)
     2f2:	00f672b3          	and	t0,a2,a5
     2f6:	00f66333          	or	t1,a2,a5
     2fa:	92be                	add	t0,t0,a5
     2fc:	0062e2b3          	or	t0,t0,t1
     300:	0a729163          	bne	t0,t2,3a2 <strcmp+0xfa>
     304:	02d61e63          	bne	a2,a3,340 <strcmp+0x98>
     308:	4550                	lw	a2,12(a0)
     30a:	45d4                	lw	a3,12(a1)
     30c:	00f672b3          	and	t0,a2,a5
     310:	00f66333          	or	t1,a2,a5
     314:	92be                	add	t0,t0,a5
     316:	0062e2b3          	or	t0,t0,t1
     31a:	08729a63          	bne	t0,t2,3ae <strcmp+0x106>
     31e:	02d61163          	bne	a2,a3,340 <strcmp+0x98>
     322:	4910                	lw	a2,16(a0)
     324:	4994                	lw	a3,16(a1)
     326:	00f672b3          	and	t0,a2,a5
     32a:	00f66333          	or	t1,a2,a5
     32e:	92be                	add	t0,t0,a5
     330:	0062e2b3          	or	t0,t0,t1
     334:	08729363          	bne	t0,t2,3ba <strcmp+0x112>
     338:	0551                	addi	a0,a0,20
     33a:	05d1                	addi	a1,a1,20
     33c:	f6d60fe3          	beq	a2,a3,2ba <strcmp+0x12>
     340:	01061713          	slli	a4,a2,0x10
     344:	01069793          	slli	a5,a3,0x10
     348:	00f71c63          	bne	a4,a5,360 <strcmp+0xb8>
     34c:	01065713          	srli	a4,a2,0x10
     350:	0106d793          	srli	a5,a3,0x10
     354:	40f70533          	sub	a0,a4,a5
     358:	0ff57593          	andi	a1,a0,255
     35c:	e991                	bnez	a1,370 <strcmp+0xc8>
     35e:	8082                	ret
     360:	8341                	srli	a4,a4,0x10
     362:	83c1                	srli	a5,a5,0x10
     364:	40f70533          	sub	a0,a4,a5
     368:	0ff57593          	andi	a1,a0,255
     36c:	e191                	bnez	a1,370 <strcmp+0xc8>
     36e:	8082                	ret
     370:	0ff77713          	andi	a4,a4,255
     374:	0ff7f793          	andi	a5,a5,255
     378:	40f70533          	sub	a0,a4,a5
     37c:	8082                	ret
     37e:	00054603          	lbu	a2,0(a0)
     382:	0005c683          	lbu	a3,0(a1)
     386:	0505                	addi	a0,a0,1
     388:	0585                	addi	a1,a1,1
     38a:	00d61363          	bne	a2,a3,390 <strcmp+0xe8>
     38e:	fa65                	bnez	a2,37e <strcmp+0xd6>
     390:	40d60533          	sub	a0,a2,a3
     394:	8082                	ret
     396:	0511                	addi	a0,a0,4
     398:	0591                	addi	a1,a1,4
     39a:	fed612e3          	bne	a2,a3,37e <strcmp+0xd6>
     39e:	4501                	li	a0,0
     3a0:	8082                	ret
     3a2:	0521                	addi	a0,a0,8
     3a4:	05a1                	addi	a1,a1,8
     3a6:	fcd61ce3          	bne	a2,a3,37e <strcmp+0xd6>
     3aa:	4501                	li	a0,0
     3ac:	8082                	ret
     3ae:	0531                	addi	a0,a0,12
     3b0:	05b1                	addi	a1,a1,12
     3b2:	fcd616e3          	bne	a2,a3,37e <strcmp+0xd6>
     3b6:	4501                	li	a0,0
     3b8:	8082                	ret
     3ba:	0541                	addi	a0,a0,16
     3bc:	05c1                	addi	a1,a1,16
     3be:	fcd610e3          	bne	a2,a3,37e <strcmp+0xd6>
     3c2:	4501                	li	a0,0
     3c4:	8082                	ret

000003c6 <HX711_GPIO_Init>:
     3c6:	1101                	addi	sp,sp,-32
     3c8:	4585                	li	a1,1
     3ca:	4521                	li	a0,8
     3cc:	ce06                	sw	ra,28(sp)
     3ce:	cc22                	sw	s0,24(sp)
     3d0:	ca26                	sw	s1,20(sp)
     3d2:	4da030ef          	jal	ra,38ac <RCC_APB2PeriphClockCmd>
     3d6:	40011437          	lui	s0,0x40011
     3da:	47c1                	li	a5,16
     3dc:	c63e                	sw	a5,12(sp)
     3de:	448d                	li	s1,3
     3e0:	4789                	li	a5,2
     3e2:	004c                	addi	a1,sp,4
     3e4:	c0040513          	addi	a0,s0,-1024 # 40010c00 <_eusrstack+0x20008c00>
     3e8:	00f11223          	sh	a5,4(sp)
     3ec:	c426                	sw	s1,8(sp)
     3ee:	1ca030ef          	jal	ra,35b8 <GPIO_Init>
     3f2:	4791                	li	a5,4
     3f4:	c63e                	sw	a5,12(sp)
     3f6:	004c                	addi	a1,sp,4
     3f8:	4785                	li	a5,1
     3fa:	c0040513          	addi	a0,s0,-1024
     3fe:	c426                	sw	s1,8(sp)
     400:	00f11223          	sh	a5,4(sp)
     404:	1b4030ef          	jal	ra,35b8 <GPIO_Init>
     408:	40f2                	lw	ra,28(sp)
     40a:	4462                	lw	s0,24(sp)
     40c:	44d2                	lw	s1,20(sp)
     40e:	6105                	addi	sp,sp,32
     410:	8082                	ret

00000412 <HX711_W_PD_SCK>:
     412:	862a                	mv	a2,a0
     414:	40011537          	lui	a0,0x40011
     418:	4589                	li	a1,2
     41a:	c0050513          	addi	a0,a0,-1024 # 40010c00 <_eusrstack+0x20008c00>
     41e:	26e0306f          	j	368c <GPIO_WriteBit>

00000422 <HX711_R_DOUT>:
     422:	1101                	addi	sp,sp,-32
     424:	4585                	li	a1,1
     426:	4521                	li	a0,8
     428:	ce06                	sw	ra,28(sp)
     42a:	cc22                	sw	s0,24(sp)
     42c:	480030ef          	jal	ra,38ac <RCC_APB2PeriphClockCmd>
     430:	4791                	li	a5,4
     432:	c63e                	sw	a5,12(sp)
     434:	40011437          	lui	s0,0x40011
     438:	4785                	li	a5,1
     43a:	00f11223          	sh	a5,4(sp)
     43e:	004c                	addi	a1,sp,4
     440:	478d                	li	a5,3
     442:	c0040513          	addi	a0,s0,-1024 # 40010c00 <_eusrstack+0x20008c00>
     446:	c43e                	sw	a5,8(sp)
     448:	170030ef          	jal	ra,35b8 <GPIO_Init>
     44c:	c0040513          	addi	a0,s0,-1024
     450:	4585                	li	a1,1
     452:	228030ef          	jal	ra,367a <GPIO_ReadInputDataBit>
     456:	40f2                	lw	ra,28(sp)
     458:	4462                	lw	s0,24(sp)
     45a:	6105                	addi	sp,sp,32
     45c:	8082                	ret

0000045e <HX711_ReadData>:
     45e:	1141                	addi	sp,sp,-16
     460:	c606                	sw	ra,12(sp)
     462:	c422                	sw	s0,8(sp)
     464:	c226                	sw	s1,4(sp)
     466:	3f75                	jal	422 <HX711_R_DOUT>
     468:	4501                	li	a0,0
     46a:	3765                	jal	412 <HX711_W_PD_SCK>
     46c:	3f5d                	jal	422 <HX711_R_DOUT>
     46e:	fd7d                	bnez	a0,46c <HX711_ReadData+0xe>
     470:	4505                	li	a0,1
     472:	117030ef          	jal	ra,3d88 <Delay_Us>
     476:	44e1                	li	s1,24
     478:	4401                	li	s0,0
     47a:	4505                	li	a0,1
     47c:	3f59                	jal	412 <HX711_W_PD_SCK>
     47e:	4501                	li	a0,0
     480:	0406                	slli	s0,s0,0x1
     482:	3f41                	jal	412 <HX711_W_PD_SCK>
     484:	3f79                	jal	422 <HX711_R_DOUT>
     486:	c111                	beqz	a0,48a <HX711_ReadData+0x2c>
     488:	0405                	addi	s0,s0,1
     48a:	14fd                	addi	s1,s1,-1
     48c:	0ff4f493          	andi	s1,s1,255
     490:	f4ed                	bnez	s1,47a <HX711_ReadData+0x1c>
     492:	4505                	li	a0,1
     494:	3fbd                	jal	412 <HX711_W_PD_SCK>
     496:	4501                	li	a0,0
     498:	3fad                	jal	412 <HX711_W_PD_SCK>
     49a:	00800537          	lui	a0,0x800
     49e:	8d21                	xor	a0,a0,s0
     4a0:	40b2                	lw	ra,12(sp)
     4a2:	4422                	lw	s0,8(sp)
     4a4:	4492                	lw	s1,4(sp)
     4a6:	0141                	addi	sp,sp,16
     4a8:	8082                	ret

000004aa <charArrayToU8>:
     4aa:	1101                	addi	sp,sp,-32
     4ac:	4629                	li	a2,10
     4ae:	006c                	addi	a1,sp,12
     4b0:	ce06                	sw	ra,28(sp)
     4b2:	5a9040ef          	jal	ra,525a <strtol>
     4b6:	47b2                	lw	a5,12(sp)
     4b8:	00078783          	lb	a5,0(a5)
     4bc:	e799                	bnez	a5,4ca <charArrayToU8+0x20>
     4be:	0ff00713          	li	a4,255
     4c2:	0ff57793          	andi	a5,a0,255
     4c6:	00a77c63          	bgeu	a4,a0,4de <charArrayToU8+0x34>
     4ca:	8101a783          	lw	a5,-2032(gp) # 20000200 <_impure_ptr>
     4ce:	00009537          	lui	a0,0x9
     4d2:	69850513          	addi	a0,a0,1688 # 9698 <_exit+0x4>
     4d6:	47cc                	lw	a1,12(a5)
     4d8:	2bb030ef          	jal	ra,3f92 <fputs>
     4dc:	4781                	li	a5,0
     4de:	40f2                	lw	ra,28(sp)
     4e0:	853e                	mv	a0,a5
     4e2:	6105                	addi	sp,sp,32
     4e4:	8082                	ret

000004e6 <weight_check_add>:
     4e6:	8881a703          	lw	a4,-1912(gp) # 20000278 <former_weight>
     4ea:	8b81a783          	lw	a5,-1864(gp) # 200002a8 <weight>
     4ee:	1141                	addi	sp,sp,-16
     4f0:	c422                	sw	s0,8(sp)
     4f2:	8f99                	sub	a5,a5,a4
     4f4:	13050513          	addi	a0,a0,304
     4f8:	8af1a023          	sw	a5,-1888(gp) # 20000290 <current_product_weight>
     4fc:	c606                	sw	ra,12(sp)
     4fe:	3775                	jal	4aa <charArrayToU8>
     500:	8a01a783          	lw	a5,-1888(gp) # 20000290 <current_product_weight>
     504:	01450713          	addi	a4,a0,20
     508:	00f76b63          	bltu	a4,a5,51e <weight_check_add+0x38>
     50c:	1531                	addi	a0,a0,-20
     50e:	00a7b533          	sltu	a0,a5,a0
     512:	00154513          	xori	a0,a0,1
     516:	40b2                	lw	ra,12(sp)
     518:	4422                	lw	s0,8(sp)
     51a:	0141                	addi	sp,sp,16
     51c:	8082                	ret
     51e:	4501                	li	a0,0
     520:	bfdd                	j	516 <weight_check_add+0x30>

00000522 <weight_check_delete>:
     522:	8b81a703          	lw	a4,-1864(gp) # 200002a8 <weight>
     526:	8881a783          	lw	a5,-1912(gp) # 20000278 <former_weight>
     52a:	1141                	addi	sp,sp,-16
     52c:	c422                	sw	s0,8(sp)
     52e:	8f99                	sub	a5,a5,a4
     530:	13050513          	addi	a0,a0,304
     534:	8af1a023          	sw	a5,-1888(gp) # 20000290 <current_product_weight>
     538:	c606                	sw	ra,12(sp)
     53a:	3f85                	jal	4aa <charArrayToU8>
     53c:	8a01a783          	lw	a5,-1888(gp) # 20000290 <current_product_weight>
     540:	01450713          	addi	a4,a0,20
     544:	00f76b63          	bltu	a4,a5,55a <weight_check_delete+0x38>
     548:	1531                	addi	a0,a0,-20
     54a:	00a7b533          	sltu	a0,a5,a0
     54e:	00154513          	xori	a0,a0,1
     552:	40b2                	lw	ra,12(sp)
     554:	4422                	lw	s0,8(sp)
     556:	0141                	addi	sp,sp,16
     558:	8082                	ret
     55a:	4501                	li	a0,0
     55c:	bfdd                	j	552 <weight_check_delete+0x30>

0000055e <Key_GetNum>:
     55e:	1141                	addi	sp,sp,-16
     560:	c422                	sw	s0,8(sp)
     562:	40011437          	lui	s0,0x40011
     566:	45c1                	li	a1,16
     568:	80040513          	addi	a0,s0,-2048 # 40010800 <_eusrstack+0x20008800>
     56c:	c606                	sw	ra,12(sp)
     56e:	c226                	sw	s1,4(sp)
     570:	10a030ef          	jal	ra,367a <GPIO_ReadInputDataBit>
     574:	e10d                	bnez	a0,596 <Key_GetNum+0x38>
     576:	4551                	li	a0,20
     578:	03f030ef          	jal	ra,3db6 <Delay_Ms>
     57c:	80040413          	addi	s0,s0,-2048
     580:	45c1                	li	a1,16
     582:	8522                	mv	a0,s0
     584:	0f6030ef          	jal	ra,367a <GPIO_ReadInputDataBit>
     588:	dd65                	beqz	a0,580 <Key_GetNum+0x22>
     58a:	4551                	li	a0,20
     58c:	02b030ef          	jal	ra,3db6 <Delay_Ms>
     590:	4705                	li	a4,1
     592:	80e18c23          	sb	a4,-2024(gp) # 20000208 <_edata>
     596:	40011437          	lui	s0,0x40011
     59a:	02000593          	li	a1,32
     59e:	80040513          	addi	a0,s0,-2048 # 40010800 <_eusrstack+0x20008800>
     5a2:	0d8030ef          	jal	ra,367a <GPIO_ReadInputDataBit>
     5a6:	e115                	bnez	a0,5ca <Key_GetNum+0x6c>
     5a8:	4551                	li	a0,20
     5aa:	00d030ef          	jal	ra,3db6 <Delay_Ms>
     5ae:	80040413          	addi	s0,s0,-2048
     5b2:	02000593          	li	a1,32
     5b6:	8522                	mv	a0,s0
     5b8:	0c2030ef          	jal	ra,367a <GPIO_ReadInputDataBit>
     5bc:	d97d                	beqz	a0,5b2 <Key_GetNum+0x54>
     5be:	4551                	li	a0,20
     5c0:	7f6030ef          	jal	ra,3db6 <Delay_Ms>
     5c4:	4709                	li	a4,2
     5c6:	80e18c23          	sb	a4,-2024(gp) # 20000208 <_edata>
     5ca:	40011437          	lui	s0,0x40011
     5ce:	04000593          	li	a1,64
     5d2:	80040513          	addi	a0,s0,-2048 # 40010800 <_eusrstack+0x20008800>
     5d6:	0a4030ef          	jal	ra,367a <GPIO_ReadInputDataBit>
     5da:	e115                	bnez	a0,5fe <Key_GetNum+0xa0>
     5dc:	4551                	li	a0,20
     5de:	7d8030ef          	jal	ra,3db6 <Delay_Ms>
     5e2:	80040413          	addi	s0,s0,-2048
     5e6:	04000593          	li	a1,64
     5ea:	8522                	mv	a0,s0
     5ec:	08e030ef          	jal	ra,367a <GPIO_ReadInputDataBit>
     5f0:	d97d                	beqz	a0,5e6 <Key_GetNum+0x88>
     5f2:	4551                	li	a0,20
     5f4:	7c2030ef          	jal	ra,3db6 <Delay_Ms>
     5f8:	470d                	li	a4,3
     5fa:	80e18c23          	sb	a4,-2024(gp) # 20000208 <_edata>
     5fe:	40011437          	lui	s0,0x40011
     602:	08000593          	li	a1,128
     606:	80040513          	addi	a0,s0,-2048 # 40010800 <_eusrstack+0x20008800>
     60a:	070030ef          	jal	ra,367a <GPIO_ReadInputDataBit>
     60e:	e115                	bnez	a0,632 <Key_GetNum+0xd4>
     610:	4551                	li	a0,20
     612:	7a4030ef          	jal	ra,3db6 <Delay_Ms>
     616:	80040413          	addi	s0,s0,-2048
     61a:	08000593          	li	a1,128
     61e:	8522                	mv	a0,s0
     620:	05a030ef          	jal	ra,367a <GPIO_ReadInputDataBit>
     624:	d97d                	beqz	a0,61a <Key_GetNum+0xbc>
     626:	4551                	li	a0,20
     628:	78e030ef          	jal	ra,3db6 <Delay_Ms>
     62c:	4711                	li	a4,4
     62e:	80e18c23          	sb	a4,-2024(gp) # 20000208 <_edata>
     632:	6485                	lui	s1,0x1
     634:	40011437          	lui	s0,0x40011
     638:	80048593          	addi	a1,s1,-2048 # 800 <__stack_size>
     63c:	80040513          	addi	a0,s0,-2048 # 40010800 <_eusrstack+0x20008800>
     640:	03a030ef          	jal	ra,367a <GPIO_ReadInputDataBit>
     644:	e11d                	bnez	a0,66a <Key_GetNum+0x10c>
     646:	4551                	li	a0,20
     648:	76e030ef          	jal	ra,3db6 <Delay_Ms>
     64c:	80048493          	addi	s1,s1,-2048
     650:	80040413          	addi	s0,s0,-2048
     654:	85a6                	mv	a1,s1
     656:	8522                	mv	a0,s0
     658:	022030ef          	jal	ra,367a <GPIO_ReadInputDataBit>
     65c:	dd65                	beqz	a0,654 <Key_GetNum+0xf6>
     65e:	4551                	li	a0,20
     660:	756030ef          	jal	ra,3db6 <Delay_Ms>
     664:	4715                	li	a4,5
     666:	80e18c23          	sb	a4,-2024(gp) # 20000208 <_edata>
     66a:	40011437          	lui	s0,0x40011
     66e:	6585                	lui	a1,0x1
     670:	80040513          	addi	a0,s0,-2048 # 40010800 <_eusrstack+0x20008800>
     674:	006030ef          	jal	ra,367a <GPIO_ReadInputDataBit>
     678:	e10d                	bnez	a0,69a <Key_GetNum+0x13c>
     67a:	4551                	li	a0,20
     67c:	73a030ef          	jal	ra,3db6 <Delay_Ms>
     680:	80040413          	addi	s0,s0,-2048
     684:	6585                	lui	a1,0x1
     686:	8522                	mv	a0,s0
     688:	7f3020ef          	jal	ra,367a <GPIO_ReadInputDataBit>
     68c:	dd65                	beqz	a0,684 <Key_GetNum+0x126>
     68e:	4551                	li	a0,20
     690:	726030ef          	jal	ra,3db6 <Delay_Ms>
     694:	4719                	li	a4,6
     696:	80e18c23          	sb	a4,-2024(gp) # 20000208 <_edata>
     69a:	40b2                	lw	ra,12(sp)
     69c:	4422                	lw	s0,8(sp)
     69e:	8181c503          	lbu	a0,-2024(gp) # 20000208 <_edata>
     6a2:	4492                	lw	s1,4(sp)
     6a4:	0141                	addi	sp,sp,16
     6a6:	8082                	ret

000006a8 <L610_Pub>:
     6a8:	862e                	mv	a2,a1
     6aa:	85aa                	mv	a1,a0
     6ac:	00009537          	lui	a0,0x9
     6b0:	6b850513          	addi	a0,a0,1720 # 96b8 <_exit+0x24>
     6b4:	3890306f          	j	423c <iprintf>

000006b8 <L610_Recive>:
     6b8:	7121                	addi	sp,sp,-448
     6ba:	1a912a23          	sw	s1,436(sp)
     6be:	200004b7          	lui	s1,0x20000
     6c2:	1a812c23          	sw	s0,440(sp)
     6c6:	1b212823          	sw	s2,432(sp)
     6ca:	1a112e23          	sw	ra,444(sp)
     6ce:	892a                	mv	s2,a0
     6d0:	8426                	mv	s0,s1
     6d2:	45848783          	lb	a5,1112(s1) # 20000458 <USART_Rbuffer>
     6d6:	1a078463          	beqz	a5,87e <__stack_size+0x7e>
     6da:	0c800513          	li	a0,200
     6de:	6d8030ef          	jal	ra,3db6 <Delay_Ms>
     6e2:	000095b7          	lui	a1,0x9
     6e6:	76058593          	addi	a1,a1,1888 # 9760 <_exit+0xcc>
     6ea:	45848513          	addi	a0,s1,1112
     6ee:	43d030ef          	jal	ra,432a <strstr>
     6f2:	c90d                	beqz	a0,724 <L610_Recive+0x6c>
     6f4:	4781                	li	a5,0
     6f6:	02200613          	li	a2,34
     6fa:	06400693          	li	a3,100
     6fe:	00f50733          	add	a4,a0,a5
     702:	00570703          	lb	a4,5(a4)
     706:	00c70463          	beq	a4,a2,70e <L610_Recive+0x56>
     70a:	14d79863          	bne	a5,a3,85a <__stack_size+0x5a>
     70e:	1b18                	addi	a4,sp,432
     710:	00009537          	lui	a0,0x9
     714:	97ba                	add	a5,a5,a4
     716:	080c                	addi	a1,sp,16
     718:	76450513          	addi	a0,a0,1892 # 9764 <_exit+0xd0>
     71c:	e6078023          	sb	zero,-416(a5)
     720:	31d030ef          	jal	ra,423c <iprintf>
     724:	000095b7          	lui	a1,0x9
     728:	78458593          	addi	a1,a1,1924 # 9784 <_exit+0xf0>
     72c:	45840513          	addi	a0,s0,1112
     730:	3fb030ef          	jal	ra,432a <strstr>
     734:	cd05                	beqz	a0,76c <L610_Recive+0xb4>
     736:	0818                	addi	a4,sp,16
     738:	4781                	li	a5,0
     73a:	02200593          	li	a1,34
     73e:	06400613          	li	a2,100
     742:	00f506b3          	add	a3,a0,a5
     746:	00768683          	lb	a3,7(a3)
     74a:	00b68563          	beq	a3,a1,754 <L610_Recive+0x9c>
     74e:	0705                	addi	a4,a4,1
     750:	10c79b63          	bne	a5,a2,866 <__stack_size+0x66>
     754:	1b18                	addi	a4,sp,432
     756:	00009537          	lui	a0,0x9
     75a:	97ba                	add	a5,a5,a4
     75c:	07610593          	addi	a1,sp,118
     760:	78c50513          	addi	a0,a0,1932 # 978c <_exit+0xf8>
     764:	ec078323          	sb	zero,-314(a5)
     768:	2d5030ef          	jal	ra,423c <iprintf>
     76c:	000095b7          	lui	a1,0x9
     770:	7ac58593          	addi	a1,a1,1964 # 97ac <_exit+0x118>
     774:	45840513          	addi	a0,s0,1112
     778:	3b3030ef          	jal	ra,432a <strstr>
     77c:	c539                	beqz	a0,7ca <L610_Recive+0x112>
     77e:	0818                	addi	a4,sp,16
     780:	4781                	li	a5,0
     782:	02c00593          	li	a1,44
     786:	02200813          	li	a6,34
     78a:	06400613          	li	a2,100
     78e:	00f506b3          	add	a3,a0,a5
     792:	00868683          	lb	a3,8(a3)
     796:	00b68763          	beq	a3,a1,7a4 <L610_Recive+0xec>
     79a:	01068563          	beq	a3,a6,7a4 <L610_Recive+0xec>
     79e:	0705                	addi	a4,a4,1
     7a0:	0cc79763          	bne	a5,a2,86e <__stack_size+0x6e>
     7a4:	1b18                	addi	a4,sp,432
     7a6:	97ba                	add	a5,a5,a4
     7a8:	006c                	addi	a1,sp,12
     7aa:	09e8                	addi	a0,sp,220
     7ac:	f2078623          	sb	zero,-212(a5)
     7b0:	083040ef          	jal	ra,5032 <strtof>
     7b4:	6a6030ef          	jal	ra,3e5a <__fixunssfsi>
     7b8:	06a10aa3          	sb	a0,117(sp)
     7bc:	00009537          	lui	a0,0x9
     7c0:	09ec                	addi	a1,sp,220
     7c2:	7b450513          	addi	a0,a0,1972 # 97b4 <_exit+0x120>
     7c6:	277030ef          	jal	ra,423c <iprintf>
     7ca:	000095b7          	lui	a1,0x9
     7ce:	7d858593          	addi	a1,a1,2008 # 97d8 <_exit+0x144>
     7d2:	45840513          	addi	a0,s0,1112
     7d6:	355030ef          	jal	ra,432a <strstr>
     7da:	c539                	beqz	a0,828 <__stack_size+0x28>
     7dc:	0818                	addi	a4,sp,16
     7de:	4781                	li	a5,0
     7e0:	02c00593          	li	a1,44
     7e4:	02200813          	li	a6,34
     7e8:	06400613          	li	a2,100
     7ec:	00f506b3          	add	a3,a0,a5
     7f0:	00968683          	lb	a3,9(a3)
     7f4:	00b68763          	beq	a3,a1,802 <__stack_size+0x2>
     7f8:	01068563          	beq	a3,a6,802 <__stack_size+0x2>
     7fc:	0705                	addi	a4,a4,1
     7fe:	06c79c63          	bne	a5,a2,876 <__stack_size+0x76>
     802:	1b18                	addi	a4,sp,432
     804:	97ba                	add	a5,a5,a4
     806:	006c                	addi	a1,sp,12
     808:	0288                	addi	a0,sp,320
     80a:	f8078823          	sb	zero,-112(a5)
     80e:	025040ef          	jal	ra,5032 <strtof>
     812:	648030ef          	jal	ra,3e5a <__fixunssfsi>
     816:	0ca10da3          	sb	a0,219(sp)
     81a:	00009537          	lui	a0,0x9
     81e:	028c                	addi	a1,sp,320
     820:	7e050513          	addi	a0,a0,2016 # 97e0 <_exit+0x14c>
     824:	219030ef          	jal	ra,423c <iprintf>
     828:	40000613          	li	a2,1024
     82c:	4581                	li	a1,0
     82e:	45840513          	addi	a0,s0,1112
     832:	e6018423          	sb	zero,-408(gp) # 20000858 <USART_Rbuffer_Num>
     836:	32e9                	jal	200 <memset>
     838:	080c                	addi	a1,sp,16
     83a:	854a                	mv	a0,s2
     83c:	1a000613          	li	a2,416
     840:	7ca030ef          	jal	ra,400a <memcpy>
     844:	1bc12083          	lw	ra,444(sp)
     848:	1b812403          	lw	s0,440(sp)
     84c:	854a                	mv	a0,s2
     84e:	1b412483          	lw	s1,436(sp)
     852:	1b012903          	lw	s2,432(sp)
     856:	6139                	addi	sp,sp,448
     858:	8082                	ret
     85a:	080c                	addi	a1,sp,16
     85c:	95be                	add	a1,a1,a5
     85e:	00e58023          	sb	a4,0(a1)
     862:	0785                	addi	a5,a5,1
     864:	bd69                	j	6fe <L610_Recive+0x46>
     866:	0785                	addi	a5,a5,1
     868:	06d702a3          	sb	a3,101(a4)
     86c:	bdd9                	j	742 <L610_Recive+0x8a>
     86e:	0785                	addi	a5,a5,1
     870:	0cd705a3          	sb	a3,203(a4)
     874:	bf29                	j	78e <L610_Recive+0xd6>
     876:	0785                	addi	a5,a5,1
     878:	12d707a3          	sb	a3,303(a4)
     87c:	bf85                	j	7ec <L610_Recive+0x134>
     87e:	1f400513          	li	a0,500
     882:	534030ef          	jal	ra,3db6 <Delay_Ms>
     886:	b5b1                	j	6d2 <L610_Recive+0x1a>

00000888 <insertProduct.part.0>:
     888:	8101a783          	lw	a5,-2032(gp) # 20000200 <_impure_ptr>
     88c:	0000a537          	lui	a0,0xa
     890:	1141                	addi	sp,sp,-16
     892:	47cc                	lw	a1,12(a5)
     894:	84450513          	addi	a0,a0,-1980 # 9844 <_exit+0x1b0>
     898:	c606                	sw	ra,12(sp)
     89a:	6f8030ef          	jal	ra,3f92 <fputs>
     89e:	4505                	li	a0,1
     8a0:	610030ef          	jal	ra,3eb0 <exit>

000008a4 <initProductList>:
     8a4:	00052223          	sw	zero,4(a0)
     8a8:	00050023          	sb	zero,0(a0)
     8ac:	8082                	ret

000008ae <insertProduct>:
     8ae:	1101                	addi	sp,sp,-32
     8b0:	cc22                	sw	s0,24(sp)
     8b2:	842a                	mv	s0,a0
     8b4:	1a000513          	li	a0,416
     8b8:	c62e                	sw	a1,12(sp)
     8ba:	ce06                	sw	ra,28(sp)
     8bc:	ca26                	sw	s1,20(sp)
     8be:	6fe030ef          	jal	ra,3fbc <malloc>
     8c2:	45b2                	lw	a1,12(sp)
     8c4:	e111                	bnez	a0,8c8 <insertProduct+0x1a>
     8c6:	37c9                	jal	888 <insertProduct.part.0>
     8c8:	1a000613          	li	a2,416
     8cc:	84aa                	mv	s1,a0
     8ce:	73c030ef          	jal	ra,400a <memcpy>
     8d2:	405c                	lw	a5,4(s0)
     8d4:	1804ac23          	sw	zero,408(s1)
     8d8:	ef89                	bnez	a5,8f2 <insertProduct+0x44>
     8da:	c044                	sw	s1,4(s0)
     8dc:	00044783          	lbu	a5,0(s0)
     8e0:	40f2                	lw	ra,28(sp)
     8e2:	44d2                	lw	s1,20(sp)
     8e4:	0785                	addi	a5,a5,1
     8e6:	00f40023          	sb	a5,0(s0)
     8ea:	4462                	lw	s0,24(sp)
     8ec:	6105                	addi	sp,sp,32
     8ee:	8082                	ret
     8f0:	87ba                	mv	a5,a4
     8f2:	1987a703          	lw	a4,408(a5)
     8f6:	ff6d                	bnez	a4,8f0 <insertProduct+0x42>
     8f8:	1897ac23          	sw	s1,408(a5)
     8fc:	b7c5                	j	8dc <insertProduct+0x2e>

000008fe <deleteProduct>:
     8fe:	1101                	addi	sp,sp,-32
     900:	cc22                	sw	s0,24(sp)
     902:	4140                	lw	s0,4(a0)
     904:	ce06                	sw	ra,28(sp)
     906:	ca26                	sw	s1,20(sp)
     908:	c84a                	sw	s2,16(sp)
     90a:	c64e                	sw	s3,12(sp)
     90c:	cc39                	beqz	s0,96a <deleteProduct+0x6c>
     90e:	892e                	mv	s2,a1
     910:	84aa                	mv	s1,a0
     912:	4981                	li	s3,0
     914:	85ca                	mv	a1,s2
     916:	8522                	mv	a0,s0
     918:	3a41                	jal	2a8 <strcmp>
     91a:	19842783          	lw	a5,408(s0)
     91e:	e90d                	bnez	a0,950 <deleteProduct+0x52>
     920:	02099c63          	bnez	s3,958 <deleteProduct+0x5a>
     924:	c0dc                	sw	a5,4(s1)
     926:	8522                	mv	a0,s0
     928:	69e030ef          	jal	ra,3fc6 <free>
     92c:	0004c783          	lbu	a5,0(s1)
     930:	0000a537          	lui	a0,0xa
     934:	85ca                	mv	a1,s2
     936:	17fd                	addi	a5,a5,-1
     938:	00f48023          	sb	a5,0(s1)
     93c:	80450513          	addi	a0,a0,-2044 # 9804 <_exit+0x170>
     940:	4462                	lw	s0,24(sp)
     942:	40f2                	lw	ra,28(sp)
     944:	44d2                	lw	s1,20(sp)
     946:	4942                	lw	s2,16(sp)
     948:	49b2                	lw	s3,12(sp)
     94a:	6105                	addi	sp,sp,32
     94c:	0f10306f          	j	423c <iprintf>
     950:	89a2                	mv	s3,s0
     952:	c791                	beqz	a5,95e <deleteProduct+0x60>
     954:	843e                	mv	s0,a5
     956:	bf7d                	j	914 <deleteProduct+0x16>
     958:	18f9ac23          	sw	a5,408(s3)
     95c:	b7e9                	j	926 <deleteProduct+0x28>
     95e:	0000a537          	lui	a0,0xa
     962:	85ca                	mv	a1,s2
     964:	82450513          	addi	a0,a0,-2012 # 9824 <_exit+0x190>
     968:	bfe1                	j	940 <deleteProduct+0x42>
     96a:	40f2                	lw	ra,28(sp)
     96c:	4462                	lw	s0,24(sp)
     96e:	44d2                	lw	s1,20(sp)
     970:	4942                	lw	s2,16(sp)
     972:	49b2                	lw	s3,12(sp)
     974:	6105                	addi	sp,sp,32
     976:	8082                	ret

00000978 <NMI_Handler>:
     978:	30200073          	mret

0000097c <HardFault_Handler>:
     97c:	a001                	j	97c <HardFault_Handler>

0000097e <LCD_Reset_GPIO_Init>:
     97e:	1101                	addi	sp,sp,-32
     980:	4585                	li	a1,1
     982:	4511                	li	a0,4
     984:	ce06                	sw	ra,28(sp)
     986:	cc22                	sw	s0,24(sp)
     988:	c202                	sw	zero,4(sp)
     98a:	c402                	sw	zero,8(sp)
     98c:	c602                	sw	zero,12(sp)
     98e:	71f020ef          	jal	ra,38ac <RCC_APB2PeriphClockCmd>
     992:	77e1                	lui	a5,0xffff8
     994:	00f11223          	sh	a5,4(sp)
     998:	40011437          	lui	s0,0x40011
     99c:	47c1                	li	a5,16
     99e:	c63e                	sw	a5,12(sp)
     9a0:	004c                	addi	a1,sp,4
     9a2:	478d                	li	a5,3
     9a4:	80040513          	addi	a0,s0,-2048 # 40010800 <_eusrstack+0x20008800>
     9a8:	c43e                	sw	a5,8(sp)
     9aa:	40f020ef          	jal	ra,35b8 <GPIO_Init>
     9ae:	80040513          	addi	a0,s0,-2048
     9b2:	65a1                	lui	a1,0x8
     9b4:	4d1020ef          	jal	ra,3684 <GPIO_SetBits>
     9b8:	40f2                	lw	ra,28(sp)
     9ba:	4462                	lw	s0,24(sp)
     9bc:	6105                	addi	sp,sp,32
     9be:	8082                	ret

000009c0 <LCD_RD_DATA>:
     9c0:	600407b7          	lui	a5,0x60040
     9c4:	17f9                	addi	a5,a5,-2
     9c6:	0027d783          	lhu	a5,2(a5) # 60040002 <_eusrstack+0x40038002>
     9ca:	1141                	addi	sp,sp,-16
     9cc:	07c2                	slli	a5,a5,0x10
     9ce:	83c1                	srli	a5,a5,0x10
     9d0:	00f11723          	sh	a5,14(sp)
     9d4:	00e15503          	lhu	a0,14(sp)
     9d8:	0141                	addi	sp,sp,16
     9da:	8082                	ret

000009dc <LCD_ReadReg>:
     9dc:	1141                	addi	sp,sp,-16
     9de:	c606                	sw	ra,12(sp)
     9e0:	600407b7          	lui	a5,0x60040
     9e4:	fea79f23          	sh	a0,-2(a5) # 6003fffe <_eusrstack+0x40037ffe>
     9e8:	4515                	li	a0,5
     9ea:	39e030ef          	jal	ra,3d88 <Delay_Us>
     9ee:	40b2                	lw	ra,12(sp)
     9f0:	0141                	addi	sp,sp,16
     9f2:	b7f9                	j	9c0 <LCD_RD_DATA>

000009f4 <LCD_WriteRAM_Prepare>:
     9f4:	e781d703          	lhu	a4,-392(gp) # 20000868 <lcddev+0x8>
     9f8:	600407b7          	lui	a5,0x60040
     9fc:	fee79f23          	sh	a4,-2(a5) # 6003fffe <_eusrstack+0x40037ffe>
     a00:	8082                	ret

00000a02 <LCD_SetCursor>:
     a02:	e7018613          	addi	a2,gp,-400 # 20000860 <lcddev>
     a06:	00a65783          	lhu	a5,10(a2)
     a0a:	60040737          	lui	a4,0x60040
     a0e:	00855813          	srli	a6,a0,0x8
     a12:	fef71f23          	sh	a5,-2(a4) # 6003fffe <_eusrstack+0x40037ffe>
     a16:	0785                	addi	a5,a5,1
     a18:	07c2                	slli	a5,a5,0x10
     a1a:	01071023          	sh	a6,0(a4)
     a1e:	83c1                	srli	a5,a5,0x10
     a20:	fef71f23          	sh	a5,-2(a4)
     a24:	0ff57513          	andi	a0,a0,255
     a28:	00a71023          	sh	a0,0(a4)
     a2c:	00c65783          	lhu	a5,12(a2)
     a30:	0085d613          	srli	a2,a1,0x8
     a34:	0ff5f593          	andi	a1,a1,255
     a38:	fef71f23          	sh	a5,-2(a4)
     a3c:	0785                	addi	a5,a5,1
     a3e:	07c2                	slli	a5,a5,0x10
     a40:	00c71023          	sh	a2,0(a4)
     a44:	83c1                	srli	a5,a5,0x10
     a46:	fef71f23          	sh	a5,-2(a4)
     a4a:	00b71023          	sh	a1,0(a4)
     a4e:	8082                	ret

00000a50 <LCD_Scan_Dir>:
     a50:	658d                	lui	a1,0x3
     a52:	e701d603          	lhu	a2,-400(gp) # 20000860 <lcddev>
     a56:	600407b7          	lui	a5,0x60040
     a5a:	e7018513          	addi	a0,gp,-400 # 20000860 <lcddev>
     a5e:	60058593          	addi	a1,a1,1536 # 3600 <GPIO_Init+0x48>
     a62:	00255683          	lhu	a3,2(a0)
     a66:	feb79f23          	sh	a1,-2(a5) # 6003fffe <_eusrstack+0x40037ffe>
     a6a:	06800593          	li	a1,104
     a6e:	00b79023          	sh	a1,0(a5)
     a72:	00a55583          	lhu	a1,10(a0)
     a76:	167d                	addi	a2,a2,-1
     a78:	0642                	slli	a2,a2,0x10
     a7a:	00158813          	addi	a6,a1,1
     a7e:	feb79f23          	sh	a1,-2(a5)
     a82:	0842                	slli	a6,a6,0x10
     a84:	00079023          	sh	zero,0(a5)
     a88:	01085813          	srli	a6,a6,0x10
     a8c:	ff079f23          	sh	a6,-2(a5)
     a90:	00258813          	addi	a6,a1,2
     a94:	0842                	slli	a6,a6,0x10
     a96:	00079023          	sh	zero,0(a5)
     a9a:	8241                	srli	a2,a2,0x10
     a9c:	01085813          	srli	a6,a6,0x10
     aa0:	058d                	addi	a1,a1,3
     aa2:	ff079f23          	sh	a6,-2(a5)
     aa6:	05c2                	slli	a1,a1,0x10
     aa8:	00865813          	srli	a6,a2,0x8
     aac:	01079023          	sh	a6,0(a5)
     ab0:	81c1                	srli	a1,a1,0x10
     ab2:	feb79f23          	sh	a1,-2(a5)
     ab6:	0ff67613          	andi	a2,a2,255
     aba:	00c79023          	sh	a2,0(a5)
     abe:	00c55603          	lhu	a2,12(a0)
     ac2:	16fd                	addi	a3,a3,-1
     ac4:	06c2                	slli	a3,a3,0x10
     ac6:	00160593          	addi	a1,a2,1
     aca:	fec79f23          	sh	a2,-2(a5)
     ace:	05c2                	slli	a1,a1,0x10
     ad0:	00079023          	sh	zero,0(a5)
     ad4:	81c1                	srli	a1,a1,0x10
     ad6:	feb79f23          	sh	a1,-2(a5)
     ada:	00260593          	addi	a1,a2,2
     ade:	05c2                	slli	a1,a1,0x10
     ae0:	00079023          	sh	zero,0(a5)
     ae4:	82c1                	srli	a3,a3,0x10
     ae6:	81c1                	srli	a1,a1,0x10
     ae8:	060d                	addi	a2,a2,3
     aea:	feb79f23          	sh	a1,-2(a5)
     aee:	0642                	slli	a2,a2,0x10
     af0:	0086d593          	srli	a1,a3,0x8
     af4:	00b79023          	sh	a1,0(a5)
     af8:	8241                	srli	a2,a2,0x10
     afa:	fec79f23          	sh	a2,-2(a5)
     afe:	0ff6f693          	andi	a3,a3,255
     b02:	00d79023          	sh	a3,0(a5)
     b06:	8082                	ret

00000b08 <LCD_Display_Dir>:
     b08:	e7018793          	addi	a5,gp,-400 # 20000860 <lcddev>
     b0c:	e90d                	bnez	a0,b3e <LCD_Display_Dir+0x36>
     b0e:	1e000693          	li	a3,480
     b12:	e6d19823          	sh	a3,-400(gp) # 20000860 <lcddev>
     b16:	00078323          	sb	zero,6(a5)
     b1a:	32000713          	li	a4,800
     b1e:	00e79123          	sh	a4,2(a5)
     b22:	670d                	lui	a4,0x3
     b24:	c0070693          	addi	a3,a4,-1024 # 2c00 <Pages_add+0x6e>
     b28:	00d79423          	sh	a3,8(a5)
     b2c:	a0070693          	addi	a3,a4,-1536
     b30:	b0070713          	addi	a4,a4,-1280
     b34:	00d79523          	sh	a3,10(a5)
     b38:	00e79623          	sh	a4,12(a5)
     b3c:	bf11                	j	a50 <LCD_Scan_Dir>
     b3e:	4685                	li	a3,1
     b40:	00d78323          	sb	a3,6(a5)
     b44:	32000693          	li	a3,800
     b48:	e6d19823          	sh	a3,-400(gp) # 20000860 <lcddev>
     b4c:	1e000713          	li	a4,480
     b50:	b7f9                	j	b1e <LCD_Display_Dir+0x16>

00000b52 <LCD_Clear>:
     b52:	1141                	addi	sp,sp,-16
     b54:	e701d703          	lhu	a4,-400(gp) # 20000860 <lcddev>
     b58:	e7018793          	addi	a5,gp,-400 # 20000860 <lcddev>
     b5c:	c422                	sw	s0,8(sp)
     b5e:	0027d403          	lhu	s0,2(a5)
     b62:	c226                	sw	s1,4(sp)
     b64:	4581                	li	a1,0
     b66:	84aa                	mv	s1,a0
     b68:	4501                	li	a0,0
     b6a:	02e40433          	mul	s0,s0,a4
     b6e:	c606                	sw	ra,12(sp)
     b70:	3d49                	jal	a02 <LCD_SetCursor>
     b72:	3549                	jal	9f4 <LCD_WriteRAM_Prepare>
     b74:	4781                	li	a5,0
     b76:	60040737          	lui	a4,0x60040
     b7a:	00879763          	bne	a5,s0,b88 <LCD_Clear+0x36>
     b7e:	40b2                	lw	ra,12(sp)
     b80:	4422                	lw	s0,8(sp)
     b82:	4492                	lw	s1,4(sp)
     b84:	0141                	addi	sp,sp,16
     b86:	8082                	ret
     b88:	00971023          	sh	s1,0(a4) # 60040000 <_eusrstack+0x40038000>
     b8c:	0785                	addi	a5,a5,1
     b8e:	b7f5                	j	b7a <LCD_Clear+0x28>

00000b90 <LCD_Init>:
     b90:	7131                	addi	sp,sp,-192
     b92:	4585                	li	a1,1
     b94:	10000513          	li	a0,256
     b98:	df06                	sw	ra,188(sp)
     b9a:	dd22                	sw	s0,184(sp)
     b9c:	db26                	sw	s1,180(sp)
     b9e:	d94a                	sw	s2,176(sp)
     ba0:	d74e                	sw	s3,172(sp)
     ba2:	d552                	sw	s4,168(sp)
     ba4:	d356                	sw	s5,164(sp)
     ba6:	d15a                	sw	s6,160(sp)
     ba8:	cf5e                	sw	s7,156(sp)
     baa:	cd62                	sw	s8,152(sp)
     bac:	cb66                	sw	s9,148(sp)
     bae:	c96a                	sw	s10,144(sp)
     bb0:	c76e                	sw	s11,140(sp)
     bb2:	4dd020ef          	jal	ra,388e <RCC_AHBPeriphClockCmd>
     bb6:	4585                	li	a1,1
     bb8:	06800513          	li	a0,104
     bbc:	4f1020ef          	jal	ra,38ac <RCC_APB2PeriphClockCmd>
     bc0:	400114b7          	lui	s1,0x40011
     bc4:	440d                	li	s0,3
     bc6:	6791                	lui	a5,0x4
     bc8:	4a41                	li	s4,16
     bca:	c0048513          	addi	a0,s1,-1024 # 40010c00 <_eusrstack+0x20008c00>
     bce:	858a                	mv	a1,sp
     bd0:	00f11023          	sh	a5,0(sp)
     bd4:	c222                	sw	s0,4(sp)
     bd6:	c452                	sw	s4,8(sp)
     bd8:	79f1                	lui	s3,0xffffc
     bda:	1df020ef          	jal	ra,35b8 <GPIO_Init>
     bde:	4ae1                	li	s5,24
     be0:	73398793          	addi	a5,s3,1843 # ffffc733 <_eusrstack+0xdfff4733>
     be4:	40048513          	addi	a0,s1,1024
     be8:	858a                	mv	a1,sp
     bea:	00f11023          	sh	a5,0(sp)
     bee:	c456                	sw	s5,8(sp)
     bf0:	c222                	sw	s0,4(sp)
     bf2:	1c7020ef          	jal	ra,35b8 <GPIO_Init>
     bf6:	40012537          	lui	a0,0x40012
     bfa:	f8000793          	li	a5,-128
     bfe:	858a                	mv	a1,sp
     c00:	80050513          	addi	a0,a0,-2048 # 40011800 <_eusrstack+0x20009800>
     c04:	00f11023          	sh	a5,0(sp)
     c08:	c456                	sw	s5,8(sp)
     c0a:	c222                	sw	s0,4(sp)
     c0c:	1ad020ef          	jal	ra,35b8 <GPIO_Init>
     c10:	40048513          	addi	a0,s1,1024
     c14:	6905                	lui	s2,0x1
     c16:	858a                	mv	a1,sp
     c18:	01211023          	sh	s2,0(sp)
     c1c:	c456                	sw	s5,8(sp)
     c1e:	c222                	sw	s0,4(sp)
     c20:	199020ef          	jal	ra,35b8 <GPIO_Init>
     c24:	40048513          	addi	a0,s1,1024
     c28:	80090913          	addi	s2,s2,-2048 # 800 <__stack_size>
     c2c:	858a                	mv	a1,sp
     c2e:	01211023          	sh	s2,0(sp)
     c32:	c222                	sw	s0,4(sp)
     c34:	6905                	lui	s2,0x1
     c36:	c452                	sw	s4,8(sp)
     c38:	181020ef          	jal	ra,35b8 <GPIO_Init>
     c3c:	80090593          	addi	a1,s2,-2048 # 800 <__stack_size>
     c40:	40048513          	addi	a0,s1,1024
     c44:	245020ef          	jal	ra,3688 <GPIO_ResetBits>
     c48:	47bd                	li	a5,15
     c4a:	ca3e                	sw	a5,20(sp)
     c4c:	6791                	lui	a5,0x4
     c4e:	d8be                	sw	a5,112(sp)
     c50:	007c                	addi	a5,sp,12
     c52:	dcbe                	sw	a5,120(sp)
     c54:	00c8                	addi	a0,sp,68
     c56:	103c                	addi	a5,sp,40
     c58:	4b05                	li	s6,1
     c5a:	debe                	sw	a5,124(sp)
     c5c:	d822                	sw	s0,48(sp)
     c5e:	d4ca                	sw	s2,104(sp)
     c60:	c65a                	sw	s6,12(sp)
     c62:	c802                	sw	zero,16(sp)
     c64:	cc02                	sw	zero,24(sp)
     c66:	d202                	sw	zero,36(sp)
     c68:	d402                	sw	zero,40(sp)
     c6a:	d602                	sw	zero,44(sp)
     c6c:	da02                	sw	zero,52(sp)
     c6e:	dc02                	sw	zero,56(sp)
     c70:	de02                	sw	zero,60(sp)
     c72:	c082                	sw	zero,64(sp)
     c74:	c282                	sw	zero,68(sp)
     c76:	c482                	sw	zero,72(sp)
     c78:	c682                	sw	zero,76(sp)
     c7a:	c8d2                	sw	s4,80(sp)
     c7c:	ca82                	sw	zero,84(sp)
     c7e:	ce82                	sw	zero,92(sp)
     c80:	cc82                	sw	zero,88(sp)
     c82:	d082                	sw	zero,96(sp)
     c84:	d282                	sw	zero,100(sp)
     c86:	d682                	sw	zero,108(sp)
     c88:	da82                	sw	zero,116(sp)
     c8a:	057020ef          	jal	ra,34e0 <FSMC_NORSRAMInit>
     c8e:	4585                	li	a1,1
     c90:	4501                	li	a0,0
     c92:	109020ef          	jal	ra,359a <FSMC_NORSRAMCmd>
     c96:	03200513          	li	a0,50
     c9a:	11c030ef          	jal	ra,3db6 <Delay_Ms>
     c9e:	4501                	li	a0,0
     ca0:	e7018913          	addi	s2,gp,-400 # 20000860 <lcddev>
     ca4:	3b25                	jal	9dc <LCD_ReadReg>
     ca6:	00a91223          	sh	a0,4(s2)
     caa:	60040437          	lui	s0,0x60040
     cae:	0d300a93          	li	s5,211
     cb2:	ff541f23          	sh	s5,-2(s0) # 6003fffe <_eusrstack+0x40037ffe>
     cb6:	3329                	jal	9c0 <LCD_RD_DATA>
     cb8:	00a91223          	sh	a0,4(s2)
     cbc:	3311                	jal	9c0 <LCD_RD_DATA>
     cbe:	00a91223          	sh	a0,4(s2)
     cc2:	39fd                	jal	9c0 <LCD_RD_DATA>
     cc4:	0522                	slli	a0,a0,0x8
     cc6:	00a91223          	sh	a0,4(s2)
     cca:	39dd                	jal	9c0 <LCD_RD_DATA>
     ccc:	00495783          	lhu	a5,4(s2)
     cd0:	e7018493          	addi	s1,gp,-400 # 20000860 <lcddev>
     cd4:	8d5d                	or	a0,a0,a5
     cd6:	00a91223          	sh	a0,4(s2)
     cda:	ff541f23          	sh	s5,-2(s0)
     cde:	31cd                	jal	9c0 <LCD_RD_DATA>
     ce0:	00a91223          	sh	a0,4(s2)
     ce4:	39f1                	jal	9c0 <LCD_RD_DATA>
     ce6:	00a91223          	sh	a0,4(s2)
     cea:	39d9                	jal	9c0 <LCD_RD_DATA>
     cec:	0522                	slli	a0,a0,0x8
     cee:	00a91223          	sh	a0,4(s2)
     cf2:	31f9                	jal	9c0 <LCD_RD_DATA>
     cf4:	00495783          	lhu	a5,4(s2)
     cf8:	8d5d                	or	a0,a0,a5
     cfa:	0542                	slli	a0,a0,0x10
     cfc:	8141                	srli	a0,a0,0x10
     cfe:	67a5                	lui	a5,0x9
     d00:	00a91223          	sh	a0,4(s2)
     d04:	34178793          	addi	a5,a5,833 # 9341 <__floatsidf+0x67>
     d08:	00f51463          	bne	a0,a5,d10 <LCD_Init+0x180>
     d0c:	4160106f          	j	2122 <LCD_Init+0x1592>
     d10:	4791                	li	a5,4
     d12:	fef41f23          	sh	a5,-2(s0)
     d16:	316d                	jal	9c0 <LCD_RD_DATA>
     d18:	00a49223          	sh	a0,4(s1)
     d1c:	3155                	jal	9c0 <LCD_RD_DATA>
     d1e:	00a49223          	sh	a0,4(s1)
     d22:	3979                	jal	9c0 <LCD_RD_DATA>
     d24:	0522                	slli	a0,a0,0x8
     d26:	00a49223          	sh	a0,4(s1)
     d2a:	3959                	jal	9c0 <LCD_RD_DATA>
     d2c:	0044d783          	lhu	a5,4(s1)
     d30:	8d5d                	or	a0,a0,a5
     d32:	0542                	slli	a0,a0,0x10
     d34:	8141                	srli	a0,a0,0x10
     d36:	67a1                	lui	a5,0x8
     d38:	00a49223          	sh	a0,4(s1)
     d3c:	55278793          	addi	a5,a5,1362 # 8552 <__ledf2+0x22>
     d40:	00f51963          	bne	a0,a5,d52 <LCD_Init+0x1c2>
     d44:	679d                	lui	a5,0x7
     d46:	78978793          	addi	a5,a5,1929 # 7789 <__adddf3+0x55>
     d4a:	00f49223          	sh	a5,4(s1)
     d4e:	3d40106f          	j	2122 <LCD_Init+0x1592>
     d52:	6b9d                	lui	s7,0x7
     d54:	789b8793          	addi	a5,s7,1929 # 7789 <__adddf3+0x55>
     d58:	00f51463          	bne	a0,a5,d60 <LCD_Init+0x1d0>
     d5c:	3c60106f          	j	2122 <LCD_Init+0x1592>
     d60:	0d400793          	li	a5,212
     d64:	fef41f23          	sh	a5,-2(s0)
     d68:	39a1                	jal	9c0 <LCD_RD_DATA>
     d6a:	00a49223          	sh	a0,4(s1)
     d6e:	3989                	jal	9c0 <LCD_RD_DATA>
     d70:	00a49223          	sh	a0,4(s1)
     d74:	31b1                	jal	9c0 <LCD_RD_DATA>
     d76:	0522                	slli	a0,a0,0x8
     d78:	00a49223          	sh	a0,4(s1)
     d7c:	3191                	jal	9c0 <LCD_RD_DATA>
     d7e:	0044d783          	lhu	a5,4(s1)
     d82:	6915                	lui	s2,0x5
     d84:	8d5d                	or	a0,a0,a5
     d86:	0542                	slli	a0,a0,0x10
     d88:	8141                	srli	a0,a0,0x10
     d8a:	00a49223          	sh	a0,4(s1)
     d8e:	31090793          	addi	a5,s2,784 # 5310 <__swbuf_r+0x98>
     d92:	00f51463          	bne	a0,a5,d9a <LCD_Init+0x20a>
     d96:	38c0106f          	j	2122 <LCD_Init+0x1592>
     d9a:	ff541f23          	sh	s5,-2(s0)
     d9e:	310d                	jal	9c0 <LCD_RD_DATA>
     da0:	00a49223          	sh	a0,4(s1)
     da4:	3931                	jal	9c0 <LCD_RD_DATA>
     da6:	00a49223          	sh	a0,4(s1)
     daa:	3919                	jal	9c0 <LCD_RD_DATA>
     dac:	0522                	slli	a0,a0,0x8
     dae:	00a49223          	sh	a0,4(s1)
     db2:	3139                	jal	9c0 <LCD_RD_DATA>
     db4:	0044d783          	lhu	a5,4(s1)
     db8:	796b8b93          	addi	s7,s7,1942
     dbc:	8d5d                	or	a0,a0,a5
     dbe:	0542                	slli	a0,a0,0x10
     dc0:	8141                	srli	a0,a0,0x10
     dc2:	00a49223          	sh	a0,4(s1)
     dc6:	01751463          	bne	a0,s7,dce <LCD_Init+0x23e>
     dca:	3580106f          	j	2122 <LCD_Init+0x1592>
     dce:	77fd                	lui	a5,0xfffff
     dd0:	fef41f23          	sh	a5,-2(s0)
     dd4:	ffe40a13          	addi	s4,s0,-2
     dd8:	05500713          	li	a4,85
     ddc:	00ea1123          	sh	a4,2(s4)
     de0:	00178713          	addi	a4,a5,1 # fffff001 <_eusrstack+0xdfff7001>
     de4:	fee41f23          	sh	a4,-2(s0)
     de8:	0aa00713          	li	a4,170
     dec:	00ea1123          	sh	a4,2(s4)
     df0:	00278713          	addi	a4,a5,2
     df4:	fee41f23          	sh	a4,-2(s0)
     df8:	05200713          	li	a4,82
     dfc:	00ea1123          	sh	a4,2(s4)
     e00:	00378713          	addi	a4,a5,3
     e04:	fee41f23          	sh	a4,-2(s0)
     e08:	4721                	li	a4,8
     e0a:	00ea1123          	sh	a4,2(s4)
     e0e:	0791                	addi	a5,a5,4
     e10:	fef41f23          	sh	a5,-2(s0)
     e14:	016a1123          	sh	s6,2(s4)
     e18:	50098793          	addi	a5,s3,1280
     e1c:	fef41f23          	sh	a5,-2(s0)
     e20:	3645                	jal	9c0 <LCD_RD_DATA>
     e22:	0522                	slli	a0,a0,0x8
     e24:	00a49223          	sh	a0,4(s1)
     e28:	50198993          	addi	s3,s3,1281
     e2c:	ff341f23          	sh	s3,-2(s0)
     e30:	3e41                	jal	9c0 <LCD_RD_DATA>
     e32:	0044d783          	lhu	a5,4(s1)
     e36:	51090993          	addi	s3,s2,1296
     e3a:	8d5d                	or	a0,a0,a5
     e3c:	00a49223          	sh	a0,4(s1)
     e40:	4515                	li	a0,5
     e42:	775020ef          	jal	ra,3db6 <Delay_Ms>
     e46:	0044d783          	lhu	a5,4(s1)
     e4a:	01378463          	beq	a5,s3,e52 <LCD_Init+0x2c2>
     e4e:	3540106f          	j	21a2 <LCD_Init+0x1612>
     e52:	60040437          	lui	s0,0x60040
     e56:	787d                	lui	a6,0xfffff
     e58:	ffe40793          	addi	a5,s0,-2 # 6003fffe <_eusrstack+0x40037ffe>
     e5c:	ff041f23          	sh	a6,-2(s0)
     e60:	05500e93          	li	t4,85
     e64:	01d79123          	sh	t4,2(a5)
     e68:	00180713          	addi	a4,a6,1 # fffff001 <_eusrstack+0xdfff7001>
     e6c:	fee41f23          	sh	a4,-2(s0)
     e70:	0aa00713          	li	a4,170
     e74:	00e79123          	sh	a4,2(a5)
     e78:	00280693          	addi	a3,a6,2
     e7c:	fed41f23          	sh	a3,-2(s0)
     e80:	05200693          	li	a3,82
     e84:	00d79123          	sh	a3,2(a5)
     e88:	00380613          	addi	a2,a6,3
     e8c:	fec41f23          	sh	a2,-2(s0)
     e90:	4e21                	li	t3,8
     e92:	01c79123          	sh	t3,2(a5)
     e96:	00480613          	addi	a2,a6,4
     e9a:	fec41f23          	sh	a2,-2(s0)
     e9e:	4605                	li	a2,1
     ea0:	00c79123          	sh	a2,2(a5)
     ea4:	776d                	lui	a4,0xffffb
     ea6:	fee41f23          	sh	a4,-2(s0)
     eaa:	46b5                	li	a3,13
     eac:	00d79123          	sh	a3,2(a5)
     eb0:	00170593          	addi	a1,a4,1 # ffffb001 <_eusrstack+0xdfff3001>
     eb4:	feb41f23          	sh	a1,-2(s0)
     eb8:	00d79123          	sh	a3,2(a5)
     ebc:	00270593          	addi	a1,a4,2
     ec0:	feb41f23          	sh	a1,-2(s0)
     ec4:	756d                	lui	a0,0xffffb
     ec6:	00d79123          	sh	a3,2(a5)
     eca:	60050593          	addi	a1,a0,1536 # ffffb600 <_eusrstack+0xdfff3600>
     ece:	03400813          	li	a6,52
     ed2:	feb41f23          	sh	a1,-2(s0)
     ed6:	01079123          	sh	a6,2(a5)
     eda:	60170593          	addi	a1,a4,1537
     ede:	feb41f23          	sh	a1,-2(s0)
     ee2:	01079123          	sh	a6,2(a5)
     ee6:	60270593          	addi	a1,a4,1538
     eea:	feb41f23          	sh	a1,-2(s0)
     eee:	01079123          	sh	a6,2(a5)
     ef2:	10050593          	addi	a1,a0,256
     ef6:	feb41f23          	sh	a1,-2(s0)
     efa:	00d79123          	sh	a3,2(a5)
     efe:	10150593          	addi	a1,a0,257
     f02:	feb41f23          	sh	a1,-2(s0)
     f06:	00d79123          	sh	a3,2(a5)
     f0a:	10270593          	addi	a1,a4,258
     f0e:	feb41f23          	sh	a1,-2(s0)
     f12:	00d79123          	sh	a3,2(a5)
     f16:	70050593          	addi	a1,a0,1792
     f1a:	feb41f23          	sh	a1,-2(s0)
     f1e:	01079123          	sh	a6,2(a5)
     f22:	70150593          	addi	a1,a0,1793
     f26:	feb41f23          	sh	a1,-2(s0)
     f2a:	01079123          	sh	a6,2(a5)
     f2e:	70270693          	addi	a3,a4,1794
     f32:	fed41f23          	sh	a3,-2(s0)
     f36:	01079123          	sh	a6,2(a5)
     f3a:	20070693          	addi	a3,a4,512
     f3e:	fed41f23          	sh	a3,-2(s0)
     f42:	00079123          	sh	zero,2(a5)
     f46:	20170693          	addi	a3,a4,513
     f4a:	fed41f23          	sh	a3,-2(s0)
     f4e:	00079123          	sh	zero,2(a5)
     f52:	20270693          	addi	a3,a4,514
     f56:	fed41f23          	sh	a3,-2(s0)
     f5a:	7371                	lui	t1,0xffffc
     f5c:	00079123          	sh	zero,2(a5)
     f60:	80030593          	addi	a1,t1,-2048 # ffffb800 <_eusrstack+0xdfff3800>
     f64:	feb41f23          	sh	a1,-2(s0)
     f68:	02400693          	li	a3,36
     f6c:	00d79123          	sh	a3,2(a5)
     f70:	80130593          	addi	a1,t1,-2047
     f74:	feb41f23          	sh	a1,-2(s0)
     f78:	00d79123          	sh	a3,2(a5)
     f7c:	80230593          	addi	a1,t1,-2046
     f80:	feb41f23          	sh	a1,-2(s0)
     f84:	7571                	lui	a0,0xffffc
     f86:	00d79123          	sh	a3,2(a5)
     f8a:	f0050593          	addi	a1,a0,-256 # ffffbf00 <_eusrstack+0xdfff3f00>
     f8e:	feb41f23          	sh	a1,-2(s0)
     f92:	00c79123          	sh	a2,2(a5)
     f96:	30070593          	addi	a1,a4,768
     f9a:	feb41f23          	sh	a1,-2(s0)
     f9e:	45bd                	li	a1,15
     fa0:	00b79123          	sh	a1,2(a5)
     fa4:	30170893          	addi	a7,a4,769
     fa8:	ff141f23          	sh	a7,-2(s0)
     fac:	00b79123          	sh	a1,2(a5)
     fb0:	30270893          	addi	a7,a4,770
     fb4:	ff141f23          	sh	a7,-2(s0)
     fb8:	00b79123          	sh	a1,2(a5)
     fbc:	90050593          	addi	a1,a0,-1792
     fc0:	feb41f23          	sh	a1,-2(s0)
     fc4:	01079123          	sh	a6,2(a5)
     fc8:	90150593          	addi	a1,a0,-1791
     fcc:	feb41f23          	sh	a1,-2(s0)
     fd0:	01079123          	sh	a6,2(a5)
     fd4:	90250593          	addi	a1,a0,-1790
     fd8:	feb41f23          	sh	a1,-2(s0)
     fdc:	01079123          	sh	a6,2(a5)
     fe0:	50070593          	addi	a1,a4,1280
     fe4:	feb41f23          	sh	a1,-2(s0)
     fe8:	01c79123          	sh	t3,2(a5)
     fec:	50170593          	addi	a1,a4,1281
     ff0:	feb41f23          	sh	a1,-2(s0)
     ff4:	01c79123          	sh	t3,2(a5)
     ff8:	50270713          	addi	a4,a4,1282
     ffc:	fee41f23          	sh	a4,-2(s0)
    1000:	20050713          	addi	a4,a0,512
    1004:	01c79123          	sh	t3,2(a5)
    1008:	458d                	li	a1,3
    100a:	fee41f23          	sh	a4,-2(s0)
    100e:	00b79123          	sh	a1,2(a5)
    1012:	a0050713          	addi	a4,a0,-1536
    1016:	fee41f23          	sh	a4,-2(s0)
    101a:	00d79123          	sh	a3,2(a5)
    101e:	a0150713          	addi	a4,a0,-1535
    1022:	fee41f23          	sh	a4,-2(s0)
    1026:	00d79123          	sh	a3,2(a5)
    102a:	a0250713          	addi	a4,a0,-1534
    102e:	fee41f23          	sh	a4,-2(s0)
    1032:	00d79123          	sh	a3,2(a5)
    1036:	c0030f93          	addi	t6,t1,-1024
    103a:	fff41f23          	sh	t6,-2(s0)
    103e:	00079123          	sh	zero,2(a5)
    1042:	c0130f93          	addi	t6,t1,-1023
    1046:	fff41f23          	sh	t6,-2(s0)
    104a:	07800713          	li	a4,120
    104e:	00e79123          	sh	a4,2(a5)
    1052:	c0230f93          	addi	t6,t1,-1022
    1056:	fff41f23          	sh	t6,-2(s0)
    105a:	00079123          	sh	zero,2(a5)
    105e:	d0050693          	addi	a3,a0,-768
    1062:	fed41f23          	sh	a3,-2(s0)
    1066:	00079123          	sh	zero,2(a5)
    106a:	d0150693          	addi	a3,a0,-767
    106e:	fed41f23          	sh	a3,-2(s0)
    1072:	00e79123          	sh	a4,2(a5)
    1076:	d0250713          	addi	a4,a0,-766
    107a:	fee41f23          	sh	a4,-2(s0)
    107e:	00079123          	sh	zero,2(a5)
    1082:	e0050713          	addi	a4,a0,-512
    1086:	fee41f23          	sh	a4,-2(s0)
    108a:	00079123          	sh	zero,2(a5)
    108e:	e0150713          	addi	a4,a0,-511
    1092:	fee41f23          	sh	a4,-2(s0)
    1096:	06400713          	li	a4,100
    109a:	00e79123          	sh	a4,2(a5)
    109e:	7775                	lui	a4,0xffffd
    10a0:	10070693          	addi	a3,a4,256 # ffffd100 <_eusrstack+0xdfff5100>
    10a4:	fed41f23          	sh	a3,-2(s0)
    10a8:	00079123          	sh	zero,2(a5)
    10ac:	10170693          	addi	a3,a4,257
    10b0:	03300893          	li	a7,51
    10b4:	fed41f23          	sh	a3,-2(s0)
    10b8:	01179123          	sh	a7,2(a5)
    10bc:	10270693          	addi	a3,a4,258
    10c0:	fed41f23          	sh	a3,-2(s0)
    10c4:	00079123          	sh	zero,2(a5)
    10c8:	10370693          	addi	a3,a4,259
    10cc:	fed41f23          	sh	a3,-2(s0)
    10d0:	01079123          	sh	a6,2(a5)
    10d4:	10470693          	addi	a3,a4,260
    10d8:	fed41f23          	sh	a3,-2(s0)
    10dc:	00079123          	sh	zero,2(a5)
    10e0:	10570693          	addi	a3,a4,261
    10e4:	fed41f23          	sh	a3,-2(s0)
    10e8:	03a00d13          	li	s10,58
    10ec:	01a79123          	sh	s10,2(a5)
    10f0:	10670693          	addi	a3,a4,262
    10f4:	fed41f23          	sh	a3,-2(s0)
    10f8:	00079123          	sh	zero,2(a5)
    10fc:	10770693          	addi	a3,a4,263
    1100:	fed41f23          	sh	a3,-2(s0)
    1104:	04a00c93          	li	s9,74
    1108:	01979123          	sh	s9,2(a5)
    110c:	10870693          	addi	a3,a4,264
    1110:	fed41f23          	sh	a3,-2(s0)
    1114:	00079123          	sh	zero,2(a5)
    1118:	10970693          	addi	a3,a4,265
    111c:	fed41f23          	sh	a3,-2(s0)
    1120:	05c00c13          	li	s8,92
    1124:	01879123          	sh	s8,2(a5)
    1128:	10a70693          	addi	a3,a4,266
    112c:	fed41f23          	sh	a3,-2(s0)
    1130:	00079123          	sh	zero,2(a5)
    1134:	10b70693          	addi	a3,a4,267
    1138:	fed41f23          	sh	a3,-2(s0)
    113c:	08100b93          	li	s7,129
    1140:	01779123          	sh	s7,2(a5)
    1144:	10c70693          	addi	a3,a4,268
    1148:	fed41f23          	sh	a3,-2(s0)
    114c:	00079123          	sh	zero,2(a5)
    1150:	10d70693          	addi	a3,a4,269
    1154:	fed41f23          	sh	a3,-2(s0)
    1158:	0a600b13          	li	s6,166
    115c:	01679123          	sh	s6,2(a5)
    1160:	10e70693          	addi	a3,a4,270
    1164:	fed41f23          	sh	a3,-2(s0)
    1168:	00079123          	sh	zero,2(a5)
    116c:	10f70693          	addi	a3,a4,271
    1170:	fed41f23          	sh	a3,-2(s0)
    1174:	0e500a93          	li	s5,229
    1178:	01579123          	sh	s5,2(a5)
    117c:	11070693          	addi	a3,a4,272
    1180:	fed41f23          	sh	a3,-2(s0)
    1184:	00c79123          	sh	a2,2(a5)
    1188:	11170693          	addi	a3,a4,273
    118c:	fed41f23          	sh	a3,-2(s0)
    1190:	4a4d                	li	s4,19
    1192:	01479123          	sh	s4,2(a5)
    1196:	11270693          	addi	a3,a4,274
    119a:	fed41f23          	sh	a3,-2(s0)
    119e:	00c79123          	sh	a2,2(a5)
    11a2:	11370693          	addi	a3,a4,275
    11a6:	05400993          	li	s3,84
    11aa:	fed41f23          	sh	a3,-2(s0)
    11ae:	01379123          	sh	s3,2(a5)
    11b2:	11470693          	addi	a3,a4,276
    11b6:	fed41f23          	sh	a3,-2(s0)
    11ba:	11570693          	addi	a3,a4,277
    11be:	00c79123          	sh	a2,2(a5)
    11c2:	08200913          	li	s2,130
    11c6:	fed41f23          	sh	a3,-2(s0)
    11ca:	01279123          	sh	s2,2(a5)
    11ce:	11670693          	addi	a3,a4,278
    11d2:	fed41f23          	sh	a3,-2(s0)
    11d6:	00c79123          	sh	a2,2(a5)
    11da:	11770693          	addi	a3,a4,279
    11de:	fed41f23          	sh	a3,-2(s0)
    11e2:	0ca00093          	li	ra,202
    11e6:	00179123          	sh	ra,2(a5)
    11ea:	11870693          	addi	a3,a4,280
    11ee:	fed41f23          	sh	a3,-2(s0)
    11f2:	4689                	li	a3,2
    11f4:	00d79123          	sh	a3,2(a5)
    11f8:	11970313          	addi	t1,a4,281
    11fc:	fe641f23          	sh	t1,-2(s0)
    1200:	00079123          	sh	zero,2(a5)
    1204:	11a70313          	addi	t1,a4,282
    1208:	fe641f23          	sh	t1,-2(s0)
    120c:	00d79123          	sh	a3,2(a5)
    1210:	11b70313          	addi	t1,a4,283
    1214:	fe641f23          	sh	t1,-2(s0)
    1218:	00c79123          	sh	a2,2(a5)
    121c:	11c70313          	addi	t1,a4,284
    1220:	fe641f23          	sh	t1,-2(s0)
    1224:	00d79123          	sh	a3,2(a5)
    1228:	11d70313          	addi	t1,a4,285
    122c:	fe641f23          	sh	t1,-2(s0)
    1230:	01079123          	sh	a6,2(a5)
    1234:	11e70313          	addi	t1,a4,286
    1238:	fe641f23          	sh	t1,-2(s0)
    123c:	00d79123          	sh	a3,2(a5)
    1240:	11f70313          	addi	t1,a4,287
    1244:	fe641f23          	sh	t1,-2(s0)
    1248:	06700393          	li	t2,103
    124c:	00779123          	sh	t2,2(a5)
    1250:	12070313          	addi	t1,a4,288
    1254:	fe641f23          	sh	t1,-2(s0)
    1258:	00d79123          	sh	a3,2(a5)
    125c:	12170313          	addi	t1,a4,289
    1260:	fe641f23          	sh	t1,-2(s0)
    1264:	08400293          	li	t0,132
    1268:	00579123          	sh	t0,2(a5)
    126c:	12270313          	addi	t1,a4,290
    1270:	fe641f23          	sh	t1,-2(s0)
    1274:	00d79123          	sh	a3,2(a5)
    1278:	12370313          	addi	t1,a4,291
    127c:	0a400f93          	li	t6,164
    1280:	fe641f23          	sh	t1,-2(s0)
    1284:	01f79123          	sh	t6,2(a5)
    1288:	12470313          	addi	t1,a4,292
    128c:	fe641f23          	sh	t1,-2(s0)
    1290:	0b700f13          	li	t5,183
    1294:	00d79123          	sh	a3,2(a5)
    1298:	12570313          	addi	t1,a4,293
    129c:	fe641f23          	sh	t1,-2(s0)
    12a0:	01e79123          	sh	t5,2(a5)
    12a4:	12670313          	addi	t1,a4,294
    12a8:	fe641f23          	sh	t1,-2(s0)
    12ac:	00d79123          	sh	a3,2(a5)
    12b0:	12770313          	addi	t1,a4,295
    12b4:	fe641f23          	sh	t1,-2(s0)
    12b8:	0cf00e93          	li	t4,207
    12bc:	01d79123          	sh	t4,2(a5)
    12c0:	12870313          	addi	t1,a4,296
    12c4:	fe641f23          	sh	t1,-2(s0)
    12c8:	00d79123          	sh	a3,2(a5)
    12cc:	12970313          	addi	t1,a4,297
    12d0:	fe641f23          	sh	t1,-2(s0)
    12d4:	0de00e13          	li	t3,222
    12d8:	01c79123          	sh	t3,2(a5)
    12dc:	12a70313          	addi	t1,a4,298
    12e0:	fe641f23          	sh	t1,-2(s0)
    12e4:	00d79123          	sh	a3,2(a5)
    12e8:	12b70313          	addi	t1,a4,299
    12ec:	fe641f23          	sh	t1,-2(s0)
    12f0:	0f200313          	li	t1,242
    12f4:	00679123          	sh	t1,2(a5)
    12f8:	12c70d93          	addi	s11,a4,300
    12fc:	ffb41f23          	sh	s11,-2(s0)
    1300:	00d79123          	sh	a3,2(a5)
    1304:	12d70d93          	addi	s11,a4,301
    1308:	ffb41f23          	sh	s11,-2(s0)
    130c:	0fe00d93          	li	s11,254
    1310:	01b79123          	sh	s11,2(a5)
    1314:	12e70d93          	addi	s11,a4,302
    1318:	ffb41f23          	sh	s11,-2(s0)
    131c:	00b79123          	sh	a1,2(a5)
    1320:	12f70d93          	addi	s11,a4,303
    1324:	ffb41f23          	sh	s11,-2(s0)
    1328:	4dc1                	li	s11,16
    132a:	01b79123          	sh	s11,2(a5)
    132e:	13070d93          	addi	s11,a4,304
    1332:	ffb41f23          	sh	s11,-2(s0)
    1336:	00b79123          	sh	a1,2(a5)
    133a:	13170d93          	addi	s11,a4,305
    133e:	ffb41f23          	sh	s11,-2(s0)
    1342:	01179123          	sh	a7,2(a5)
    1346:	13270d93          	addi	s11,a4,306
    134a:	ffb41f23          	sh	s11,-2(s0)
    134e:	00b79123          	sh	a1,2(a5)
    1352:	13370d93          	addi	s11,a4,307
    1356:	ffb41f23          	sh	s11,-2(s0)
    135a:	06d00d93          	li	s11,109
    135e:	01b79123          	sh	s11,2(a5)
    1362:	20070d93          	addi	s11,a4,512
    1366:	ffb41f23          	sh	s11,-2(s0)
    136a:	00079123          	sh	zero,2(a5)
    136e:	20170d93          	addi	s11,a4,513
    1372:	ffb41f23          	sh	s11,-2(s0)
    1376:	20270d93          	addi	s11,a4,514
    137a:	01179123          	sh	a7,2(a5)
    137e:	ffb41f23          	sh	s11,-2(s0)
    1382:	00079123          	sh	zero,2(a5)
    1386:	20370d93          	addi	s11,a4,515
    138a:	ffb41f23          	sh	s11,-2(s0)
    138e:	01079123          	sh	a6,2(a5)
    1392:	20470d93          	addi	s11,a4,516
    1396:	ffb41f23          	sh	s11,-2(s0)
    139a:	00079123          	sh	zero,2(a5)
    139e:	20570d93          	addi	s11,a4,517
    13a2:	ffb41f23          	sh	s11,-2(s0)
    13a6:	01a79123          	sh	s10,2(a5)
    13aa:	20670d93          	addi	s11,a4,518
    13ae:	ffb41f23          	sh	s11,-2(s0)
    13b2:	00079123          	sh	zero,2(a5)
    13b6:	20770d93          	addi	s11,a4,519
    13ba:	ffb41f23          	sh	s11,-2(s0)
    13be:	01979123          	sh	s9,2(a5)
    13c2:	20870d93          	addi	s11,a4,520
    13c6:	ffb41f23          	sh	s11,-2(s0)
    13ca:	00079123          	sh	zero,2(a5)
    13ce:	20970d93          	addi	s11,a4,521
    13d2:	ffb41f23          	sh	s11,-2(s0)
    13d6:	01879123          	sh	s8,2(a5)
    13da:	20a70d93          	addi	s11,a4,522
    13de:	ffb41f23          	sh	s11,-2(s0)
    13e2:	00079123          	sh	zero,2(a5)
    13e6:	20b70d93          	addi	s11,a4,523
    13ea:	ffb41f23          	sh	s11,-2(s0)
    13ee:	01779123          	sh	s7,2(a5)
    13f2:	20c70d93          	addi	s11,a4,524
    13f6:	ffb41f23          	sh	s11,-2(s0)
    13fa:	00079123          	sh	zero,2(a5)
    13fe:	20d70d93          	addi	s11,a4,525
    1402:	ffb41f23          	sh	s11,-2(s0)
    1406:	01679123          	sh	s6,2(a5)
    140a:	20e70d93          	addi	s11,a4,526
    140e:	ffb41f23          	sh	s11,-2(s0)
    1412:	00079123          	sh	zero,2(a5)
    1416:	20f70d93          	addi	s11,a4,527
    141a:	ffb41f23          	sh	s11,-2(s0)
    141e:	01579123          	sh	s5,2(a5)
    1422:	21070d93          	addi	s11,a4,528
    1426:	ffb41f23          	sh	s11,-2(s0)
    142a:	00c79123          	sh	a2,2(a5)
    142e:	21170d93          	addi	s11,a4,529
    1432:	ffb41f23          	sh	s11,-2(s0)
    1436:	01479123          	sh	s4,2(a5)
    143a:	21270d93          	addi	s11,a4,530
    143e:	ffb41f23          	sh	s11,-2(s0)
    1442:	00c79123          	sh	a2,2(a5)
    1446:	21370d93          	addi	s11,a4,531
    144a:	ffb41f23          	sh	s11,-2(s0)
    144e:	01379123          	sh	s3,2(a5)
    1452:	21470d93          	addi	s11,a4,532
    1456:	ffb41f23          	sh	s11,-2(s0)
    145a:	00c79123          	sh	a2,2(a5)
    145e:	21570d93          	addi	s11,a4,533
    1462:	ffb41f23          	sh	s11,-2(s0)
    1466:	01279123          	sh	s2,2(a5)
    146a:	21670d93          	addi	s11,a4,534
    146e:	ffb41f23          	sh	s11,-2(s0)
    1472:	00c79123          	sh	a2,2(a5)
    1476:	21770d93          	addi	s11,a4,535
    147a:	ffb41f23          	sh	s11,-2(s0)
    147e:	00179123          	sh	ra,2(a5)
    1482:	21870d93          	addi	s11,a4,536
    1486:	ffb41f23          	sh	s11,-2(s0)
    148a:	00d79123          	sh	a3,2(a5)
    148e:	21970d93          	addi	s11,a4,537
    1492:	ffb41f23          	sh	s11,-2(s0)
    1496:	00079123          	sh	zero,2(a5)
    149a:	21a70d93          	addi	s11,a4,538
    149e:	ffb41f23          	sh	s11,-2(s0)
    14a2:	00d79123          	sh	a3,2(a5)
    14a6:	21b70d93          	addi	s11,a4,539
    14aa:	ffb41f23          	sh	s11,-2(s0)
    14ae:	00c79123          	sh	a2,2(a5)
    14b2:	21c70d93          	addi	s11,a4,540
    14b6:	ffb41f23          	sh	s11,-2(s0)
    14ba:	00d79123          	sh	a3,2(a5)
    14be:	21d70d93          	addi	s11,a4,541
    14c2:	ffb41f23          	sh	s11,-2(s0)
    14c6:	01079123          	sh	a6,2(a5)
    14ca:	21e70d93          	addi	s11,a4,542
    14ce:	ffb41f23          	sh	s11,-2(s0)
    14d2:	00d79123          	sh	a3,2(a5)
    14d6:	21f70d93          	addi	s11,a4,543
    14da:	ffb41f23          	sh	s11,-2(s0)
    14de:	00779123          	sh	t2,2(a5)
    14e2:	22070d93          	addi	s11,a4,544
    14e6:	ffb41f23          	sh	s11,-2(s0)
    14ea:	00d79123          	sh	a3,2(a5)
    14ee:	22170d93          	addi	s11,a4,545
    14f2:	ffb41f23          	sh	s11,-2(s0)
    14f6:	00579123          	sh	t0,2(a5)
    14fa:	22270d93          	addi	s11,a4,546
    14fe:	ffb41f23          	sh	s11,-2(s0)
    1502:	22370d93          	addi	s11,a4,547
    1506:	00d79123          	sh	a3,2(a5)
    150a:	ffb41f23          	sh	s11,-2(s0)
    150e:	01f79123          	sh	t6,2(a5)
    1512:	22470d93          	addi	s11,a4,548
    1516:	ffb41f23          	sh	s11,-2(s0)
    151a:	00d79123          	sh	a3,2(a5)
    151e:	22570d93          	addi	s11,a4,549
    1522:	ffb41f23          	sh	s11,-2(s0)
    1526:	01e79123          	sh	t5,2(a5)
    152a:	22670d93          	addi	s11,a4,550
    152e:	ffb41f23          	sh	s11,-2(s0)
    1532:	00d79123          	sh	a3,2(a5)
    1536:	22770d93          	addi	s11,a4,551
    153a:	ffb41f23          	sh	s11,-2(s0)
    153e:	01d79123          	sh	t4,2(a5)
    1542:	22870d93          	addi	s11,a4,552
    1546:	ffb41f23          	sh	s11,-2(s0)
    154a:	00d79123          	sh	a3,2(a5)
    154e:	22970d93          	addi	s11,a4,553
    1552:	ffb41f23          	sh	s11,-2(s0)
    1556:	01c79123          	sh	t3,2(a5)
    155a:	22a70d93          	addi	s11,a4,554
    155e:	ffb41f23          	sh	s11,-2(s0)
    1562:	00d79123          	sh	a3,2(a5)
    1566:	22b70d93          	addi	s11,a4,555
    156a:	ffb41f23          	sh	s11,-2(s0)
    156e:	00679123          	sh	t1,2(a5)
    1572:	22c70d93          	addi	s11,a4,556
    1576:	ffb41f23          	sh	s11,-2(s0)
    157a:	00d79123          	sh	a3,2(a5)
    157e:	22d70d93          	addi	s11,a4,557
    1582:	ffb41f23          	sh	s11,-2(s0)
    1586:	0fe00d93          	li	s11,254
    158a:	01b79123          	sh	s11,2(a5)
    158e:	22e70d93          	addi	s11,a4,558
    1592:	ffb41f23          	sh	s11,-2(s0)
    1596:	00b79123          	sh	a1,2(a5)
    159a:	22f70d93          	addi	s11,a4,559
    159e:	ffb41f23          	sh	s11,-2(s0)
    15a2:	4dc1                	li	s11,16
    15a4:	01b79123          	sh	s11,2(a5)
    15a8:	23070d93          	addi	s11,a4,560
    15ac:	ffb41f23          	sh	s11,-2(s0)
    15b0:	00b79123          	sh	a1,2(a5)
    15b4:	23170d93          	addi	s11,a4,561
    15b8:	ffb41f23          	sh	s11,-2(s0)
    15bc:	01179123          	sh	a7,2(a5)
    15c0:	23270d93          	addi	s11,a4,562
    15c4:	ffb41f23          	sh	s11,-2(s0)
    15c8:	00b79123          	sh	a1,2(a5)
    15cc:	23370d93          	addi	s11,a4,563
    15d0:	ffb41f23          	sh	s11,-2(s0)
    15d4:	06d00d93          	li	s11,109
    15d8:	01b79123          	sh	s11,2(a5)
    15dc:	30070d93          	addi	s11,a4,768
    15e0:	ffb41f23          	sh	s11,-2(s0)
    15e4:	00079123          	sh	zero,2(a5)
    15e8:	30170d93          	addi	s11,a4,769
    15ec:	ffb41f23          	sh	s11,-2(s0)
    15f0:	01179123          	sh	a7,2(a5)
    15f4:	30270d93          	addi	s11,a4,770
    15f8:	ffb41f23          	sh	s11,-2(s0)
    15fc:	00079123          	sh	zero,2(a5)
    1600:	30370d93          	addi	s11,a4,771
    1604:	ffb41f23          	sh	s11,-2(s0)
    1608:	01079123          	sh	a6,2(a5)
    160c:	30470d93          	addi	s11,a4,772
    1610:	ffb41f23          	sh	s11,-2(s0)
    1614:	00079123          	sh	zero,2(a5)
    1618:	30570d93          	addi	s11,a4,773
    161c:	ffb41f23          	sh	s11,-2(s0)
    1620:	01a79123          	sh	s10,2(a5)
    1624:	30670d93          	addi	s11,a4,774
    1628:	ffb41f23          	sh	s11,-2(s0)
    162c:	00079123          	sh	zero,2(a5)
    1630:	30770d93          	addi	s11,a4,775
    1634:	ffb41f23          	sh	s11,-2(s0)
    1638:	01979123          	sh	s9,2(a5)
    163c:	30870d93          	addi	s11,a4,776
    1640:	ffb41f23          	sh	s11,-2(s0)
    1644:	00079123          	sh	zero,2(a5)
    1648:	30970d93          	addi	s11,a4,777
    164c:	ffb41f23          	sh	s11,-2(s0)
    1650:	01879123          	sh	s8,2(a5)
    1654:	30a70d93          	addi	s11,a4,778
    1658:	ffb41f23          	sh	s11,-2(s0)
    165c:	00079123          	sh	zero,2(a5)
    1660:	30b70d93          	addi	s11,a4,779
    1664:	ffb41f23          	sh	s11,-2(s0)
    1668:	01779123          	sh	s7,2(a5)
    166c:	30c70d93          	addi	s11,a4,780
    1670:	ffb41f23          	sh	s11,-2(s0)
    1674:	00079123          	sh	zero,2(a5)
    1678:	30d70d93          	addi	s11,a4,781
    167c:	ffb41f23          	sh	s11,-2(s0)
    1680:	01679123          	sh	s6,2(a5)
    1684:	30e70d93          	addi	s11,a4,782
    1688:	ffb41f23          	sh	s11,-2(s0)
    168c:	00079123          	sh	zero,2(a5)
    1690:	30f70d93          	addi	s11,a4,783
    1694:	ffb41f23          	sh	s11,-2(s0)
    1698:	31070d93          	addi	s11,a4,784
    169c:	01579123          	sh	s5,2(a5)
    16a0:	ffb41f23          	sh	s11,-2(s0)
    16a4:	00c79123          	sh	a2,2(a5)
    16a8:	31170d93          	addi	s11,a4,785
    16ac:	ffb41f23          	sh	s11,-2(s0)
    16b0:	01479123          	sh	s4,2(a5)
    16b4:	31270d93          	addi	s11,a4,786
    16b8:	ffb41f23          	sh	s11,-2(s0)
    16bc:	00c79123          	sh	a2,2(a5)
    16c0:	31370d93          	addi	s11,a4,787
    16c4:	ffb41f23          	sh	s11,-2(s0)
    16c8:	01379123          	sh	s3,2(a5)
    16cc:	31470d93          	addi	s11,a4,788
    16d0:	ffb41f23          	sh	s11,-2(s0)
    16d4:	00c79123          	sh	a2,2(a5)
    16d8:	31570d93          	addi	s11,a4,789
    16dc:	ffb41f23          	sh	s11,-2(s0)
    16e0:	01279123          	sh	s2,2(a5)
    16e4:	31670d93          	addi	s11,a4,790
    16e8:	ffb41f23          	sh	s11,-2(s0)
    16ec:	00c79123          	sh	a2,2(a5)
    16f0:	31770d93          	addi	s11,a4,791
    16f4:	ffb41f23          	sh	s11,-2(s0)
    16f8:	00179123          	sh	ra,2(a5)
    16fc:	31870d93          	addi	s11,a4,792
    1700:	ffb41f23          	sh	s11,-2(s0)
    1704:	00d79123          	sh	a3,2(a5)
    1708:	31970d93          	addi	s11,a4,793
    170c:	ffb41f23          	sh	s11,-2(s0)
    1710:	00079123          	sh	zero,2(a5)
    1714:	31a70d93          	addi	s11,a4,794
    1718:	ffb41f23          	sh	s11,-2(s0)
    171c:	00d79123          	sh	a3,2(a5)
    1720:	31b70d93          	addi	s11,a4,795
    1724:	ffb41f23          	sh	s11,-2(s0)
    1728:	00c79123          	sh	a2,2(a5)
    172c:	31c70d93          	addi	s11,a4,796
    1730:	ffb41f23          	sh	s11,-2(s0)
    1734:	00d79123          	sh	a3,2(a5)
    1738:	31d70d93          	addi	s11,a4,797
    173c:	ffb41f23          	sh	s11,-2(s0)
    1740:	01079123          	sh	a6,2(a5)
    1744:	31e70d93          	addi	s11,a4,798
    1748:	ffb41f23          	sh	s11,-2(s0)
    174c:	00d79123          	sh	a3,2(a5)
    1750:	31f70d93          	addi	s11,a4,799
    1754:	ffb41f23          	sh	s11,-2(s0)
    1758:	00779123          	sh	t2,2(a5)
    175c:	32070d93          	addi	s11,a4,800
    1760:	ffb41f23          	sh	s11,-2(s0)
    1764:	00d79123          	sh	a3,2(a5)
    1768:	32170d93          	addi	s11,a4,801
    176c:	ffb41f23          	sh	s11,-2(s0)
    1770:	00579123          	sh	t0,2(a5)
    1774:	32270d93          	addi	s11,a4,802
    1778:	ffb41f23          	sh	s11,-2(s0)
    177c:	00d79123          	sh	a3,2(a5)
    1780:	32370d93          	addi	s11,a4,803
    1784:	ffb41f23          	sh	s11,-2(s0)
    1788:	01f79123          	sh	t6,2(a5)
    178c:	32470d93          	addi	s11,a4,804
    1790:	ffb41f23          	sh	s11,-2(s0)
    1794:	00d79123          	sh	a3,2(a5)
    1798:	32570d93          	addi	s11,a4,805
    179c:	ffb41f23          	sh	s11,-2(s0)
    17a0:	01e79123          	sh	t5,2(a5)
    17a4:	32670d93          	addi	s11,a4,806
    17a8:	ffb41f23          	sh	s11,-2(s0)
    17ac:	00d79123          	sh	a3,2(a5)
    17b0:	32770d93          	addi	s11,a4,807
    17b4:	ffb41f23          	sh	s11,-2(s0)
    17b8:	01d79123          	sh	t4,2(a5)
    17bc:	32870d93          	addi	s11,a4,808
    17c0:	ffb41f23          	sh	s11,-2(s0)
    17c4:	00d79123          	sh	a3,2(a5)
    17c8:	32970d93          	addi	s11,a4,809
    17cc:	ffb41f23          	sh	s11,-2(s0)
    17d0:	01c79123          	sh	t3,2(a5)
    17d4:	32a70d93          	addi	s11,a4,810
    17d8:	ffb41f23          	sh	s11,-2(s0)
    17dc:	00d79123          	sh	a3,2(a5)
    17e0:	32b70d93          	addi	s11,a4,811
    17e4:	ffb41f23          	sh	s11,-2(s0)
    17e8:	00679123          	sh	t1,2(a5)
    17ec:	32c70d93          	addi	s11,a4,812
    17f0:	ffb41f23          	sh	s11,-2(s0)
    17f4:	00d79123          	sh	a3,2(a5)
    17f8:	32d70d93          	addi	s11,a4,813
    17fc:	ffb41f23          	sh	s11,-2(s0)
    1800:	0fe00d93          	li	s11,254
    1804:	01b79123          	sh	s11,2(a5)
    1808:	32e70d93          	addi	s11,a4,814
    180c:	ffb41f23          	sh	s11,-2(s0)
    1810:	00b79123          	sh	a1,2(a5)
    1814:	32f70d93          	addi	s11,a4,815
    1818:	ffb41f23          	sh	s11,-2(s0)
    181c:	4dc1                	li	s11,16
    181e:	01b79123          	sh	s11,2(a5)
    1822:	33070d93          	addi	s11,a4,816
    1826:	ffb41f23          	sh	s11,-2(s0)
    182a:	33170d93          	addi	s11,a4,817
    182e:	00b79123          	sh	a1,2(a5)
    1832:	ffb41f23          	sh	s11,-2(s0)
    1836:	01179123          	sh	a7,2(a5)
    183a:	33270d93          	addi	s11,a4,818
    183e:	ffb41f23          	sh	s11,-2(s0)
    1842:	00b79123          	sh	a1,2(a5)
    1846:	33370d93          	addi	s11,a4,819
    184a:	ffb41f23          	sh	s11,-2(s0)
    184e:	06d00d93          	li	s11,109
    1852:	01b79123          	sh	s11,2(a5)
    1856:	40070d93          	addi	s11,a4,1024
    185a:	ffb41f23          	sh	s11,-2(s0)
    185e:	00079123          	sh	zero,2(a5)
    1862:	40170d93          	addi	s11,a4,1025
    1866:	ffb41f23          	sh	s11,-2(s0)
    186a:	01179123          	sh	a7,2(a5)
    186e:	40270d93          	addi	s11,a4,1026
    1872:	ffb41f23          	sh	s11,-2(s0)
    1876:	00079123          	sh	zero,2(a5)
    187a:	40370d93          	addi	s11,a4,1027
    187e:	ffb41f23          	sh	s11,-2(s0)
    1882:	01079123          	sh	a6,2(a5)
    1886:	40470d93          	addi	s11,a4,1028
    188a:	ffb41f23          	sh	s11,-2(s0)
    188e:	00079123          	sh	zero,2(a5)
    1892:	40570d93          	addi	s11,a4,1029
    1896:	ffb41f23          	sh	s11,-2(s0)
    189a:	01a79123          	sh	s10,2(a5)
    189e:	40670d93          	addi	s11,a4,1030
    18a2:	ffb41f23          	sh	s11,-2(s0)
    18a6:	00079123          	sh	zero,2(a5)
    18aa:	40770d93          	addi	s11,a4,1031
    18ae:	ffb41f23          	sh	s11,-2(s0)
    18b2:	01979123          	sh	s9,2(a5)
    18b6:	40870d93          	addi	s11,a4,1032
    18ba:	ffb41f23          	sh	s11,-2(s0)
    18be:	00079123          	sh	zero,2(a5)
    18c2:	40970d93          	addi	s11,a4,1033
    18c6:	ffb41f23          	sh	s11,-2(s0)
    18ca:	01879123          	sh	s8,2(a5)
    18ce:	40a70d93          	addi	s11,a4,1034
    18d2:	ffb41f23          	sh	s11,-2(s0)
    18d6:	00079123          	sh	zero,2(a5)
    18da:	40b70d93          	addi	s11,a4,1035
    18de:	ffb41f23          	sh	s11,-2(s0)
    18e2:	01779123          	sh	s7,2(a5)
    18e6:	40c70d93          	addi	s11,a4,1036
    18ea:	ffb41f23          	sh	s11,-2(s0)
    18ee:	00079123          	sh	zero,2(a5)
    18f2:	40d70d93          	addi	s11,a4,1037
    18f6:	ffb41f23          	sh	s11,-2(s0)
    18fa:	01679123          	sh	s6,2(a5)
    18fe:	40e70d93          	addi	s11,a4,1038
    1902:	ffb41f23          	sh	s11,-2(s0)
    1906:	00079123          	sh	zero,2(a5)
    190a:	40f70d93          	addi	s11,a4,1039
    190e:	ffb41f23          	sh	s11,-2(s0)
    1912:	01579123          	sh	s5,2(a5)
    1916:	41070d93          	addi	s11,a4,1040
    191a:	ffb41f23          	sh	s11,-2(s0)
    191e:	00c79123          	sh	a2,2(a5)
    1922:	41170d93          	addi	s11,a4,1041
    1926:	ffb41f23          	sh	s11,-2(s0)
    192a:	01479123          	sh	s4,2(a5)
    192e:	41270d93          	addi	s11,a4,1042
    1932:	ffb41f23          	sh	s11,-2(s0)
    1936:	00c79123          	sh	a2,2(a5)
    193a:	41370d93          	addi	s11,a4,1043
    193e:	ffb41f23          	sh	s11,-2(s0)
    1942:	01379123          	sh	s3,2(a5)
    1946:	41470d93          	addi	s11,a4,1044
    194a:	ffb41f23          	sh	s11,-2(s0)
    194e:	00c79123          	sh	a2,2(a5)
    1952:	41570d93          	addi	s11,a4,1045
    1956:	ffb41f23          	sh	s11,-2(s0)
    195a:	01279123          	sh	s2,2(a5)
    195e:	41670d93          	addi	s11,a4,1046
    1962:	ffb41f23          	sh	s11,-2(s0)
    1966:	00c79123          	sh	a2,2(a5)
    196a:	41770d93          	addi	s11,a4,1047
    196e:	ffb41f23          	sh	s11,-2(s0)
    1972:	00179123          	sh	ra,2(a5)
    1976:	41870d93          	addi	s11,a4,1048
    197a:	ffb41f23          	sh	s11,-2(s0)
    197e:	00d79123          	sh	a3,2(a5)
    1982:	41970d93          	addi	s11,a4,1049
    1986:	ffb41f23          	sh	s11,-2(s0)
    198a:	00079123          	sh	zero,2(a5)
    198e:	41a70d93          	addi	s11,a4,1050
    1992:	ffb41f23          	sh	s11,-2(s0)
    1996:	00d79123          	sh	a3,2(a5)
    199a:	41b70d93          	addi	s11,a4,1051
    199e:	ffb41f23          	sh	s11,-2(s0)
    19a2:	00c79123          	sh	a2,2(a5)
    19a6:	41c70d93          	addi	s11,a4,1052
    19aa:	ffb41f23          	sh	s11,-2(s0)
    19ae:	00d79123          	sh	a3,2(a5)
    19b2:	41d70d93          	addi	s11,a4,1053
    19b6:	ffb41f23          	sh	s11,-2(s0)
    19ba:	41e70d93          	addi	s11,a4,1054
    19be:	01079123          	sh	a6,2(a5)
    19c2:	ffb41f23          	sh	s11,-2(s0)
    19c6:	00d79123          	sh	a3,2(a5)
    19ca:	41f70d93          	addi	s11,a4,1055
    19ce:	ffb41f23          	sh	s11,-2(s0)
    19d2:	00779123          	sh	t2,2(a5)
    19d6:	42070d93          	addi	s11,a4,1056
    19da:	ffb41f23          	sh	s11,-2(s0)
    19de:	00d79123          	sh	a3,2(a5)
    19e2:	42170d93          	addi	s11,a4,1057
    19e6:	ffb41f23          	sh	s11,-2(s0)
    19ea:	00579123          	sh	t0,2(a5)
    19ee:	42270d93          	addi	s11,a4,1058
    19f2:	ffb41f23          	sh	s11,-2(s0)
    19f6:	00d79123          	sh	a3,2(a5)
    19fa:	42370d93          	addi	s11,a4,1059
    19fe:	ffb41f23          	sh	s11,-2(s0)
    1a02:	01f79123          	sh	t6,2(a5)
    1a06:	42470d93          	addi	s11,a4,1060
    1a0a:	ffb41f23          	sh	s11,-2(s0)
    1a0e:	00d79123          	sh	a3,2(a5)
    1a12:	42570d93          	addi	s11,a4,1061
    1a16:	ffb41f23          	sh	s11,-2(s0)
    1a1a:	01e79123          	sh	t5,2(a5)
    1a1e:	42670d93          	addi	s11,a4,1062
    1a22:	ffb41f23          	sh	s11,-2(s0)
    1a26:	00d79123          	sh	a3,2(a5)
    1a2a:	42770d93          	addi	s11,a4,1063
    1a2e:	ffb41f23          	sh	s11,-2(s0)
    1a32:	01d79123          	sh	t4,2(a5)
    1a36:	42870d93          	addi	s11,a4,1064
    1a3a:	ffb41f23          	sh	s11,-2(s0)
    1a3e:	00d79123          	sh	a3,2(a5)
    1a42:	42970d93          	addi	s11,a4,1065
    1a46:	ffb41f23          	sh	s11,-2(s0)
    1a4a:	01c79123          	sh	t3,2(a5)
    1a4e:	42a70d93          	addi	s11,a4,1066
    1a52:	ffb41f23          	sh	s11,-2(s0)
    1a56:	00d79123          	sh	a3,2(a5)
    1a5a:	42b70d93          	addi	s11,a4,1067
    1a5e:	ffb41f23          	sh	s11,-2(s0)
    1a62:	00679123          	sh	t1,2(a5)
    1a66:	42c70d93          	addi	s11,a4,1068
    1a6a:	ffb41f23          	sh	s11,-2(s0)
    1a6e:	00d79123          	sh	a3,2(a5)
    1a72:	42d70d93          	addi	s11,a4,1069
    1a76:	ffb41f23          	sh	s11,-2(s0)
    1a7a:	0fe00d93          	li	s11,254
    1a7e:	01b79123          	sh	s11,2(a5)
    1a82:	42e70d93          	addi	s11,a4,1070
    1a86:	ffb41f23          	sh	s11,-2(s0)
    1a8a:	00b79123          	sh	a1,2(a5)
    1a8e:	42f70d93          	addi	s11,a4,1071
    1a92:	ffb41f23          	sh	s11,-2(s0)
    1a96:	4dc1                	li	s11,16
    1a98:	01b79123          	sh	s11,2(a5)
    1a9c:	43070d93          	addi	s11,a4,1072
    1aa0:	ffb41f23          	sh	s11,-2(s0)
    1aa4:	00b79123          	sh	a1,2(a5)
    1aa8:	43170d93          	addi	s11,a4,1073
    1aac:	ffb41f23          	sh	s11,-2(s0)
    1ab0:	01179123          	sh	a7,2(a5)
    1ab4:	43270d93          	addi	s11,a4,1074
    1ab8:	ffb41f23          	sh	s11,-2(s0)
    1abc:	00b79123          	sh	a1,2(a5)
    1ac0:	43370d93          	addi	s11,a4,1075
    1ac4:	ffb41f23          	sh	s11,-2(s0)
    1ac8:	06d00d93          	li	s11,109
    1acc:	01b79123          	sh	s11,2(a5)
    1ad0:	50070d93          	addi	s11,a4,1280
    1ad4:	ffb41f23          	sh	s11,-2(s0)
    1ad8:	00079123          	sh	zero,2(a5)
    1adc:	50170d93          	addi	s11,a4,1281
    1ae0:	ffb41f23          	sh	s11,-2(s0)
    1ae4:	01179123          	sh	a7,2(a5)
    1ae8:	50270d93          	addi	s11,a4,1282
    1aec:	ffb41f23          	sh	s11,-2(s0)
    1af0:	00079123          	sh	zero,2(a5)
    1af4:	50370d93          	addi	s11,a4,1283
    1af8:	ffb41f23          	sh	s11,-2(s0)
    1afc:	01079123          	sh	a6,2(a5)
    1b00:	50470d93          	addi	s11,a4,1284
    1b04:	ffb41f23          	sh	s11,-2(s0)
    1b08:	00079123          	sh	zero,2(a5)
    1b0c:	50570d93          	addi	s11,a4,1285
    1b10:	ffb41f23          	sh	s11,-2(s0)
    1b14:	01a79123          	sh	s10,2(a5)
    1b18:	50670d93          	addi	s11,a4,1286
    1b1c:	ffb41f23          	sh	s11,-2(s0)
    1b20:	00079123          	sh	zero,2(a5)
    1b24:	50770d93          	addi	s11,a4,1287
    1b28:	ffb41f23          	sh	s11,-2(s0)
    1b2c:	01979123          	sh	s9,2(a5)
    1b30:	50870d93          	addi	s11,a4,1288
    1b34:	ffb41f23          	sh	s11,-2(s0)
    1b38:	00079123          	sh	zero,2(a5)
    1b3c:	50970d93          	addi	s11,a4,1289
    1b40:	ffb41f23          	sh	s11,-2(s0)
    1b44:	01879123          	sh	s8,2(a5)
    1b48:	50a70d93          	addi	s11,a4,1290
    1b4c:	ffb41f23          	sh	s11,-2(s0)
    1b50:	50b70d93          	addi	s11,a4,1291
    1b54:	00079123          	sh	zero,2(a5)
    1b58:	ffb41f23          	sh	s11,-2(s0)
    1b5c:	01779123          	sh	s7,2(a5)
    1b60:	50c70d93          	addi	s11,a4,1292
    1b64:	ffb41f23          	sh	s11,-2(s0)
    1b68:	00079123          	sh	zero,2(a5)
    1b6c:	50d70d93          	addi	s11,a4,1293
    1b70:	ffb41f23          	sh	s11,-2(s0)
    1b74:	01679123          	sh	s6,2(a5)
    1b78:	50e70d93          	addi	s11,a4,1294
    1b7c:	ffb41f23          	sh	s11,-2(s0)
    1b80:	00079123          	sh	zero,2(a5)
    1b84:	50f70d93          	addi	s11,a4,1295
    1b88:	ffb41f23          	sh	s11,-2(s0)
    1b8c:	01579123          	sh	s5,2(a5)
    1b90:	51070d93          	addi	s11,a4,1296
    1b94:	ffb41f23          	sh	s11,-2(s0)
    1b98:	00c79123          	sh	a2,2(a5)
    1b9c:	51170d93          	addi	s11,a4,1297
    1ba0:	ffb41f23          	sh	s11,-2(s0)
    1ba4:	01479123          	sh	s4,2(a5)
    1ba8:	51270d93          	addi	s11,a4,1298
    1bac:	ffb41f23          	sh	s11,-2(s0)
    1bb0:	00c79123          	sh	a2,2(a5)
    1bb4:	51370d93          	addi	s11,a4,1299
    1bb8:	ffb41f23          	sh	s11,-2(s0)
    1bbc:	01379123          	sh	s3,2(a5)
    1bc0:	51470d93          	addi	s11,a4,1300
    1bc4:	ffb41f23          	sh	s11,-2(s0)
    1bc8:	00c79123          	sh	a2,2(a5)
    1bcc:	51570d93          	addi	s11,a4,1301
    1bd0:	ffb41f23          	sh	s11,-2(s0)
    1bd4:	01279123          	sh	s2,2(a5)
    1bd8:	51670d93          	addi	s11,a4,1302
    1bdc:	ffb41f23          	sh	s11,-2(s0)
    1be0:	00c79123          	sh	a2,2(a5)
    1be4:	51770d93          	addi	s11,a4,1303
    1be8:	ffb41f23          	sh	s11,-2(s0)
    1bec:	00179123          	sh	ra,2(a5)
    1bf0:	51870d93          	addi	s11,a4,1304
    1bf4:	ffb41f23          	sh	s11,-2(s0)
    1bf8:	00d79123          	sh	a3,2(a5)
    1bfc:	51970d93          	addi	s11,a4,1305
    1c00:	ffb41f23          	sh	s11,-2(s0)
    1c04:	00079123          	sh	zero,2(a5)
    1c08:	51a70d93          	addi	s11,a4,1306
    1c0c:	ffb41f23          	sh	s11,-2(s0)
    1c10:	00d79123          	sh	a3,2(a5)
    1c14:	51b70d93          	addi	s11,a4,1307
    1c18:	ffb41f23          	sh	s11,-2(s0)
    1c1c:	00c79123          	sh	a2,2(a5)
    1c20:	51c70d93          	addi	s11,a4,1308
    1c24:	ffb41f23          	sh	s11,-2(s0)
    1c28:	00d79123          	sh	a3,2(a5)
    1c2c:	51d70d93          	addi	s11,a4,1309
    1c30:	ffb41f23          	sh	s11,-2(s0)
    1c34:	01079123          	sh	a6,2(a5)
    1c38:	51e70d93          	addi	s11,a4,1310
    1c3c:	ffb41f23          	sh	s11,-2(s0)
    1c40:	00d79123          	sh	a3,2(a5)
    1c44:	51f70d93          	addi	s11,a4,1311
    1c48:	ffb41f23          	sh	s11,-2(s0)
    1c4c:	00779123          	sh	t2,2(a5)
    1c50:	52070d93          	addi	s11,a4,1312
    1c54:	ffb41f23          	sh	s11,-2(s0)
    1c58:	00d79123          	sh	a3,2(a5)
    1c5c:	52170d93          	addi	s11,a4,1313
    1c60:	ffb41f23          	sh	s11,-2(s0)
    1c64:	00579123          	sh	t0,2(a5)
    1c68:	52270d93          	addi	s11,a4,1314
    1c6c:	ffb41f23          	sh	s11,-2(s0)
    1c70:	00d79123          	sh	a3,2(a5)
    1c74:	52370d93          	addi	s11,a4,1315
    1c78:	ffb41f23          	sh	s11,-2(s0)
    1c7c:	01f79123          	sh	t6,2(a5)
    1c80:	52470d93          	addi	s11,a4,1316
    1c84:	ffb41f23          	sh	s11,-2(s0)
    1c88:	00d79123          	sh	a3,2(a5)
    1c8c:	52570d93          	addi	s11,a4,1317
    1c90:	ffb41f23          	sh	s11,-2(s0)
    1c94:	01e79123          	sh	t5,2(a5)
    1c98:	52670d93          	addi	s11,a4,1318
    1c9c:	ffb41f23          	sh	s11,-2(s0)
    1ca0:	00d79123          	sh	a3,2(a5)
    1ca4:	52770d93          	addi	s11,a4,1319
    1ca8:	ffb41f23          	sh	s11,-2(s0)
    1cac:	01d79123          	sh	t4,2(a5)
    1cb0:	52870d93          	addi	s11,a4,1320
    1cb4:	ffb41f23          	sh	s11,-2(s0)
    1cb8:	00d79123          	sh	a3,2(a5)
    1cbc:	52970d93          	addi	s11,a4,1321
    1cc0:	ffb41f23          	sh	s11,-2(s0)
    1cc4:	01c79123          	sh	t3,2(a5)
    1cc8:	52a70d93          	addi	s11,a4,1322
    1ccc:	ffb41f23          	sh	s11,-2(s0)
    1cd0:	00d79123          	sh	a3,2(a5)
    1cd4:	52b70d93          	addi	s11,a4,1323
    1cd8:	ffb41f23          	sh	s11,-2(s0)
    1cdc:	52c70d93          	addi	s11,a4,1324
    1ce0:	00679123          	sh	t1,2(a5)
    1ce4:	ffb41f23          	sh	s11,-2(s0)
    1ce8:	00d79123          	sh	a3,2(a5)
    1cec:	52d70d93          	addi	s11,a4,1325
    1cf0:	ffb41f23          	sh	s11,-2(s0)
    1cf4:	0fe00d93          	li	s11,254
    1cf8:	01b79123          	sh	s11,2(a5)
    1cfc:	52e70d93          	addi	s11,a4,1326
    1d00:	ffb41f23          	sh	s11,-2(s0)
    1d04:	00b79123          	sh	a1,2(a5)
    1d08:	52f70d93          	addi	s11,a4,1327
    1d0c:	ffb41f23          	sh	s11,-2(s0)
    1d10:	4dc1                	li	s11,16
    1d12:	01b79123          	sh	s11,2(a5)
    1d16:	53070d93          	addi	s11,a4,1328
    1d1a:	ffb41f23          	sh	s11,-2(s0)
    1d1e:	00b79123          	sh	a1,2(a5)
    1d22:	53170d93          	addi	s11,a4,1329
    1d26:	ffb41f23          	sh	s11,-2(s0)
    1d2a:	01179123          	sh	a7,2(a5)
    1d2e:	53270d93          	addi	s11,a4,1330
    1d32:	ffb41f23          	sh	s11,-2(s0)
    1d36:	00b79123          	sh	a1,2(a5)
    1d3a:	53370d93          	addi	s11,a4,1331
    1d3e:	ffb41f23          	sh	s11,-2(s0)
    1d42:	06d00d93          	li	s11,109
    1d46:	01b79123          	sh	s11,2(a5)
    1d4a:	60070d93          	addi	s11,a4,1536
    1d4e:	ffb41f23          	sh	s11,-2(s0)
    1d52:	00079123          	sh	zero,2(a5)
    1d56:	60170d93          	addi	s11,a4,1537
    1d5a:	ffb41f23          	sh	s11,-2(s0)
    1d5e:	01179123          	sh	a7,2(a5)
    1d62:	60270d93          	addi	s11,a4,1538
    1d66:	ffb41f23          	sh	s11,-2(s0)
    1d6a:	00079123          	sh	zero,2(a5)
    1d6e:	60370d93          	addi	s11,a4,1539
    1d72:	ffb41f23          	sh	s11,-2(s0)
    1d76:	01079123          	sh	a6,2(a5)
    1d7a:	60470d93          	addi	s11,a4,1540
    1d7e:	ffb41f23          	sh	s11,-2(s0)
    1d82:	00079123          	sh	zero,2(a5)
    1d86:	60570d93          	addi	s11,a4,1541
    1d8a:	ffb41f23          	sh	s11,-2(s0)
    1d8e:	01a79123          	sh	s10,2(a5)
    1d92:	60670d13          	addi	s10,a4,1542
    1d96:	ffa41f23          	sh	s10,-2(s0)
    1d9a:	00079123          	sh	zero,2(a5)
    1d9e:	60770d13          	addi	s10,a4,1543
    1da2:	ffa41f23          	sh	s10,-2(s0)
    1da6:	01979123          	sh	s9,2(a5)
    1daa:	60870c93          	addi	s9,a4,1544
    1dae:	ff941f23          	sh	s9,-2(s0)
    1db2:	00079123          	sh	zero,2(a5)
    1db6:	60970c93          	addi	s9,a4,1545
    1dba:	ff941f23          	sh	s9,-2(s0)
    1dbe:	01879123          	sh	s8,2(a5)
    1dc2:	60a70c13          	addi	s8,a4,1546
    1dc6:	ff841f23          	sh	s8,-2(s0)
    1dca:	00079123          	sh	zero,2(a5)
    1dce:	60b70c13          	addi	s8,a4,1547
    1dd2:	ff841f23          	sh	s8,-2(s0)
    1dd6:	01779123          	sh	s7,2(a5)
    1dda:	60c70b93          	addi	s7,a4,1548
    1dde:	ff741f23          	sh	s7,-2(s0)
    1de2:	00079123          	sh	zero,2(a5)
    1de6:	60d70b93          	addi	s7,a4,1549
    1dea:	ff741f23          	sh	s7,-2(s0)
    1dee:	01679123          	sh	s6,2(a5)
    1df2:	60e70b13          	addi	s6,a4,1550
    1df6:	ff641f23          	sh	s6,-2(s0)
    1dfa:	00079123          	sh	zero,2(a5)
    1dfe:	60f70b13          	addi	s6,a4,1551
    1e02:	ff641f23          	sh	s6,-2(s0)
    1e06:	01579123          	sh	s5,2(a5)
    1e0a:	61070a93          	addi	s5,a4,1552
    1e0e:	ff541f23          	sh	s5,-2(s0)
    1e12:	00c79123          	sh	a2,2(a5)
    1e16:	61170a93          	addi	s5,a4,1553
    1e1a:	ff541f23          	sh	s5,-2(s0)
    1e1e:	01479123          	sh	s4,2(a5)
    1e22:	61270a13          	addi	s4,a4,1554
    1e26:	ff441f23          	sh	s4,-2(s0)
    1e2a:	00c79123          	sh	a2,2(a5)
    1e2e:	61370a13          	addi	s4,a4,1555
    1e32:	ff441f23          	sh	s4,-2(s0)
    1e36:	01379123          	sh	s3,2(a5)
    1e3a:	61470993          	addi	s3,a4,1556
    1e3e:	ff341f23          	sh	s3,-2(s0)
    1e42:	00c79123          	sh	a2,2(a5)
    1e46:	61570993          	addi	s3,a4,1557
    1e4a:	ff341f23          	sh	s3,-2(s0)
    1e4e:	01279123          	sh	s2,2(a5)
    1e52:	61670913          	addi	s2,a4,1558
    1e56:	ff241f23          	sh	s2,-2(s0)
    1e5a:	00c79123          	sh	a2,2(a5)
    1e5e:	61770913          	addi	s2,a4,1559
    1e62:	ff241f23          	sh	s2,-2(s0)
    1e66:	00179123          	sh	ra,2(a5)
    1e6a:	61870093          	addi	ra,a4,1560
    1e6e:	fe141f23          	sh	ra,-2(s0)
    1e72:	61970093          	addi	ra,a4,1561
    1e76:	00d79123          	sh	a3,2(a5)
    1e7a:	fe141f23          	sh	ra,-2(s0)
    1e7e:	00079123          	sh	zero,2(a5)
    1e82:	61a70093          	addi	ra,a4,1562
    1e86:	fe141f23          	sh	ra,-2(s0)
    1e8a:	00d79123          	sh	a3,2(a5)
    1e8e:	61b70093          	addi	ra,a4,1563
    1e92:	fe141f23          	sh	ra,-2(s0)
    1e96:	00c79123          	sh	a2,2(a5)
    1e9a:	61c70093          	addi	ra,a4,1564
    1e9e:	fe141f23          	sh	ra,-2(s0)
    1ea2:	00d79123          	sh	a3,2(a5)
    1ea6:	61d70093          	addi	ra,a4,1565
    1eaa:	fe141f23          	sh	ra,-2(s0)
    1eae:	01079123          	sh	a6,2(a5)
    1eb2:	61e70813          	addi	a6,a4,1566
    1eb6:	ff041f23          	sh	a6,-2(s0)
    1eba:	00d79123          	sh	a3,2(a5)
    1ebe:	61f70813          	addi	a6,a4,1567
    1ec2:	ff041f23          	sh	a6,-2(s0)
    1ec6:	00779123          	sh	t2,2(a5)
    1eca:	62070813          	addi	a6,a4,1568
    1ece:	ff041f23          	sh	a6,-2(s0)
    1ed2:	00d79123          	sh	a3,2(a5)
    1ed6:	62170813          	addi	a6,a4,1569
    1eda:	ff041f23          	sh	a6,-2(s0)
    1ede:	00579123          	sh	t0,2(a5)
    1ee2:	62270813          	addi	a6,a4,1570
    1ee6:	ff041f23          	sh	a6,-2(s0)
    1eea:	00d79123          	sh	a3,2(a5)
    1eee:	62370813          	addi	a6,a4,1571
    1ef2:	ff041f23          	sh	a6,-2(s0)
    1ef6:	01f79123          	sh	t6,2(a5)
    1efa:	62470813          	addi	a6,a4,1572
    1efe:	ff041f23          	sh	a6,-2(s0)
    1f02:	00d79123          	sh	a3,2(a5)
    1f06:	62570813          	addi	a6,a4,1573
    1f0a:	ff041f23          	sh	a6,-2(s0)
    1f0e:	01e79123          	sh	t5,2(a5)
    1f12:	62670813          	addi	a6,a4,1574
    1f16:	ff041f23          	sh	a6,-2(s0)
    1f1a:	00d79123          	sh	a3,2(a5)
    1f1e:	62770813          	addi	a6,a4,1575
    1f22:	ff041f23          	sh	a6,-2(s0)
    1f26:	01d79123          	sh	t4,2(a5)
    1f2a:	62870813          	addi	a6,a4,1576
    1f2e:	ff041f23          	sh	a6,-2(s0)
    1f32:	00d79123          	sh	a3,2(a5)
    1f36:	62970813          	addi	a6,a4,1577
    1f3a:	ff041f23          	sh	a6,-2(s0)
    1f3e:	01c79123          	sh	t3,2(a5)
    1f42:	62a70813          	addi	a6,a4,1578
    1f46:	ff041f23          	sh	a6,-2(s0)
    1f4a:	00d79123          	sh	a3,2(a5)
    1f4e:	62b70813          	addi	a6,a4,1579
    1f52:	ff041f23          	sh	a6,-2(s0)
    1f56:	00679123          	sh	t1,2(a5)
    1f5a:	62c70813          	addi	a6,a4,1580
    1f5e:	ff041f23          	sh	a6,-2(s0)
    1f62:	00d79123          	sh	a3,2(a5)
    1f66:	62d70813          	addi	a6,a4,1581
    1f6a:	ff041f23          	sh	a6,-2(s0)
    1f6e:	0fe00d93          	li	s11,254
    1f72:	01b79123          	sh	s11,2(a5)
    1f76:	62e70813          	addi	a6,a4,1582
    1f7a:	ff041f23          	sh	a6,-2(s0)
    1f7e:	00b79123          	sh	a1,2(a5)
    1f82:	62f70813          	addi	a6,a4,1583
    1f86:	ff041f23          	sh	a6,-2(s0)
    1f8a:	4dc1                	li	s11,16
    1f8c:	01b79123          	sh	s11,2(a5)
    1f90:	63070813          	addi	a6,a4,1584
    1f94:	ff041f23          	sh	a6,-2(s0)
    1f98:	00b79123          	sh	a1,2(a5)
    1f9c:	63170813          	addi	a6,a4,1585
    1fa0:	ff041f23          	sh	a6,-2(s0)
    1fa4:	01179123          	sh	a7,2(a5)
    1fa8:	63270813          	addi	a6,a4,1586
    1fac:	ff041f23          	sh	a6,-2(s0)
    1fb0:	00b79123          	sh	a1,2(a5)
    1fb4:	63370813          	addi	a6,a4,1587
    1fb8:	ff041f23          	sh	a6,-2(s0)
    1fbc:	06d00d93          	li	s11,109
    1fc0:	01b79123          	sh	s11,2(a5)
    1fc4:	787d                	lui	a6,0xfffff
    1fc6:	ff041f23          	sh	a6,-2(s0)
    1fca:	05500e93          	li	t4,85
    1fce:	01d79123          	sh	t4,2(a5)
    1fd2:	00180f93          	addi	t6,a6,1 # fffff001 <_eusrstack+0xdfff7001>
    1fd6:	fff41f23          	sh	t6,-2(s0)
    1fda:	0aa00f13          	li	t5,170
    1fde:	01e79123          	sh	t5,2(a5)
    1fe2:	00280f93          	addi	t6,a6,2
    1fe6:	fff41f23          	sh	t6,-2(s0)
    1fea:	05200f13          	li	t5,82
    1fee:	01e79123          	sh	t5,2(a5)
    1ff2:	00380f13          	addi	t5,a6,3
    1ff6:	ffe41f23          	sh	t5,-2(s0)
    1ffa:	4e21                	li	t3,8
    1ffc:	01c79123          	sh	t3,2(a5)
    2000:	0811                	addi	a6,a6,4
    2002:	78ed                	lui	a7,0xffffb
    2004:	ff041f23          	sh	a6,-2(s0)
    2008:	00079123          	sh	zero,2(a5)
    200c:	10088813          	addi	a6,a7,256 # ffffb100 <_eusrstack+0xdfff3100>
    2010:	ff041f23          	sh	a6,-2(s0)
    2014:	0cc00813          	li	a6,204
    2018:	01079123          	sh	a6,2(a5)
    201c:	10188813          	addi	a6,a7,257
    2020:	ff041f23          	sh	a6,-2(s0)
    2024:	00079123          	sh	zero,2(a5)
    2028:	60088813          	addi	a6,a7,1536
    202c:	ff041f23          	sh	a6,-2(s0)
    2030:	4815                	li	a6,5
    2032:	01079123          	sh	a6,2(a5)
    2036:	70088813          	addi	a6,a7,1792
    203a:	ff041f23          	sh	a6,-2(s0)
    203e:	07000813          	li	a6,112
    2042:	01079123          	sh	a6,2(a5)
    2046:	70188893          	addi	a7,a7,1793
    204a:	ff141f23          	sh	a7,-2(s0)
    204e:	7371                	lui	t1,0xffffc
    2050:	01079123          	sh	a6,2(a5)
    2054:	80030813          	addi	a6,t1,-2048 # ffffb800 <_eusrstack+0xdfff3800>
    2058:	ff041f23          	sh	a6,-2(s0)
    205c:	00c79123          	sh	a2,2(a5)
    2060:	80130813          	addi	a6,t1,-2047
    2064:	ff041f23          	sh	a6,-2(s0)
    2068:	00b79123          	sh	a1,2(a5)
    206c:	80230813          	addi	a6,t1,-2046
    2070:	ff041f23          	sh	a6,-2(s0)
    2074:	00b79123          	sh	a1,2(a5)
    2078:	80350513          	addi	a0,a0,-2045
    207c:	fea41f23          	sh	a0,-2(s0)
    2080:	00b79123          	sh	a1,2(a5)
    2084:	c0030593          	addi	a1,t1,-1024
    2088:	feb41f23          	sh	a1,-2(s0)
    208c:	00d79123          	sh	a3,2(a5)
    2090:	c0130593          	addi	a1,t1,-1023
    2094:	feb41f23          	sh	a1,-2(s0)
    2098:	00079123          	sh	zero,2(a5)
    209c:	c0230613          	addi	a2,t1,-1022
    20a0:	fec41f23          	sh	a2,-2(s0)
    20a4:	00079123          	sh	zero,2(a5)
    20a8:	90070613          	addi	a2,a4,-1792
    20ac:	fec41f23          	sh	a2,-2(s0)
    20b0:	0d000613          	li	a2,208
    20b4:	00c79123          	sh	a2,2(a5)
    20b8:	90170613          	addi	a2,a4,-1791
    20bc:	fec41f23          	sh	a2,-2(s0)
    20c0:	00d79123          	sh	a3,2(a5)
    20c4:	90270693          	addi	a3,a4,-1790
    20c8:	fed41f23          	sh	a3,-2(s0)
    20cc:	05000693          	li	a3,80
    20d0:	00d79123          	sh	a3,2(a5)
    20d4:	90370613          	addi	a2,a4,-1789
    20d8:	fec41f23          	sh	a2,-2(s0)
    20dc:	00d79123          	sh	a3,2(a5)
    20e0:	90470713          	addi	a4,a4,-1788
    20e4:	fee41f23          	sh	a4,-2(s0)
    20e8:	690d                	lui	s2,0x3
    20ea:	00d79123          	sh	a3,2(a5)
    20ee:	50090713          	addi	a4,s2,1280 # 3500 <FSMC_NORSRAMInit+0x20>
    20f2:	fee41f23          	sh	a4,-2(s0)
    20f6:	6711                	lui	a4,0x4
    20f8:	00079123          	sh	zero,2(a5)
    20fc:	a0070713          	addi	a4,a4,-1536 # 3a00 <USART_ITConfig+0x24>
    2100:	fee41f23          	sh	a4,-2(s0)
    2104:	01d79123          	sh	t4,2(a5)
    2108:	6785                	lui	a5,0x1
    210a:	10078793          	addi	a5,a5,256 # 1100 <LCD_Init+0x570>
    210e:	fef41f23          	sh	a5,-2(s0)
    2112:	07800513          	li	a0,120
    2116:	90090913          	addi	s2,s2,-1792
    211a:	46f010ef          	jal	ra,3d88 <Delay_Us>
    211e:	ff241f23          	sh	s2,-2(s0)
    2122:	0044d703          	lhu	a4,4(s1)
    2126:	67a5                	lui	a5,0x9
    2128:	34178793          	addi	a5,a5,833 # 9341 <__floatsidf+0x67>
    212c:	02f70063          	beq	a4,a5,214c <LCD_Init+0x15bc>
    2130:	77ed                	lui	a5,0xffffb
    2132:	cf078793          	addi	a5,a5,-784 # ffffacf0 <_eusrstack+0xdfff2cf0>
    2136:	97ba                	add	a5,a5,a4
    2138:	dff7f793          	andi	a5,a5,-513
    213c:	07c2                	slli	a5,a5,0x10
    213e:	83c1                	srli	a5,a5,0x10
    2140:	c791                	beqz	a5,214c <LCD_Init+0x15bc>
    2142:	6789                	lui	a5,0x2
    2144:	96378793          	addi	a5,a5,-1693 # 1963 <LCD_Init+0xdd3>
    2148:	00f71f63          	bne	a4,a5,2166 <LCD_Init+0x15d6>
    214c:	57c2                	lw	a5,48(sp)
    214e:	777d                	lui	a4,0xfffff
    2150:	0ff70713          	addi	a4,a4,255 # fffff0ff <_eusrstack+0xdfff70ff>
    2154:	8ff9                	and	a5,a5,a4
    2156:	5722                	lw	a4,40(sp)
    2158:	4007e793          	ori	a5,a5,1024
    215c:	d83e                	sw	a5,48(sp)
    215e:	9b41                	andi	a4,a4,-16
    2160:	00476713          	ori	a4,a4,4
    2164:	d43a                	sw	a4,40(sp)
    2166:	4505                	li	a0,1
    2168:	9a1fe0ef          	jal	ra,b08 <LCD_Display_Dir>
    216c:	40011537          	lui	a0,0x40011
    2170:	6591                	lui	a1,0x4
    2172:	c0050513          	addi	a0,a0,-1024 # 40010c00 <_eusrstack+0x20008c00>
    2176:	50e010ef          	jal	ra,3684 <GPIO_SetBits>
    217a:	6521                	lui	a0,0x8
    217c:	d7c50513          	addi	a0,a0,-644 # 7d7c <__adddf3+0x648>
    2180:	9d3fe0ef          	jal	ra,b52 <LCD_Clear>
    2184:	50fa                	lw	ra,188(sp)
    2186:	546a                	lw	s0,184(sp)
    2188:	54da                	lw	s1,180(sp)
    218a:	594a                	lw	s2,176(sp)
    218c:	59ba                	lw	s3,172(sp)
    218e:	5a2a                	lw	s4,168(sp)
    2190:	5a9a                	lw	s5,164(sp)
    2192:	5b0a                	lw	s6,160(sp)
    2194:	4bfa                	lw	s7,156(sp)
    2196:	4c6a                	lw	s8,152(sp)
    2198:	4cda                	lw	s9,148(sp)
    219a:	4d4a                	lw	s10,144(sp)
    219c:	4dba                	lw	s11,140(sp)
    219e:	6129                	addi	sp,sp,192
    21a0:	8082                	ret
    21a2:	ff541f23          	sh	s5,-2(s0)
    21a6:	81bfe0ef          	jal	ra,9c0 <LCD_RD_DATA>
    21aa:	00a49223          	sh	a0,4(s1)
    21ae:	813fe0ef          	jal	ra,9c0 <LCD_RD_DATA>
    21b2:	00a49223          	sh	a0,4(s1)
    21b6:	80bfe0ef          	jal	ra,9c0 <LCD_RD_DATA>
    21ba:	0522                	slli	a0,a0,0x8
    21bc:	00a49223          	sh	a0,4(s1)
    21c0:	801fe0ef          	jal	ra,9c0 <LCD_RD_DATA>
    21c4:	0044d783          	lhu	a5,4(s1)
    21c8:	8d5d                	or	a0,a0,a5
    21ca:	0542                	slli	a0,a0,0x10
    21cc:	8141                	srli	a0,a0,0x10
    21ce:	67a9                	lui	a5,0xa
    21d0:	00a49223          	sh	a0,4(s1)
    21d4:	80678793          	addi	a5,a5,-2042 # 9806 <_exit+0x172>
    21d8:	f4f505e3          	beq	a0,a5,2122 <LCD_Init+0x1592>
    21dc:	0a100793          	li	a5,161
    21e0:	fef41f23          	sh	a5,-2(s0)
    21e4:	fdcfe0ef          	jal	ra,9c0 <LCD_RD_DATA>
    21e8:	00a49223          	sh	a0,4(s1)
    21ec:	fd4fe0ef          	jal	ra,9c0 <LCD_RD_DATA>
    21f0:	0522                	slli	a0,a0,0x8
    21f2:	00a49223          	sh	a0,4(s1)
    21f6:	fcafe0ef          	jal	ra,9c0 <LCD_RD_DATA>
    21fa:	0044d783          	lhu	a5,4(s1)
    21fe:	76190913          	addi	s2,s2,1889
    2202:	8d5d                	or	a0,a0,a5
    2204:	0542                	slli	a0,a0,0x10
    2206:	8141                	srli	a0,a0,0x10
    2208:	00a49223          	sh	a0,4(s1)
    220c:	01251763          	bne	a0,s2,221a <LCD_Init+0x168a>
    2210:	6789                	lui	a5,0x2
    2212:	96378793          	addi	a5,a5,-1693 # 1963 <LCD_Init+0xdd3>
    2216:	b35fe06f          	j	d4a <LCD_Init+0x1ba>
    221a:	01351463          	bne	a0,s3,2222 <LCD_Init+0x1692>
    221e:	c35fe06f          	j	e52 <LCD_Init+0x2c2>
    2222:	b701                	j	2122 <LCD_Init+0x1592>

00002224 <LCD_Fast_DrawPoint>:
    2224:	e7018713          	addi	a4,gp,-400 # 20000860 <lcddev>
    2228:	00475683          	lhu	a3,4(a4)
    222c:	6715                	lui	a4,0x5
    222e:	51070713          	addi	a4,a4,1296 # 5510 <__sflush_r+0xa8>
    2232:	e7018793          	addi	a5,gp,-400 # 20000860 <lcddev>
    2236:	04e69663          	bne	a3,a4,2282 <LCD_Fast_DrawPoint+0x5e>
    223a:	00a7d703          	lhu	a4,10(a5)
    223e:	600406b7          	lui	a3,0x60040
    2242:	00855893          	srli	a7,a0,0x8
    2246:	fee69f23          	sh	a4,-2(a3) # 6003fffe <_eusrstack+0x40037ffe>
    224a:	0705                	addi	a4,a4,1
    224c:	0742                	slli	a4,a4,0x10
    224e:	01169023          	sh	a7,0(a3)
    2252:	8341                	srli	a4,a4,0x10
    2254:	fee69f23          	sh	a4,-2(a3)
    2258:	0ff57513          	andi	a0,a0,255
    225c:	00a69023          	sh	a0,0(a3)
    2260:	00c7d703          	lhu	a4,12(a5)
    2264:	0085d513          	srli	a0,a1,0x8
    2268:	0ff5f593          	andi	a1,a1,255
    226c:	fee69f23          	sh	a4,-2(a3)
    2270:	0705                	addi	a4,a4,1
    2272:	0742                	slli	a4,a4,0x10
    2274:	00a69023          	sh	a0,0(a3)
    2278:	8341                	srli	a4,a4,0x10
    227a:	fee69f23          	sh	a4,-2(a3)
    227e:	00b69023          	sh	a1,0(a3)
    2282:	0087d683          	lhu	a3,8(a5)
    2286:	600407b7          	lui	a5,0x60040
    228a:	fed79f23          	sh	a3,-2(a5) # 6003fffe <_eusrstack+0x40037ffe>
    228e:	00c79023          	sh	a2,0(a5)
    2292:	8082                	ret

00002294 <LCD_ShowChar>:
    2294:	711d                	addi	sp,sp,-96
    2296:	0076f793          	andi	a5,a3,7
    229a:	d86a                	sw	s10,48(sp)
    229c:	00f037b3          	snez	a5,a5
    22a0:	8d2e                	mv	s10,a1
    22a2:	0036d593          	srli	a1,a3,0x3
    22a6:	97ae                	add	a5,a5,a1
    22a8:	0016d593          	srli	a1,a3,0x1
    22ac:	02b787b3          	mul	a5,a5,a1
    22b0:	cca2                	sw	s0,88(sp)
    22b2:	fe060413          	addi	s0,a2,-32
    22b6:	0ff47413          	andi	s0,s0,255
    22ba:	4631                	li	a2,12
    22bc:	caa6                	sw	s1,84(sp)
    22be:	02400493          	li	s1,36
    22c2:	c8ca                	sw	s2,80(sp)
    22c4:	c6ce                	sw	s3,76(sp)
    22c6:	c4d2                	sw	s4,72(sp)
    22c8:	0ff7f793          	andi	a5,a5,255
    22cc:	c63e                	sw	a5,12(sp)
    22ce:	00641793          	slli	a5,s0,0x6
    22d2:	ca3e                	sw	a5,20(sp)
    22d4:	00441793          	slli	a5,s0,0x4
    22d8:	c83e                	sw	a5,16(sp)
    22da:	02c407b3          	mul	a5,s0,a2
    22de:	c2d6                	sw	s5,68(sp)
    22e0:	692d                	lui	s2,0xb
    22e2:	69a9                	lui	s3,0xa
    22e4:	6a29                	lui	s4,0xa
    22e6:	6aa9                	lui	s5,0xa
    22e8:	de5e                	sw	s7,60(sp)
    22ea:	dc62                	sw	s8,56(sp)
    22ec:	da66                	sw	s9,52(sp)
    22ee:	ce86                	sw	ra,92(sp)
    22f0:	029404b3          	mul	s1,s0,s1
    22f4:	c0da                	sw	s6,64(sp)
    22f6:	d66e                	sw	s11,44(sp)
    22f8:	8caa                	mv	s9,a0
    22fa:	c43e                	sw	a5,8(sp)
    22fc:	8c6a                	mv	s8,s10
    22fe:	4b81                	li	s7,0
    2300:	02090913          	addi	s2,s2,32 # b020 <asc2_3216>
    2304:	2c498993          	addi	s3,s3,708 # a2c4 <asc2_2412>
    2308:	cd4a0a13          	addi	s4,s4,-812 # 9cd4 <asc2_1608>
    230c:	860a8a93          	addi	s5,s5,-1952 # 9860 <asc2_1206>
    2310:	47b2                	lw	a5,12(sp)
    2312:	0ffbf613          	andi	a2,s7,255
    2316:	02f66163          	bltu	a2,a5,2338 <LCD_ShowChar+0xa4>
    231a:	40f6                	lw	ra,92(sp)
    231c:	4466                	lw	s0,88(sp)
    231e:	44d6                	lw	s1,84(sp)
    2320:	4946                	lw	s2,80(sp)
    2322:	49b6                	lw	s3,76(sp)
    2324:	4a26                	lw	s4,72(sp)
    2326:	4a96                	lw	s5,68(sp)
    2328:	4b06                	lw	s6,64(sp)
    232a:	5bf2                	lw	s7,60(sp)
    232c:	5c62                	lw	s8,56(sp)
    232e:	5cd2                	lw	s9,52(sp)
    2330:	5d42                	lw	s10,48(sp)
    2332:	5db2                	lw	s11,44(sp)
    2334:	6125                	addi	sp,sp,96
    2336:	8082                	ret
    2338:	4631                	li	a2,12
    233a:	06c69e63          	bne	a3,a2,23b6 <LCD_ShowChar+0x122>
    233e:	47a2                	lw	a5,8(sp)
    2340:	00fb8633          	add	a2,s7,a5
    2344:	9656                	add	a2,a2,s5
    2346:	008c0e93          	addi	t4,s8,8
    234a:	00064403          	lbu	s0,0(a2)
    234e:	010e9d93          	slli	s11,t4,0x10
    2352:	010ddd93          	srli	s11,s11,0x10
    2356:	01841613          	slli	a2,s0,0x18
    235a:	8661                	srai	a2,a2,0x18
    235c:	08065563          	bgez	a2,23e6 <LCD_ShowChar+0x152>
    2360:	81a1d603          	lhu	a2,-2022(gp) # 2000020a <POINT_COLOR>
    2364:	85e2                	mv	a1,s8
    2366:	8566                	mv	a0,s9
    2368:	ce3a                	sw	a4,28(sp)
    236a:	cc36                	sw	a3,24(sp)
    236c:	3d65                	jal	2224 <LCD_Fast_DrawPoint>
    236e:	46e2                	lw	a3,24(sp)
    2370:	4772                	lw	a4,28(sp)
    2372:	001c0793          	addi	a5,s8,1
    2376:	01079c13          	slli	s8,a5,0x10
    237a:	e7018793          	addi	a5,gp,-400 # 20000860 <lcddev>
    237e:	0027d603          	lhu	a2,2(a5)
    2382:	00141813          	slli	a6,s0,0x1
    2386:	010c5c13          	srli	s8,s8,0x10
    238a:	0ff87413          	andi	s0,a6,255
    238e:	f8cc76e3          	bgeu	s8,a2,231a <LCD_ShowChar+0x86>
    2392:	41ac0633          	sub	a2,s8,s10
    2396:	06d61563          	bne	a2,a3,2400 <LCD_ShowChar+0x16c>
    239a:	001c8313          	addi	t1,s9,1
    239e:	e701d783          	lhu	a5,-400(gp) # 20000860 <lcddev>
    23a2:	01031c93          	slli	s9,t1,0x10
    23a6:	010cdc93          	srli	s9,s9,0x10
    23aa:	f6fcf8e3          	bgeu	s9,a5,231a <LCD_ShowChar+0x86>
    23ae:	8dea                	mv	s11,s10
    23b0:	0b85                	addi	s7,s7,1
    23b2:	8c6e                	mv	s8,s11
    23b4:	bfb1                	j	2310 <LCD_ShowChar+0x7c>
    23b6:	4641                	li	a2,16
    23b8:	00c69763          	bne	a3,a2,23c6 <LCD_ShowChar+0x132>
    23bc:	47c2                	lw	a5,16(sp)
    23be:	00fb8633          	add	a2,s7,a5
    23c2:	9652                	add	a2,a2,s4
    23c4:	b749                	j	2346 <LCD_ShowChar+0xb2>
    23c6:	4661                	li	a2,24
    23c8:	00c69663          	bne	a3,a2,23d4 <LCD_ShowChar+0x140>
    23cc:	009b8633          	add	a2,s7,s1
    23d0:	964e                	add	a2,a2,s3
    23d2:	bf95                	j	2346 <LCD_ShowChar+0xb2>
    23d4:	02000613          	li	a2,32
    23d8:	f4c691e3          	bne	a3,a2,231a <LCD_ShowChar+0x86>
    23dc:	47d2                	lw	a5,20(sp)
    23de:	00fb8633          	add	a2,s7,a5
    23e2:	964a                	add	a2,a2,s2
    23e4:	b78d                	j	2346 <LCD_ShowChar+0xb2>
    23e6:	f751                	bnez	a4,2372 <LCD_ShowChar+0xde>
    23e8:	200007b7          	lui	a5,0x20000
    23ec:	1f07d603          	lhu	a2,496(a5) # 200001f0 <BACK_COLOR>
    23f0:	85e2                	mv	a1,s8
    23f2:	8566                	mv	a0,s9
    23f4:	ce3a                	sw	a4,28(sp)
    23f6:	cc36                	sw	a3,24(sp)
    23f8:	3535                	jal	2224 <LCD_Fast_DrawPoint>
    23fa:	4772                	lw	a4,28(sp)
    23fc:	46e2                	lw	a3,24(sp)
    23fe:	bf95                	j	2372 <LCD_ShowChar+0xde>
    2400:	f58d9be3          	bne	s11,s8,2356 <LCD_ShowChar+0xc2>
    2404:	b775                	j	23b0 <LCD_ShowChar+0x11c>

00002406 <LCD_ShowString>:
    2406:	7139                	addi	sp,sp,-64
    2408:	962a                	add	a2,a2,a0
    240a:	96ae                	add	a3,a3,a1
    240c:	d84a                	sw	s2,48(sp)
    240e:	d64e                	sw	s3,44(sp)
    2410:	01061913          	slli	s2,a2,0x10
    2414:	01069993          	slli	s3,a3,0x10
    2418:	dc22                	sw	s0,56(sp)
    241a:	da26                	sw	s1,52(sp)
    241c:	d452                	sw	s4,40(sp)
    241e:	d256                	sw	s5,36(sp)
    2420:	d05a                	sw	s6,32(sp)
    2422:	ce5e                	sw	s7,28(sp)
    2424:	de06                	sw	ra,60(sp)
    2426:	84ae                	mv	s1,a1
    2428:	01095913          	srli	s2,s2,0x10
    242c:	0109d993          	srli	s3,s3,0x10
    2430:	8a3a                	mv	s4,a4
    2432:	00175b13          	srli	s6,a4,0x1
    2436:	842a                	mv	s0,a0
    2438:	05e00a93          	li	s5,94
    243c:	0ff57b93          	andi	s7,a0,255
    2440:	0007c603          	lbu	a2,0(a5)
    2444:	fe060713          	addi	a4,a2,-32
    2448:	0ff77713          	andi	a4,a4,255
    244c:	00eafd63          	bgeu	s5,a4,2466 <LCD_ShowString+0x60>
    2450:	50f2                	lw	ra,60(sp)
    2452:	5462                	lw	s0,56(sp)
    2454:	54d2                	lw	s1,52(sp)
    2456:	5942                	lw	s2,48(sp)
    2458:	59b2                	lw	s3,44(sp)
    245a:	5a22                	lw	s4,40(sp)
    245c:	5a92                	lw	s5,36(sp)
    245e:	5b02                	lw	s6,32(sp)
    2460:	4bf2                	lw	s7,28(sp)
    2462:	6121                	addi	sp,sp,64
    2464:	8082                	ret
    2466:	01246663          	bltu	s0,s2,2472 <LCD_ShowString+0x6c>
    246a:	94d2                	add	s1,s1,s4
    246c:	04c2                	slli	s1,s1,0x10
    246e:	845e                	mv	s0,s7
    2470:	80c1                	srli	s1,s1,0x10
    2472:	c63e                	sw	a5,12(sp)
    2474:	fd34fee3          	bgeu	s1,s3,2450 <LCD_ShowString+0x4a>
    2478:	8522                	mv	a0,s0
    247a:	4705                	li	a4,1
    247c:	86d2                	mv	a3,s4
    247e:	85a6                	mv	a1,s1
    2480:	3d11                	jal	2294 <LCD_ShowChar>
    2482:	47b2                	lw	a5,12(sp)
    2484:	945a                	add	s0,s0,s6
    2486:	0442                	slli	s0,s0,0x10
    2488:	8041                	srli	s0,s0,0x10
    248a:	0785                	addi	a5,a5,1
    248c:	bf55                	j	2440 <LCD_ShowString+0x3a>

0000248e <LCD_Color_Fill>:
    248e:	7179                	addi	sp,sp,-48
    2490:	d226                	sw	s1,36(sp)
    2492:	d04a                	sw	s2,32(sp)
    2494:	40b684b3          	sub	s1,a3,a1
    2498:	40a60933          	sub	s2,a2,a0
    249c:	0905                	addi	s2,s2,1
    249e:	0485                	addi	s1,s1,1
    24a0:	0942                	slli	s2,s2,0x10
    24a2:	04c2                	slli	s1,s1,0x10
    24a4:	d422                	sw	s0,40(sp)
    24a6:	ce4e                	sw	s3,28(sp)
    24a8:	cc52                	sw	s4,24(sp)
    24aa:	ca56                	sw	s5,20(sp)
    24ac:	d606                	sw	ra,44(sp)
    24ae:	89aa                	mv	s3,a0
    24b0:	8a2e                	mv	s4,a1
    24b2:	01095913          	srli	s2,s2,0x10
    24b6:	80c1                	srli	s1,s1,0x10
    24b8:	4401                	li	s0,0
    24ba:	60040ab7          	lui	s5,0x60040
    24be:	00946b63          	bltu	s0,s1,24d4 <LCD_Color_Fill+0x46>
    24c2:	50b2                	lw	ra,44(sp)
    24c4:	5422                	lw	s0,40(sp)
    24c6:	5492                	lw	s1,36(sp)
    24c8:	5902                	lw	s2,32(sp)
    24ca:	49f2                	lw	s3,28(sp)
    24cc:	4a62                	lw	s4,24(sp)
    24ce:	4ad2                	lw	s5,20(sp)
    24d0:	6145                	addi	sp,sp,48
    24d2:	8082                	ret
    24d4:	014405b3          	add	a1,s0,s4
    24d8:	05c2                	slli	a1,a1,0x10
    24da:	81c1                	srli	a1,a1,0x10
    24dc:	854e                	mv	a0,s3
    24de:	c63a                	sw	a4,12(sp)
    24e0:	d22fe0ef          	jal	ra,a02 <LCD_SetCursor>
    24e4:	d10fe0ef          	jal	ra,9f4 <LCD_WriteRAM_Prepare>
    24e8:	4732                	lw	a4,12(sp)
    24ea:	4781                	li	a5,0
    24ec:	0127e663          	bltu	a5,s2,24f8 <LCD_Color_Fill+0x6a>
    24f0:	0405                	addi	s0,s0,1
    24f2:	0442                	slli	s0,s0,0x10
    24f4:	8041                	srli	s0,s0,0x10
    24f6:	b7e1                	j	24be <LCD_Color_Fill+0x30>
    24f8:	0785                	addi	a5,a5,1
    24fa:	07c2                	slli	a5,a5,0x10
    24fc:	00ea9023          	sh	a4,0(s5) # 60040000 <_eusrstack+0x40038000>
    2500:	83c1                	srli	a5,a5,0x10
    2502:	b7ed                	j	24ec <LCD_Color_Fill+0x5e>

00002504 <LCD_DrawLine>:
    2504:	7139                	addi	sp,sp,-64
    2506:	dc22                	sw	s0,56(sp)
    2508:	da26                	sw	s1,52(sp)
    250a:	d05a                	sw	s6,32(sp)
    250c:	ce5e                	sw	s7,28(sp)
    250e:	ca66                	sw	s9,20(sp)
    2510:	de06                	sw	ra,60(sp)
    2512:	d84a                	sw	s2,48(sp)
    2514:	d64e                	sw	s3,44(sp)
    2516:	d452                	sw	s4,40(sp)
    2518:	d256                	sw	s5,36(sp)
    251a:	cc62                	sw	s8,24(sp)
    251c:	c86a                	sw	s10,16(sp)
    251e:	c66e                	sw	s11,12(sp)
    2520:	40a60433          	sub	s0,a2,a0
    2524:	8b2a                	mv	s6,a0
    2526:	8cae                	mv	s9,a1
    2528:	40b684b3          	sub	s1,a3,a1
    252c:	4b85                	li	s7,1
    252e:	00804763          	bgtz	s0,253c <LCD_DrawLine+0x38>
    2532:	4b81                	li	s7,0
    2534:	c401                	beqz	s0,253c <LCD_DrawLine+0x38>
    2536:	40c50433          	sub	s0,a0,a2
    253a:	5bfd                	li	s7,-1
    253c:	4c05                	li	s8,1
    253e:	00904763          	bgtz	s1,254c <LCD_DrawLine+0x48>
    2542:	4c01                	li	s8,0
    2544:	c481                	beqz	s1,254c <LCD_DrawLine+0x48>
    2546:	40d584b3          	sub	s1,a1,a3
    254a:	5c7d                	li	s8,-1
    254c:	8922                	mv	s2,s0
    254e:	00945363          	bge	s0,s1,2554 <LCD_DrawLine+0x50>
    2552:	8926                	mv	s2,s1
    2554:	6d41                	lui	s10,0x10
    2556:	4a81                	li	s5,0
    2558:	4a01                	li	s4,0
    255a:	4981                	li	s3,0
    255c:	00190d93          	addi	s11,s2,1
    2560:	1d7d                	addi	s10,s10,-1
    2562:	033dd163          	bge	s11,s3,2584 <LCD_DrawLine+0x80>
    2566:	50f2                	lw	ra,60(sp)
    2568:	5462                	lw	s0,56(sp)
    256a:	54d2                	lw	s1,52(sp)
    256c:	5942                	lw	s2,48(sp)
    256e:	59b2                	lw	s3,44(sp)
    2570:	5a22                	lw	s4,40(sp)
    2572:	5a92                	lw	s5,36(sp)
    2574:	5b02                	lw	s6,32(sp)
    2576:	4bf2                	lw	s7,28(sp)
    2578:	4c62                	lw	s8,24(sp)
    257a:	4cd2                	lw	s9,20(sp)
    257c:	4d42                	lw	s10,16(sp)
    257e:	4db2                	lw	s11,12(sp)
    2580:	6121                	addi	sp,sp,64
    2582:	8082                	ret
    2584:	010c9593          	slli	a1,s9,0x10
    2588:	010b1513          	slli	a0,s6,0x10
    258c:	866a                	mv	a2,s10
    258e:	81c1                	srli	a1,a1,0x10
    2590:	8141                	srli	a0,a0,0x10
    2592:	9a22                	add	s4,s4,s0
    2594:	3941                	jal	2224 <LCD_Fast_DrawPoint>
    2596:	9aa6                	add	s5,s5,s1
    2598:	01495563          	bge	s2,s4,25a2 <LCD_DrawLine+0x9e>
    259c:	412a0a33          	sub	s4,s4,s2
    25a0:	9b5e                	add	s6,s6,s7
    25a2:	01595563          	bge	s2,s5,25ac <LCD_DrawLine+0xa8>
    25a6:	412a8ab3          	sub	s5,s5,s2
    25aa:	9ce2                	add	s9,s9,s8
    25ac:	0985                	addi	s3,s3,1
    25ae:	09c2                	slli	s3,s3,0x10
    25b0:	0109d993          	srli	s3,s3,0x10
    25b4:	b77d                	j	2562 <LCD_DrawLine+0x5e>

000025b6 <LCD_DrawRectangle>:
    25b6:	1101                	addi	sp,sp,-32
    25b8:	cc22                	sw	s0,24(sp)
    25ba:	8436                	mv	s0,a3
    25bc:	86ae                	mv	a3,a1
    25be:	ce06                	sw	ra,28(sp)
    25c0:	ca26                	sw	s1,20(sp)
    25c2:	c84a                	sw	s2,16(sp)
    25c4:	c64e                	sw	s3,12(sp)
    25c6:	892a                	mv	s2,a0
    25c8:	89b2                	mv	s3,a2
    25ca:	84ae                	mv	s1,a1
    25cc:	3f25                	jal	2504 <LCD_DrawLine>
    25ce:	86a2                	mv	a3,s0
    25d0:	864a                	mv	a2,s2
    25d2:	85a6                	mv	a1,s1
    25d4:	854a                	mv	a0,s2
    25d6:	373d                	jal	2504 <LCD_DrawLine>
    25d8:	86a2                	mv	a3,s0
    25da:	864e                	mv	a2,s3
    25dc:	85a2                	mv	a1,s0
    25de:	854a                	mv	a0,s2
    25e0:	3715                	jal	2504 <LCD_DrawLine>
    25e2:	86a2                	mv	a3,s0
    25e4:	4462                	lw	s0,24(sp)
    25e6:	40f2                	lw	ra,28(sp)
    25e8:	4942                	lw	s2,16(sp)
    25ea:	864e                	mv	a2,s3
    25ec:	85a6                	mv	a1,s1
    25ee:	854e                	mv	a0,s3
    25f0:	44d2                	lw	s1,20(sp)
    25f2:	49b2                	lw	s3,12(sp)
    25f4:	6105                	addi	sp,sp,32
    25f6:	b739                	j	2504 <LCD_DrawLine>

000025f8 <LCD_Draw_Circle>:
    25f8:	715d                	addi	sp,sp,-80
    25fa:	c4a2                	sw	s0,72(sp)
    25fc:	de4e                	sw	s3,60(sp)
    25fe:	00161793          	slli	a5,a2,0x1
    2602:	498d                	li	s3,3
    2604:	6441                	lui	s0,0x10
    2606:	dc52                	sw	s4,56(sp)
    2608:	da56                	sw	s5,52(sp)
    260a:	d85a                	sw	s6,48(sp)
    260c:	d65e                	sw	s7,44(sp)
    260e:	c686                	sw	ra,76(sp)
    2610:	c2a6                	sw	s1,68(sp)
    2612:	c0ca                	sw	s2,64(sp)
    2614:	d462                	sw	s8,40(sp)
    2616:	d266                	sw	s9,36(sp)
    2618:	d06a                	sw	s10,32(sp)
    261a:	ce6e                	sw	s11,28(sp)
    261c:	8b2a                	mv	s6,a0
    261e:	8bae                	mv	s7,a1
    2620:	8ab2                	mv	s5,a2
    2622:	40f989b3          	sub	s3,s3,a5
    2626:	4a01                	li	s4,0
    2628:	147d                	addi	s0,s0,-1
    262a:	010a1913          	slli	s2,s4,0x10
    262e:	010a9493          	slli	s1,s5,0x10
    2632:	01095913          	srli	s2,s2,0x10
    2636:	80c1                	srli	s1,s1,0x10
    2638:	016907b3          	add	a5,s2,s6
    263c:	409b8cb3          	sub	s9,s7,s1
    2640:	07c2                	slli	a5,a5,0x10
    2642:	0cc2                	slli	s9,s9,0x10
    2644:	83c1                	srli	a5,a5,0x10
    2646:	010cdc93          	srli	s9,s9,0x10
    264a:	01648db3          	add	s11,s1,s6
    264e:	412b8c33          	sub	s8,s7,s2
    2652:	853e                	mv	a0,a5
    2654:	8622                	mv	a2,s0
    2656:	85e6                	mv	a1,s9
    2658:	0dc2                	slli	s11,s11,0x10
    265a:	0c42                	slli	s8,s8,0x10
    265c:	c63e                	sw	a5,12(sp)
    265e:	010ddd93          	srli	s11,s11,0x10
    2662:	36c9                	jal	2224 <LCD_Fast_DrawPoint>
    2664:	010c5c13          	srli	s8,s8,0x10
    2668:	01790d33          	add	s10,s2,s7
    266c:	856e                	mv	a0,s11
    266e:	8622                	mv	a2,s0
    2670:	85e2                	mv	a1,s8
    2672:	0d42                	slli	s10,s10,0x10
    2674:	3e45                	jal	2224 <LCD_Fast_DrawPoint>
    2676:	010d5d13          	srli	s10,s10,0x10
    267a:	856e                	mv	a0,s11
    267c:	8622                	mv	a2,s0
    267e:	85ea                	mv	a1,s10
    2680:	3655                	jal	2224 <LCD_Fast_DrawPoint>
    2682:	47b2                	lw	a5,12(sp)
    2684:	01748db3          	add	s11,s1,s7
    2688:	0dc2                	slli	s11,s11,0x10
    268a:	010ddd93          	srli	s11,s11,0x10
    268e:	412b0933          	sub	s2,s6,s2
    2692:	853e                	mv	a0,a5
    2694:	8622                	mv	a2,s0
    2696:	85ee                	mv	a1,s11
    2698:	0942                	slli	s2,s2,0x10
    269a:	3669                	jal	2224 <LCD_Fast_DrawPoint>
    269c:	01095913          	srli	s2,s2,0x10
    26a0:	409b04b3          	sub	s1,s6,s1
    26a4:	8622                	mv	a2,s0
    26a6:	85ee                	mv	a1,s11
    26a8:	854a                	mv	a0,s2
    26aa:	04c2                	slli	s1,s1,0x10
    26ac:	3ea5                	jal	2224 <LCD_Fast_DrawPoint>
    26ae:	80c1                	srli	s1,s1,0x10
    26b0:	8622                	mv	a2,s0
    26b2:	85ea                	mv	a1,s10
    26b4:	8526                	mv	a0,s1
    26b6:	36bd                	jal	2224 <LCD_Fast_DrawPoint>
    26b8:	8622                	mv	a2,s0
    26ba:	85e6                	mv	a1,s9
    26bc:	854a                	mv	a0,s2
    26be:	369d                	jal	2224 <LCD_Fast_DrawPoint>
    26c0:	8622                	mv	a2,s0
    26c2:	85e2                	mv	a1,s8
    26c4:	8526                	mv	a0,s1
    26c6:	3eb9                	jal	2224 <LCD_Fast_DrawPoint>
    26c8:	0a05                	addi	s4,s4,1
    26ca:	0209d763          	bgez	s3,26f8 <LCD_Draw_Circle+0x100>
    26ce:	002a1793          	slli	a5,s4,0x2
    26d2:	0799                	addi	a5,a5,6
    26d4:	99be                	add	s3,s3,a5
    26d6:	f54adae3          	bge	s5,s4,262a <LCD_Draw_Circle+0x32>
    26da:	40b6                	lw	ra,76(sp)
    26dc:	4426                	lw	s0,72(sp)
    26de:	4496                	lw	s1,68(sp)
    26e0:	4906                	lw	s2,64(sp)
    26e2:	59f2                	lw	s3,60(sp)
    26e4:	5a62                	lw	s4,56(sp)
    26e6:	5ad2                	lw	s5,52(sp)
    26e8:	5b42                	lw	s6,48(sp)
    26ea:	5bb2                	lw	s7,44(sp)
    26ec:	5c22                	lw	s8,40(sp)
    26ee:	5c92                	lw	s9,36(sp)
    26f0:	5d02                	lw	s10,32(sp)
    26f2:	4df2                	lw	s11,28(sp)
    26f4:	6161                	addi	sp,sp,80
    26f6:	8082                	ret
    26f8:	415a07b3          	sub	a5,s4,s5
    26fc:	078a                	slli	a5,a5,0x2
    26fe:	07a9                	addi	a5,a5,10
    2700:	99be                	add	s3,s3,a5
    2702:	1afd                	addi	s5,s5,-1
    2704:	bfc9                	j	26d6 <LCD_Draw_Circle+0xde>

00002706 <main>:
    2706:	c8010113          	addi	sp,sp,-896
    270a:	4509                	li	a0,2
    270c:	36112e23          	sw	ra,892(sp)
    2710:	36812c23          	sw	s0,888(sp)
    2714:	36912a23          	sw	s1,884(sp)
    2718:	40011437          	lui	s0,0x40011
    271c:	37212823          	sw	s2,880(sp)
    2720:	37312623          	sw	s3,876(sp)
    2724:	37512223          	sw	s5,868(sp)
    2728:	37612023          	sw	s6,864(sp)
    272c:	35912a23          	sw	s9,852(sp)
    2730:	37412423          	sw	s4,872(sp)
    2734:	35712e23          	sw	s7,860(sp)
    2738:	35812c23          	sw	s8,856(sp)
    273c:	787000ef          	jal	ra,36c2 <NVIC_PriorityGroupConfig>
    2740:	303000ef          	jal	ra,3242 <SystemCoreClockUpdate>
    2744:	61a010ef          	jal	ra,3d5e <Delay_Init>
    2748:	3fc010ef          	jal	ra,3b44 <USARTx_Init>
    274c:	38c010ef          	jal	ra,3ad8 <extix_init>
    2750:	a2efe0ef          	jal	ra,97e <LCD_Reset_GPIO_Init>
    2754:	65a1                	lui	a1,0x8
    2756:	80040513          	addi	a0,s0,-2048 # 40010800 <_eusrstack+0x20008800>
    275a:	72f000ef          	jal	ra,3688 <GPIO_ResetBits>
    275e:	06400513          	li	a0,100
    2762:	654010ef          	jal	ra,3db6 <Delay_Ms>
    2766:	65a1                	lui	a1,0x8
    2768:	80040513          	addi	a0,s0,-2048
    276c:	719000ef          	jal	ra,3684 <GPIO_SetBits>
    2770:	c20fe0ef          	jal	ra,b90 <LCD_Init>
    2774:	1328                	addi	a0,sp,424
    2776:	92efe0ef          	jal	ra,8a4 <initProductList>
    277a:	8a01a023          	sw	zero,-1888(gp) # 20000290 <current_product_weight>
    277e:	8a01ac23          	sw	zero,-1864(gp) # 200002a8 <weight>
    2782:	8801a423          	sw	zero,-1912(gp) # 20000278 <former_weight>
    2786:	22e1                	jal	294e <renderMainPage>
    2788:	0c800513          	li	a0,200
    278c:	62a010ef          	jal	ra,3db6 <Delay_Ms>
    2790:	c37fd0ef          	jal	ra,3c6 <HX711_GPIO_Init>
    2794:	4505                	li	a0,1
    2796:	620010ef          	jal	ra,3db6 <Delay_Ms>
    279a:	cc5fd0ef          	jal	ra,45e <HX711_ReadData>
    279e:	8aaa                	mv	s5,a0
    27a0:	0000ccb7          	lui	s9,0xc
    27a4:	00e4ea37          	lui	s4,0xe4e
    27a8:	0000dc37          	lui	s8,0xd
    27ac:	0000cbb7          	lui	s7,0xc
    27b0:	1bfa0a13          	addi	s4,s4,447 # e4e1bf <_data_lma+0xe41413>
    27b4:	dabfd0ef          	jal	ra,55e <Key_GetNum>
    27b8:	4795                	li	a5,5
    27ba:	0cf51563          	bne	a0,a5,2884 <main+0x17e>
    27be:	2ed1                	jal	2b92 <Pages_add>
    27c0:	40014537          	lui	a0,0x40014
    27c4:	4585                	li	a1,1
    27c6:	80050513          	addi	a0,a0,-2048 # 40013800 <_eusrstack+0x2000b800>
    27ca:	1f6010ef          	jal	ra,39c0 <USART_Cmd>
    27ce:	8ac1c783          	lbu	a5,-1876(gp) # 2000029c <numx>
    27d2:	0ff7f793          	andi	a5,a5,255
    27d6:	dfe5                	beqz	a5,27ce <main+0xc8>
    27d8:	e7e1c783          	lbu	a5,-386(gp) # 2000086e <recv_ok>
    27dc:	4705                	li	a4,1
    27de:	fcf71be3          	bne	a4,a5,27b4 <main+0xae>
    27e2:	40004537          	lui	a0,0x40004
    27e6:	4585                	li	a1,1
    27e8:	40050513          	addi	a0,a0,1024 # 40004400 <_eusrstack+0x1fffc400>
    27ec:	1d4010ef          	jal	ra,39c0 <USART_Cmd>
    27f0:	7e0c8593          	addi	a1,s9,2016 # c7e0 <asc2_3216+0x17c0>
    27f4:	83018513          	addi	a0,gp,-2000 # 20000220 <uart_buf>
    27f8:	eb1fd0ef          	jal	ra,6a8 <L610_Pub>
    27fc:	6505                	lui	a0,0x1
    27fe:	9c450513          	addi	a0,a0,-1596 # 9c4 <LCD_RD_DATA+0x4>
    2802:	5b4010ef          	jal	ra,3db6 <Delay_Ms>
    2806:	1b08                	addi	a0,sp,432
    2808:	eb1fd0ef          	jal	ra,6b8 <L610_Recive>
    280c:	1a000613          	li	a2,416
    2810:	1b0c                	addi	a1,sp,432
    2812:	850a                	mv	a0,sp
    2814:	7f6010ef          	jal	ra,400a <memcpy>
    2818:	858a                	mv	a1,sp
    281a:	1328                	addi	a0,sp,424
    281c:	892fe0ef          	jal	ra,8ae <insertProduct>
    2820:	1a000613          	li	a2,416
    2824:	1b0c                	addi	a1,sp,432
    2826:	850a                	mv	a0,sp
    2828:	7e2010ef          	jal	ra,400a <memcpy>
    282c:	850a                	mv	a0,sp
    282e:	2925                	jal	2c66 <Pages_X_add>
    2830:	1b0c                	addi	a1,sp,432
    2832:	7e8b8513          	addi	a0,s7,2024 # c7e8 <asc2_3216+0x17c8>
    2836:	207010ef          	jal	ra,423c <iprintf>
    283a:	c25fd0ef          	jal	ra,45e <HX711_ReadData>
    283e:	8aa1ac23          	sw	a0,-1864(gp) # 200002a8 <weight>
    2842:	00aa6063          	bltu	s4,a0,2842 <main+0x13c>
    2846:	c19fd0ef          	jal	ra,45e <HX711_ReadData>
    284a:	10e00793          	li	a5,270
    284e:	41550533          	sub	a0,a0,s5
    2852:	02f55533          	divu	a0,a0,a5
    2856:	1a000613          	li	a2,416
    285a:	1b0c                	addi	a1,sp,432
    285c:	8aa1ac23          	sw	a0,-1864(gp) # 200002a8 <weight>
    2860:	850a                	mv	a0,sp
    2862:	7a8010ef          	jal	ra,400a <memcpy>
    2866:	850a                	mv	a0,sp
    2868:	c7ffd0ef          	jal	ra,4e6 <weight_check_add>
    286c:	e119                	bnez	a0,2872 <main+0x16c>
    286e:	07f000ef          	jal	ra,30ec <Pages_error>
    2872:	8b81a783          	lw	a5,-1864(gp) # 200002a8 <weight>
    2876:	8a018623          	sb	zero,-1876(gp) # 2000029c <numx>
    287a:	e6018f23          	sb	zero,-386(gp) # 2000086e <recv_ok>
    287e:	88f1a423          	sw	a5,-1912(gp) # 20000278 <former_weight>
    2882:	bf0d                	j	27b4 <main+0xae>
    2884:	4789                	li	a5,2
    2886:	0af51463          	bne	a0,a5,292e <main+0x228>
    288a:	29a5                	jal	2d02 <Pages_delete>
    288c:	40014537          	lui	a0,0x40014
    2890:	4585                	li	a1,1
    2892:	80050513          	addi	a0,a0,-2048 # 40013800 <_eusrstack+0x2000b800>
    2896:	12a010ef          	jal	ra,39c0 <USART_Cmd>
    289a:	8ac1c783          	lbu	a5,-1876(gp) # 2000029c <numx>
    289e:	0ff7f793          	andi	a5,a5,255
    28a2:	dfe5                	beqz	a5,289a <main+0x194>
    28a4:	e7e1c783          	lbu	a5,-386(gp) # 2000086e <recv_ok>
    28a8:	4705                	li	a4,1
    28aa:	f0f715e3          	bne	a4,a5,27b4 <main+0xae>
    28ae:	40004537          	lui	a0,0x40004
    28b2:	4585                	li	a1,1
    28b4:	40050513          	addi	a0,a0,1024 # 40004400 <_eusrstack+0x1fffc400>
    28b8:	108010ef          	jal	ra,39c0 <USART_Cmd>
    28bc:	808c0593          	addi	a1,s8,-2040 # c808 <asc2_3216+0x17e8>
    28c0:	83018513          	addi	a0,gp,-2000 # 20000220 <uart_buf>
    28c4:	de5fd0ef          	jal	ra,6a8 <L610_Pub>
    28c8:	6505                	lui	a0,0x1
    28ca:	9c450513          	addi	a0,a0,-1596 # 9c4 <LCD_RD_DATA+0x4>
    28ce:	4e8010ef          	jal	ra,3db6 <Delay_Ms>
    28d2:	1b08                	addi	a0,sp,432
    28d4:	de5fd0ef          	jal	ra,6b8 <L610_Recive>
    28d8:	1b0c                	addi	a1,sp,432
    28da:	1328                	addi	a0,sp,424
    28dc:	822fe0ef          	jal	ra,8fe <deleteProduct>
    28e0:	1a000613          	li	a2,416
    28e4:	1b0c                	addi	a1,sp,432
    28e6:	850a                	mv	a0,sp
    28e8:	722010ef          	jal	ra,400a <memcpy>
    28ec:	850a                	mv	a0,sp
    28ee:	21e5                	jal	2dd6 <Pages_X_delete>
    28f0:	1b0c                	addi	a1,sp,432
    28f2:	7e8b8513          	addi	a0,s7,2024
    28f6:	147010ef          	jal	ra,423c <iprintf>
    28fa:	b65fd0ef          	jal	ra,45e <HX711_ReadData>
    28fe:	8aa1ac23          	sw	a0,-1864(gp) # 200002a8 <weight>
    2902:	00aa6063          	bltu	s4,a0,2902 <main+0x1fc>
    2906:	b59fd0ef          	jal	ra,45e <HX711_ReadData>
    290a:	10e00793          	li	a5,270
    290e:	41550533          	sub	a0,a0,s5
    2912:	02f55533          	divu	a0,a0,a5
    2916:	1a000613          	li	a2,416
    291a:	1b0c                	addi	a1,sp,432
    291c:	8aa1ac23          	sw	a0,-1864(gp) # 200002a8 <weight>
    2920:	850a                	mv	a0,sp
    2922:	6e8010ef          	jal	ra,400a <memcpy>
    2926:	850a                	mv	a0,sp
    2928:	bfbfd0ef          	jal	ra,522 <weight_check_delete>
    292c:	b781                	j	286c <main+0x166>
    292e:	478d                	li	a5,3
    2930:	00f51963          	bne	a0,a5,2942 <main+0x23c>
    2934:	2b2d                	jal	2e6e <Pages_Pay>
    2936:	bdbd                	j	27b4 <main+0xae>
    2938:	4785                	li	a5,1
    293a:	e6f51de3          	bne	a0,a5,27b4 <main+0xae>
    293e:	2801                	jal	294e <renderMainPage>
    2940:	b595                	j	27a4 <main+0x9e>
    2942:	4791                	li	a5,4
    2944:	fef51ae3          	bne	a0,a5,2938 <main+0x232>
    2948:	1328                	addi	a0,sp,424
    294a:	2b49                	jal	2edc <renderCurrentProductsPage>
    294c:	b5a5                	j	27b4 <main+0xae>

0000294e <renderMainPage>:
    294e:	1141                	addi	sp,sp,-16
    2950:	4501                	li	a0,0
    2952:	c606                	sw	ra,12(sp)
    2954:	c422                	sw	s0,8(sp)
    2956:	9fcfe0ef          	jal	ra,b52 <LCD_Clear>
    295a:	6721                	lui	a4,0x8
    295c:	43070713          	addi	a4,a4,1072 # 8430 <__eqdf2+0x18>
    2960:	1c800693          	li	a3,456
    2964:	2f800613          	li	a2,760
    2968:	45e1                	li	a1,24
    296a:	02800513          	li	a0,40
    296e:	80019d23          	sh	zero,-2022(gp) # 2000020a <POINT_COLOR>
    2972:	b1dff0ef          	jal	ra,248e <LCD_Color_Fill>
    2976:	1c800693          	li	a3,456
    297a:	4651                	li	a2,20
    297c:	45e1                	li	a1,24
    297e:	4551                	li	a0,20
    2980:	b85ff0ef          	jal	ra,2504 <LCD_DrawLine>
    2984:	1dc00693          	li	a3,476
    2988:	2f800613          	li	a2,760
    298c:	1dc00593          	li	a1,476
    2990:	02800513          	li	a0,40
    2994:	b71ff0ef          	jal	ra,2504 <LCD_DrawLine>
    2998:	4691                	li	a3,4
    299a:	2f800613          	li	a2,760
    299e:	4591                	li	a1,4
    29a0:	02800513          	li	a0,40
    29a4:	b61ff0ef          	jal	ra,2504 <LCD_DrawLine>
    29a8:	1c800693          	li	a3,456
    29ac:	30c00613          	li	a2,780
    29b0:	45e1                	li	a1,24
    29b2:	30c00513          	li	a0,780
    29b6:	b4fff0ef          	jal	ra,2504 <LCD_DrawLine>
    29ba:	1c800693          	li	a3,456
    29be:	2f800613          	li	a2,760
    29c2:	45e1                	li	a1,24
    29c4:	02800513          	li	a0,40
    29c8:	befff0ef          	jal	ra,25b6 <LCD_DrawRectangle>
    29cc:	4651                	li	a2,20
    29ce:	45e1                	li	a1,24
    29d0:	02800513          	li	a0,40
    29d4:	3115                	jal	25f8 <LCD_Draw_Circle>
    29d6:	4651                	li	a2,20
    29d8:	1c800593          	li	a1,456
    29dc:	02800513          	li	a0,40
    29e0:	3921                	jal	25f8 <LCD_Draw_Circle>
    29e2:	4651                	li	a2,20
    29e4:	1c800593          	li	a1,456
    29e8:	2f800513          	li	a0,760
    29ec:	3131                	jal	25f8 <LCD_Draw_Circle>
    29ee:	4651                	li	a2,20
    29f0:	45e1                	li	a1,24
    29f2:	2f800513          	li	a0,760
    29f6:	c03ff0ef          	jal	ra,25f8 <LCD_Draw_Circle>
    29fa:	0000d7b7          	lui	a5,0xd
    29fe:	86878793          	addi	a5,a5,-1944 # c868 <asc2_3216+0x1848>
    2a02:	02000713          	li	a4,32
    2a06:	02000693          	li	a3,32
    2a0a:	12000613          	li	a2,288
    2a0e:	02800593          	li	a1,40
    2a12:	0fa00513          	li	a0,250
    2a16:	9f1ff0ef          	jal	ra,2406 <LCD_ShowString>
    2a1a:	6431                	lui	s0,0xc
    2a1c:	61840713          	addi	a4,s0,1560 # c618 <asc2_3216+0x15f8>
    2a20:	11e00693          	li	a3,286
    2a24:	10e00613          	li	a2,270
    2a28:	0a600593          	li	a1,166
    2a2c:	03c00513          	li	a0,60
    2a30:	a5fff0ef          	jal	ra,248e <LCD_Color_Fill>
    2a34:	61840713          	addi	a4,s0,1560
    2a38:	11e00693          	li	a3,286
    2a3c:	1f900613          	li	a2,505
    2a40:	0a600593          	li	a1,166
    2a44:	12700513          	li	a0,295
    2a48:	a47ff0ef          	jal	ra,248e <LCD_Color_Fill>
    2a4c:	61840713          	addi	a4,s0,1560
    2a50:	11e00693          	li	a3,286
    2a54:	2e400613          	li	a2,740
    2a58:	0a600593          	li	a1,166
    2a5c:	21200513          	li	a0,530
    2a60:	a2fff0ef          	jal	ra,248e <LCD_Color_Fill>
    2a64:	61840713          	addi	a4,s0,1560
    2a68:	1af00693          	li	a3,431
    2a6c:	10e00613          	li	a2,270
    2a70:	13700593          	li	a1,311
    2a74:	03c00513          	li	a0,60
    2a78:	a17ff0ef          	jal	ra,248e <LCD_Color_Fill>
    2a7c:	61840713          	addi	a4,s0,1560
    2a80:	1af00693          	li	a3,431
    2a84:	1f900613          	li	a2,505
    2a88:	13700593          	li	a1,311
    2a8c:	12700513          	li	a0,295
    2a90:	9ffff0ef          	jal	ra,248e <LCD_Color_Fill>
    2a94:	61840713          	addi	a4,s0,1560
    2a98:	1af00693          	li	a3,431
    2a9c:	2e400613          	li	a2,740
    2aa0:	13700593          	li	a1,311
    2aa4:	21200513          	li	a0,530
    2aa8:	9e7ff0ef          	jal	ra,248e <LCD_Color_Fill>
    2aac:	0000d7b7          	lui	a5,0xd
    2ab0:	87c78793          	addi	a5,a5,-1924 # c87c <asc2_3216+0x185c>
    2ab4:	02000713          	li	a4,32
    2ab8:	02000693          	li	a3,32
    2abc:	05000613          	li	a2,80
    2ac0:	0c800593          	li	a1,200
    2ac4:	06400513          	li	a0,100
    2ac8:	93fff0ef          	jal	ra,2406 <LCD_ShowString>
    2acc:	0000d7b7          	lui	a5,0xd
    2ad0:	88478793          	addi	a5,a5,-1916 # c884 <asc2_3216+0x1864>
    2ad4:	02000713          	li	a4,32
    2ad8:	02000693          	li	a3,32
    2adc:	08000613          	li	a2,128
    2ae0:	0c800593          	li	a1,200
    2ae4:	14000513          	li	a0,320
    2ae8:	91fff0ef          	jal	ra,2406 <LCD_ShowString>
    2aec:	0000d7b7          	lui	a5,0xd
    2af0:	89078793          	addi	a5,a5,-1904 # c890 <asc2_3216+0x1870>
    2af4:	02000713          	li	a4,32
    2af8:	02000693          	li	a3,32
    2afc:	05000613          	li	a2,80
    2b00:	0c800593          	li	a1,200
    2b04:	23a00513          	li	a0,570
    2b08:	8ffff0ef          	jal	ra,2406 <LCD_ShowString>
    2b0c:	0000d7b7          	lui	a5,0xd
    2b10:	89878793          	addi	a5,a5,-1896 # c898 <asc2_3216+0x1878>
    2b14:	02000713          	li	a4,32
    2b18:	02000693          	li	a3,32
    2b1c:	09000613          	li	a2,144
    2b20:	15900593          	li	a1,345
    2b24:	06400513          	li	a0,100
    2b28:	8dfff0ef          	jal	ra,2406 <LCD_ShowString>
    2b2c:	0000d7b7          	lui	a5,0xd
    2b30:	8a478793          	addi	a5,a5,-1884 # c8a4 <asc2_3216+0x1884>
    2b34:	02000713          	li	a4,32
    2b38:	02000693          	li	a3,32
    2b3c:	04000613          	li	a2,64
    2b40:	18100593          	li	a1,385
    2b44:	08200513          	li	a0,130
    2b48:	8bfff0ef          	jal	ra,2406 <LCD_ShowString>
    2b4c:	0000d7b7          	lui	a5,0xd
    2b50:	8ac78793          	addi	a5,a5,-1876 # c8ac <asc2_3216+0x188c>
    2b54:	02000713          	li	a4,32
    2b58:	02000693          	li	a3,32
    2b5c:	06000613          	li	a2,96
    2b60:	15900593          	li	a1,345
    2b64:	14000513          	li	a0,320
    2b68:	89fff0ef          	jal	ra,2406 <LCD_ShowString>
    2b6c:	4422                	lw	s0,8(sp)
    2b6e:	40b2                	lw	ra,12(sp)
    2b70:	0000d7b7          	lui	a5,0xd
    2b74:	8b478793          	addi	a5,a5,-1868 # c8b4 <asc2_3216+0x1894>
    2b78:	02000713          	li	a4,32
    2b7c:	02000693          	li	a3,32
    2b80:	05000613          	li	a2,80
    2b84:	15900593          	li	a1,345
    2b88:	23a00513          	li	a0,570
    2b8c:	0141                	addi	sp,sp,16
    2b8e:	879ff06f          	j	2406 <LCD_ShowString>

00002b92 <Pages_add>:
    2b92:	1141                	addi	sp,sp,-16
    2b94:	4501                	li	a0,0
    2b96:	c606                	sw	ra,12(sp)
    2b98:	fbbfd0ef          	jal	ra,b52 <LCD_Clear>
    2b9c:	6721                	lui	a4,0x8
    2b9e:	43070713          	addi	a4,a4,1072 # 8430 <__eqdf2+0x18>
    2ba2:	1c800693          	li	a3,456
    2ba6:	2f800613          	li	a2,760
    2baa:	45e1                	li	a1,24
    2bac:	02800513          	li	a0,40
    2bb0:	80019d23          	sh	zero,-2022(gp) # 2000020a <POINT_COLOR>
    2bb4:	8dbff0ef          	jal	ra,248e <LCD_Color_Fill>
    2bb8:	1c800693          	li	a3,456
    2bbc:	4651                	li	a2,20
    2bbe:	45e1                	li	a1,24
    2bc0:	4551                	li	a0,20
    2bc2:	943ff0ef          	jal	ra,2504 <LCD_DrawLine>
    2bc6:	1dc00693          	li	a3,476
    2bca:	2f800613          	li	a2,760
    2bce:	1dc00593          	li	a1,476
    2bd2:	02800513          	li	a0,40
    2bd6:	92fff0ef          	jal	ra,2504 <LCD_DrawLine>
    2bda:	4691                	li	a3,4
    2bdc:	2f800613          	li	a2,760
    2be0:	4591                	li	a1,4
    2be2:	02800513          	li	a0,40
    2be6:	91fff0ef          	jal	ra,2504 <LCD_DrawLine>
    2bea:	1c800693          	li	a3,456
    2bee:	30c00613          	li	a2,780
    2bf2:	45e1                	li	a1,24
    2bf4:	30c00513          	li	a0,780
    2bf8:	90dff0ef          	jal	ra,2504 <LCD_DrawLine>
    2bfc:	1c800693          	li	a3,456
    2c00:	2f800613          	li	a2,760
    2c04:	45e1                	li	a1,24
    2c06:	02800513          	li	a0,40
    2c0a:	9adff0ef          	jal	ra,25b6 <LCD_DrawRectangle>
    2c0e:	4651                	li	a2,20
    2c10:	45e1                	li	a1,24
    2c12:	02800513          	li	a0,40
    2c16:	9e3ff0ef          	jal	ra,25f8 <LCD_Draw_Circle>
    2c1a:	4651                	li	a2,20
    2c1c:	1c800593          	li	a1,456
    2c20:	02800513          	li	a0,40
    2c24:	9d5ff0ef          	jal	ra,25f8 <LCD_Draw_Circle>
    2c28:	4651                	li	a2,20
    2c2a:	1c800593          	li	a1,456
    2c2e:	2f800513          	li	a0,760
    2c32:	9c7ff0ef          	jal	ra,25f8 <LCD_Draw_Circle>
    2c36:	4651                	li	a2,20
    2c38:	45e1                	li	a1,24
    2c3a:	2f800513          	li	a0,760
    2c3e:	9bbff0ef          	jal	ra,25f8 <LCD_Draw_Circle>
    2c42:	40b2                	lw	ra,12(sp)
    2c44:	0000d7b7          	lui	a5,0xd
    2c48:	82878793          	addi	a5,a5,-2008 # c828 <asc2_3216+0x1808>
    2c4c:	02000713          	li	a4,32
    2c50:	02000693          	li	a3,32
    2c54:	0b000613          	li	a2,176
    2c58:	0fa00593          	li	a1,250
    2c5c:	0fa00513          	li	a0,250
    2c60:	0141                	addi	sp,sp,16
    2c62:	fa4ff06f          	j	2406 <LCD_ShowString>

00002c66 <Pages_X_add>:
    2c66:	7119                	addi	sp,sp,-128
    2c68:	daa6                	sw	s1,116(sp)
    2c6a:	64b1                	lui	s1,0xc
    2c6c:	dca2                	sw	s0,120(sp)
    2c6e:	842a                	mv	s0,a0
    2c70:	c4048513          	addi	a0,s1,-960 # bc40 <asc2_3216+0xc20>
    2c74:	de86                	sw	ra,124(sp)
    2c76:	eddfd0ef          	jal	ra,b52 <LCD_Clear>
    2c7a:	61848713          	addi	a4,s1,1560
    2c7e:	0f000693          	li	a3,240
    2c82:	25800613          	li	a2,600
    2c86:	07800593          	li	a1,120
    2c8a:	0c800513          	li	a0,200
    2c8e:	80019d23          	sh	zero,-2022(gp) # 2000020a <POINT_COLOR>
    2c92:	ffcff0ef          	jal	ra,248e <LCD_Color_Fill>
    2c96:	8522                	mv	a0,s0
    2c98:	680010ef          	jal	ra,4318 <strlen>
    2c9c:	00451613          	slli	a2,a0,0x4
    2ca0:	0642                	slli	a2,a2,0x10
    2ca2:	87a2                	mv	a5,s0
    2ca4:	02000713          	li	a4,32
    2ca8:	8241                	srli	a2,a2,0x10
    2caa:	02000693          	li	a3,32
    2cae:	0b400593          	li	a1,180
    2cb2:	0c800513          	li	a0,200
    2cb6:	f50ff0ef          	jal	ra,2406 <LCD_ShowString>
    2cba:	06544683          	lbu	a3,101(s0)
    2cbe:	0000d637          	lui	a2,0xd
    2cc2:	82060613          	addi	a2,a2,-2016 # c820 <asc2_3216+0x1800>
    2cc6:	06400593          	li	a1,100
    2cca:	0068                	addi	a0,sp,12
    2ccc:	5dc010ef          	jal	ra,42a8 <sniprintf>
    2cd0:	007c                	addi	a5,sp,12
    2cd2:	02000713          	li	a4,32
    2cd6:	02000693          	li	a3,32
    2cda:	05000613          	li	a2,80
    2cde:	0c800593          	li	a1,200
    2ce2:	0c800513          	li	a0,200
    2ce6:	f20ff0ef          	jal	ra,2406 <LCD_ShowString>
    2cea:	6505                	lui	a0,0x1
    2cec:	fa050513          	addi	a0,a0,-96 # fa0 <LCD_Init+0x410>
    2cf0:	0c6010ef          	jal	ra,3db6 <Delay_Ms>
    2cf4:	c5bff0ef          	jal	ra,294e <renderMainPage>
    2cf8:	50f6                	lw	ra,124(sp)
    2cfa:	5466                	lw	s0,120(sp)
    2cfc:	54d6                	lw	s1,116(sp)
    2cfe:	6109                	addi	sp,sp,128
    2d00:	8082                	ret

00002d02 <Pages_delete>:
    2d02:	1141                	addi	sp,sp,-16
    2d04:	4501                	li	a0,0
    2d06:	c606                	sw	ra,12(sp)
    2d08:	e4bfd0ef          	jal	ra,b52 <LCD_Clear>
    2d0c:	6721                	lui	a4,0x8
    2d0e:	43070713          	addi	a4,a4,1072 # 8430 <__eqdf2+0x18>
    2d12:	1c800693          	li	a3,456
    2d16:	2f800613          	li	a2,760
    2d1a:	45e1                	li	a1,24
    2d1c:	02800513          	li	a0,40
    2d20:	80019d23          	sh	zero,-2022(gp) # 2000020a <POINT_COLOR>
    2d24:	f6aff0ef          	jal	ra,248e <LCD_Color_Fill>
    2d28:	1c800693          	li	a3,456
    2d2c:	4651                	li	a2,20
    2d2e:	45e1                	li	a1,24
    2d30:	4551                	li	a0,20
    2d32:	fd2ff0ef          	jal	ra,2504 <LCD_DrawLine>
    2d36:	1dc00693          	li	a3,476
    2d3a:	2f800613          	li	a2,760
    2d3e:	1dc00593          	li	a1,476
    2d42:	02800513          	li	a0,40
    2d46:	fbeff0ef          	jal	ra,2504 <LCD_DrawLine>
    2d4a:	4691                	li	a3,4
    2d4c:	2f800613          	li	a2,760
    2d50:	4591                	li	a1,4
    2d52:	02800513          	li	a0,40
    2d56:	faeff0ef          	jal	ra,2504 <LCD_DrawLine>
    2d5a:	1c800693          	li	a3,456
    2d5e:	30c00613          	li	a2,780
    2d62:	45e1                	li	a1,24
    2d64:	30c00513          	li	a0,780
    2d68:	f9cff0ef          	jal	ra,2504 <LCD_DrawLine>
    2d6c:	1c800693          	li	a3,456
    2d70:	2f800613          	li	a2,760
    2d74:	45e1                	li	a1,24
    2d76:	02800513          	li	a0,40
    2d7a:	83dff0ef          	jal	ra,25b6 <LCD_DrawRectangle>
    2d7e:	4651                	li	a2,20
    2d80:	45e1                	li	a1,24
    2d82:	02800513          	li	a0,40
    2d86:	873ff0ef          	jal	ra,25f8 <LCD_Draw_Circle>
    2d8a:	4651                	li	a2,20
    2d8c:	1c800593          	li	a1,456
    2d90:	02800513          	li	a0,40
    2d94:	865ff0ef          	jal	ra,25f8 <LCD_Draw_Circle>
    2d98:	4651                	li	a2,20
    2d9a:	1c800593          	li	a1,456
    2d9e:	2f800513          	li	a0,760
    2da2:	857ff0ef          	jal	ra,25f8 <LCD_Draw_Circle>
    2da6:	4651                	li	a2,20
    2da8:	45e1                	li	a1,24
    2daa:	2f800513          	li	a0,760
    2dae:	84bff0ef          	jal	ra,25f8 <LCD_Draw_Circle>
    2db2:	40b2                	lw	ra,12(sp)
    2db4:	0000d7b7          	lui	a5,0xd
    2db8:	82878793          	addi	a5,a5,-2008 # c828 <asc2_3216+0x1808>
    2dbc:	02000713          	li	a4,32
    2dc0:	02000693          	li	a3,32
    2dc4:	0b000613          	li	a2,176
    2dc8:	02800593          	li	a1,40
    2dcc:	0fa00513          	li	a0,250
    2dd0:	0141                	addi	sp,sp,16
    2dd2:	e34ff06f          	j	2406 <LCD_ShowString>

00002dd6 <Pages_X_delete>:
    2dd6:	7119                	addi	sp,sp,-128
    2dd8:	dca2                	sw	s0,120(sp)
    2dda:	842a                	mv	s0,a0
    2ddc:	6541                	lui	a0,0x10
    2dde:	157d                	addi	a0,a0,-1
    2de0:	de86                	sw	ra,124(sp)
    2de2:	d71fd0ef          	jal	ra,b52 <LCD_Clear>
    2de6:	6731                	lui	a4,0xc
    2de8:	61870713          	addi	a4,a4,1560 # c618 <asc2_3216+0x15f8>
    2dec:	0f000693          	li	a3,240
    2df0:	25800613          	li	a2,600
    2df4:	07800593          	li	a1,120
    2df8:	0c800513          	li	a0,200
    2dfc:	80019d23          	sh	zero,-2022(gp) # 2000020a <POINT_COLOR>
    2e00:	e8eff0ef          	jal	ra,248e <LCD_Color_Fill>
    2e04:	8522                	mv	a0,s0
    2e06:	512010ef          	jal	ra,4318 <strlen>
    2e0a:	00451613          	slli	a2,a0,0x4
    2e0e:	0642                	slli	a2,a2,0x10
    2e10:	87a2                	mv	a5,s0
    2e12:	02000713          	li	a4,32
    2e16:	8241                	srli	a2,a2,0x10
    2e18:	02000693          	li	a3,32
    2e1c:	0b400593          	li	a1,180
    2e20:	0c800513          	li	a0,200
    2e24:	de2ff0ef          	jal	ra,2406 <LCD_ShowString>
    2e28:	06544683          	lbu	a3,101(s0)
    2e2c:	0000d637          	lui	a2,0xd
    2e30:	82060613          	addi	a2,a2,-2016 # c820 <asc2_3216+0x1800>
    2e34:	06400593          	li	a1,100
    2e38:	0068                	addi	a0,sp,12
    2e3a:	46e010ef          	jal	ra,42a8 <sniprintf>
    2e3e:	007c                	addi	a5,sp,12
    2e40:	02000713          	li	a4,32
    2e44:	02000693          	li	a3,32
    2e48:	05000613          	li	a2,80
    2e4c:	0c800593          	li	a1,200
    2e50:	0c800513          	li	a0,200
    2e54:	db2ff0ef          	jal	ra,2406 <LCD_ShowString>
    2e58:	6505                	lui	a0,0x1
    2e5a:	fa050513          	addi	a0,a0,-96 # fa0 <LCD_Init+0x410>
    2e5e:	759000ef          	jal	ra,3db6 <Delay_Ms>
    2e62:	aedff0ef          	jal	ra,294e <renderMainPage>
    2e66:	50f6                	lw	ra,124(sp)
    2e68:	5466                	lw	s0,120(sp)
    2e6a:	6109                	addi	sp,sp,128
    2e6c:	8082                	ret

00002e6e <Pages_Pay>:
    2e6e:	6541                	lui	a0,0x10
    2e70:	1141                	addi	sp,sp,-16
    2e72:	157d                	addi	a0,a0,-1
    2e74:	c606                	sw	ra,12(sp)
    2e76:	cddfd0ef          	jal	ra,b52 <LCD_Clear>
    2e7a:	6721                	lui	a4,0x8
    2e7c:	43070713          	addi	a4,a4,1072 # 8430 <__eqdf2+0x18>
    2e80:	0f000693          	li	a3,240
    2e84:	25800613          	li	a2,600
    2e88:	07800593          	li	a1,120
    2e8c:	0c800513          	li	a0,200
    2e90:	80019d23          	sh	zero,-2022(gp) # 2000020a <POINT_COLOR>
    2e94:	dfaff0ef          	jal	ra,248e <LCD_Color_Fill>
    2e98:	0000d7b7          	lui	a5,0xd
    2e9c:	80c78793          	addi	a5,a5,-2036 # c80c <asc2_3216+0x17ec>
    2ea0:	02000713          	li	a4,32
    2ea4:	02000693          	li	a3,32
    2ea8:	0a000613          	li	a2,160
    2eac:	0b400593          	li	a1,180
    2eb0:	0fa00513          	li	a0,250
    2eb4:	d52ff0ef          	jal	ra,2406 <LCD_ShowString>
    2eb8:	40b2                	lw	ra,12(sp)
    2eba:	0000d7b7          	lui	a5,0xd
    2ebe:	81878793          	addi	a5,a5,-2024 # c818 <asc2_3216+0x17f8>
    2ec2:	02000713          	li	a4,32
    2ec6:	02000693          	li	a3,32
    2eca:	07000613          	li	a2,112
    2ece:	19000593          	li	a1,400
    2ed2:	12c00513          	li	a0,300
    2ed6:	0141                	addi	sp,sp,16
    2ed8:	d2eff06f          	j	2406 <LCD_ShowString>

00002edc <renderCurrentProductsPage>:
    2edc:	7169                	addi	sp,sp,-304
    2ede:	12812423          	sw	s0,296(sp)
    2ee2:	11312e23          	sw	s3,284(sp)
    2ee6:	11412c23          	sw	s4,280(sp)
    2eea:	11512a23          	sw	s5,276(sp)
    2eee:	11612823          	sw	s6,272(sp)
    2ef2:	12112623          	sw	ra,300(sp)
    2ef6:	12912223          	sw	s1,292(sp)
    2efa:	13212023          	sw	s2,288(sp)
    2efe:	11712623          	sw	s7,268(sp)
    2f02:	11812423          	sw	s8,264(sp)
    2f06:	00054903          	lbu	s2,0(a0) # 10000 <_data_lma+0x3254>
    2f0a:	4140                	lw	s0,4(a0)
    2f0c:	4501                	li	a0,0
    2f0e:	c45fd0ef          	jal	ra,b52 <LCD_Clear>
    2f12:	80019d23          	sh	zero,-2022(gp) # 2000020a <POINT_COLOR>
    2f16:	0000db37          	lui	s6,0xd
    2f1a:	0000d9b7          	lui	s3,0xd
    2f1e:	0000da37          	lui	s4,0xd
    2f22:	0000dab7          	lui	s5,0xd
    2f26:	47a9                	li	a5,10
    2f28:	0327ea63          	bltu	a5,s2,2f5c <renderCurrentProductsPage+0x80>
    2f2c:	1a091463          	bnez	s2,30d4 <renderCurrentProductsPage+0x1f8>
    2f30:	12c12083          	lw	ra,300(sp)
    2f34:	12812403          	lw	s0,296(sp)
    2f38:	12412483          	lw	s1,292(sp)
    2f3c:	12012903          	lw	s2,288(sp)
    2f40:	11c12983          	lw	s3,284(sp)
    2f44:	11812a03          	lw	s4,280(sp)
    2f48:	11412a83          	lw	s5,276(sp)
    2f4c:	11012b03          	lw	s6,272(sp)
    2f50:	10c12b83          	lw	s7,268(sp)
    2f54:	10812c03          	lw	s8,264(sp)
    2f58:	6155                	addi	sp,sp,304
    2f5a:	8082                	ret
    2f5c:	09100493          	li	s1,145
    2f60:	1ef00b93          	li	s7,495
    2f64:	c845                	beqz	s0,3014 <renderCurrentProductsPage+0x138>
    2f66:	06640693          	addi	a3,s0,102
    2f6a:	844b0613          	addi	a2,s6,-1980 # c844 <asc2_3216+0x1824>
    2f6e:	10000593          	li	a1,256
    2f72:	850a                	mv	a0,sp
    2f74:	334010ef          	jal	ra,42a8 <sniprintf>
    2f78:	850a                	mv	a0,sp
    2f7a:	39e010ef          	jal	ra,4318 <strlen>
    2f7e:	00451613          	slli	a2,a0,0x4
    2f82:	0642                	slli	a2,a2,0x10
    2f84:	878a                	mv	a5,sp
    2f86:	02000713          	li	a4,32
    2f8a:	85a6                	mv	a1,s1
    2f8c:	8241                	srli	a2,a2,0x10
    2f8e:	02000693          	li	a3,32
    2f92:	03200513          	li	a0,50
    2f96:	c70ff0ef          	jal	ra,2406 <LCD_ShowString>
    2f9a:	19444683          	lbu	a3,404(s0)
    2f9e:	85098613          	addi	a2,s3,-1968 # c850 <asc2_3216+0x1830>
    2fa2:	10000593          	li	a1,256
    2fa6:	850a                	mv	a0,sp
    2fa8:	300010ef          	jal	ra,42a8 <sniprintf>
    2fac:	850a                	mv	a0,sp
    2fae:	36a010ef          	jal	ra,4318 <strlen>
    2fb2:	00451613          	slli	a2,a0,0x4
    2fb6:	0642                	slli	a2,a2,0x10
    2fb8:	858a0793          	addi	a5,s4,-1960 # c858 <asc2_3216+0x1838>
    2fbc:	02000713          	li	a4,32
    2fc0:	85a6                	mv	a1,s1
    2fc2:	8241                	srli	a2,a2,0x10
    2fc4:	02000693          	li	a3,32
    2fc8:	0fa00513          	li	a0,250
    2fcc:	c3aff0ef          	jal	ra,2406 <LCD_ShowString>
    2fd0:	0cc40693          	addi	a3,s0,204
    2fd4:	85ca8613          	addi	a2,s5,-1956 # c85c <asc2_3216+0x183c>
    2fd8:	10000593          	li	a1,256
    2fdc:	850a                	mv	a0,sp
    2fde:	2ca010ef          	jal	ra,42a8 <sniprintf>
    2fe2:	850a                	mv	a0,sp
    2fe4:	334010ef          	jal	ra,4318 <strlen>
    2fe8:	00451613          	slli	a2,a0,0x4
    2fec:	85a6                	mv	a1,s1
    2fee:	02348493          	addi	s1,s1,35
    2ff2:	0642                	slli	a2,a2,0x10
    2ff4:	04c2                	slli	s1,s1,0x10
    2ff6:	8241                	srli	a2,a2,0x10
    2ff8:	878a                	mv	a5,sp
    2ffa:	02000713          	li	a4,32
    2ffe:	02000693          	li	a3,32
    3002:	1f400513          	li	a0,500
    3006:	80c1                	srli	s1,s1,0x10
    3008:	bfeff0ef          	jal	ra,2406 <LCD_ShowString>
    300c:	19842403          	lw	s0,408(s0)
    3010:	f5749ae3          	bne	s1,s7,2f64 <renderCurrentProductsPage+0x88>
    3014:	1959                	addi	s2,s2,-10
    3016:	0ff97913          	andi	s2,s2,255
    301a:	b731                	j	2f26 <renderCurrentProductsPage+0x4a>
    301c:	034984b3          	mul	s1,s3,s4
    3020:	06640693          	addi	a3,s0,102
    3024:	844c0613          	addi	a2,s8,-1980
    3028:	10000593          	li	a1,256
    302c:	850a                	mv	a0,sp
    302e:	27a010ef          	jal	ra,42a8 <sniprintf>
    3032:	850a                	mv	a0,sp
    3034:	2e4010ef          	jal	ra,4318 <strlen>
    3038:	00451613          	slli	a2,a0,0x4
    303c:	0642                	slli	a2,a2,0x10
    303e:	06e48493          	addi	s1,s1,110
    3042:	04c2                	slli	s1,s1,0x10
    3044:	80c1                	srli	s1,s1,0x10
    3046:	878a                	mv	a5,sp
    3048:	02000713          	li	a4,32
    304c:	8241                	srli	a2,a2,0x10
    304e:	02000693          	li	a3,32
    3052:	85a6                	mv	a1,s1
    3054:	03200513          	li	a0,50
    3058:	baeff0ef          	jal	ra,2406 <LCD_ShowString>
    305c:	19444683          	lbu	a3,404(s0)
    3060:	850a8613          	addi	a2,s5,-1968
    3064:	10000593          	li	a1,256
    3068:	850a                	mv	a0,sp
    306a:	23e010ef          	jal	ra,42a8 <sniprintf>
    306e:	850a                	mv	a0,sp
    3070:	2a8010ef          	jal	ra,4318 <strlen>
    3074:	00451613          	slli	a2,a0,0x4
    3078:	0642                	slli	a2,a2,0x10
    307a:	858b0793          	addi	a5,s6,-1960
    307e:	02000713          	li	a4,32
    3082:	8241                	srli	a2,a2,0x10
    3084:	02000693          	li	a3,32
    3088:	85a6                	mv	a1,s1
    308a:	0fa00513          	li	a0,250
    308e:	b78ff0ef          	jal	ra,2406 <LCD_ShowString>
    3092:	0cc40693          	addi	a3,s0,204
    3096:	85cb8613          	addi	a2,s7,-1956
    309a:	10000593          	li	a1,256
    309e:	850a                	mv	a0,sp
    30a0:	208010ef          	jal	ra,42a8 <sniprintf>
    30a4:	850a                	mv	a0,sp
    30a6:	272010ef          	jal	ra,4318 <strlen>
    30aa:	00451613          	slli	a2,a0,0x4
    30ae:	0642                	slli	a2,a2,0x10
    30b0:	8241                	srli	a2,a2,0x10
    30b2:	878a                	mv	a5,sp
    30b4:	02000713          	li	a4,32
    30b8:	02000693          	li	a3,32
    30bc:	85a6                	mv	a1,s1
    30be:	1f400513          	li	a0,500
    30c2:	0985                	addi	s3,s3,1
    30c4:	b42ff0ef          	jal	ra,2406 <LCD_ShowString>
    30c8:	19842403          	lw	s0,408(s0)
    30cc:	e73942e3          	blt	s2,s3,2f30 <renderCurrentProductsPage+0x54>
    30d0:	f431                	bnez	s0,301c <renderCurrentProductsPage+0x140>
    30d2:	bdb9                	j	2f30 <renderCurrentProductsPage+0x54>
    30d4:	4985                	li	s3,1
    30d6:	0000dc37          	lui	s8,0xd
    30da:	02300a13          	li	s4,35
    30de:	0000dab7          	lui	s5,0xd
    30e2:	0000db37          	lui	s6,0xd
    30e6:	0000dbb7          	lui	s7,0xd
    30ea:	b7dd                	j	30d0 <renderCurrentProductsPage+0x1f4>

000030ec <Pages_error>:
    30ec:	6541                	lui	a0,0x10
    30ee:	1141                	addi	sp,sp,-16
    30f0:	157d                	addi	a0,a0,-1
    30f2:	c606                	sw	ra,12(sp)
    30f4:	a5ffd0ef          	jal	ra,b52 <LCD_Clear>
    30f8:	6731                	lui	a4,0xc
    30fa:	61870713          	addi	a4,a4,1560 # c618 <asc2_3216+0x15f8>
    30fe:	0f000693          	li	a3,240
    3102:	25800613          	li	a2,600
    3106:	07800593          	li	a1,120
    310a:	0c800513          	li	a0,200
    310e:	80019d23          	sh	zero,-2022(gp) # 2000020a <POINT_COLOR>
    3112:	b7cff0ef          	jal	ra,248e <LCD_Color_Fill>
    3116:	0000d7b7          	lui	a5,0xd
    311a:	83478793          	addi	a5,a5,-1996 # c834 <asc2_3216+0x1814>
    311e:	02000713          	li	a4,32
    3122:	02000693          	li	a3,32
    3126:	0d000613          	li	a2,208
    312a:	0b400593          	li	a1,180
    312e:	0c800513          	li	a0,200
    3132:	ad4ff0ef          	jal	ra,2406 <LCD_ShowString>
    3136:	6505                	lui	a0,0x1
    3138:	fa050513          	addi	a0,a0,-96 # fa0 <LCD_Init+0x410>
    313c:	47b000ef          	jal	ra,3db6 <Delay_Ms>
    3140:	40b2                	lw	ra,12(sp)
    3142:	0141                	addi	sp,sp,16
    3144:	80bff06f          	j	294e <renderMainPage>

00003148 <SystemInit>:
    3148:	400217b7          	lui	a5,0x40021
    314c:	4398                	lw	a4,0(a5)
    314e:	f8ff06b7          	lui	a3,0xf8ff0
    3152:	1141                	addi	sp,sp,-16
    3154:	00176713          	ori	a4,a4,1
    3158:	c398                	sw	a4,0(a5)
    315a:	43d8                	lw	a4,4(a5)
    315c:	00020637          	lui	a2,0x20
    3160:	8f75                	and	a4,a4,a3
    3162:	c3d8                	sw	a4,4(a5)
    3164:	4398                	lw	a4,0(a5)
    3166:	fef706b7          	lui	a3,0xfef70
    316a:	16fd                	addi	a3,a3,-1
    316c:	8f75                	and	a4,a4,a3
    316e:	c398                	sw	a4,0(a5)
    3170:	4398                	lw	a4,0(a5)
    3172:	fffc06b7          	lui	a3,0xfffc0
    3176:	16fd                	addi	a3,a3,-1
    3178:	8f75                	and	a4,a4,a3
    317a:	c398                	sw	a4,0(a5)
    317c:	43d8                	lw	a4,4(a5)
    317e:	ff8106b7          	lui	a3,0xff810
    3182:	16fd                	addi	a3,a3,-1
    3184:	8f75                	and	a4,a4,a3
    3186:	c3d8                	sw	a4,4(a5)
    3188:	4398                	lw	a4,0(a5)
    318a:	ec0006b7          	lui	a3,0xec000
    318e:	16fd                	addi	a3,a3,-1
    3190:	8f75                	and	a4,a4,a3
    3192:	c398                	sw	a4,0(a5)
    3194:	00ff0737          	lui	a4,0xff0
    3198:	c798                	sw	a4,8(a5)
    319a:	0207a623          	sw	zero,44(a5) # 4002102c <_eusrstack+0x2001902c>
    319e:	c402                	sw	zero,8(sp)
    31a0:	c602                	sw	zero,12(sp)
    31a2:	4398                	lw	a4,0(a5)
    31a4:	66c1                	lui	a3,0x10
    31a6:	8f55                	or	a4,a4,a3
    31a8:	c398                	sw	a4,0(a5)
    31aa:	400216b7          	lui	a3,0x40021
    31ae:	6705                	lui	a4,0x1
    31b0:	429c                	lw	a5,0(a3)
    31b2:	8ff1                	and	a5,a5,a2
    31b4:	c63e                	sw	a5,12(sp)
    31b6:	47a2                	lw	a5,8(sp)
    31b8:	0785                	addi	a5,a5,1
    31ba:	c43e                	sw	a5,8(sp)
    31bc:	47b2                	lw	a5,12(sp)
    31be:	e781                	bnez	a5,31c6 <SystemInit+0x7e>
    31c0:	47a2                	lw	a5,8(sp)
    31c2:	fee797e3          	bne	a5,a4,31b0 <SystemInit+0x68>
    31c6:	400217b7          	lui	a5,0x40021
    31ca:	439c                	lw	a5,0(a5)
    31cc:	00e79713          	slli	a4,a5,0xe
    31d0:	06075763          	bgez	a4,323e <SystemInit+0xf6>
    31d4:	4785                	li	a5,1
    31d6:	c63e                	sw	a5,12(sp)
    31d8:	4732                	lw	a4,12(sp)
    31da:	4785                	li	a5,1
    31dc:	04f71f63          	bne	a4,a5,323a <SystemInit+0xf2>
    31e0:	400217b7          	lui	a5,0x40021
    31e4:	43d8                	lw	a4,4(a5)
    31e6:	ffc106b7          	lui	a3,0xffc10
    31ea:	16fd                	addi	a3,a3,-1
    31ec:	c3d8                	sw	a4,4(a5)
    31ee:	43d8                	lw	a4,4(a5)
    31f0:	c3d8                	sw	a4,4(a5)
    31f2:	43d8                	lw	a4,4(a5)
    31f4:	40076713          	ori	a4,a4,1024
    31f8:	c3d8                	sw	a4,4(a5)
    31fa:	43d8                	lw	a4,4(a5)
    31fc:	8f75                	and	a4,a4,a3
    31fe:	c3d8                	sw	a4,4(a5)
    3200:	43d8                	lw	a4,4(a5)
    3202:	001d06b7          	lui	a3,0x1d0
    3206:	8f55                	or	a4,a4,a3
    3208:	c3d8                	sw	a4,4(a5)
    320a:	4398                	lw	a4,0(a5)
    320c:	010006b7          	lui	a3,0x1000
    3210:	8f55                	or	a4,a4,a3
    3212:	c398                	sw	a4,0(a5)
    3214:	4398                	lw	a4,0(a5)
    3216:	00671693          	slli	a3,a4,0x6
    321a:	fe06dde3          	bgez	a3,3214 <SystemInit+0xcc>
    321e:	43d8                	lw	a4,4(a5)
    3220:	400216b7          	lui	a3,0x40021
    3224:	9b71                	andi	a4,a4,-4
    3226:	c3d8                	sw	a4,4(a5)
    3228:	43d8                	lw	a4,4(a5)
    322a:	00276713          	ori	a4,a4,2
    322e:	c3d8                	sw	a4,4(a5)
    3230:	4721                	li	a4,8
    3232:	42dc                	lw	a5,4(a3)
    3234:	8bb1                	andi	a5,a5,12
    3236:	fee79ee3          	bne	a5,a4,3232 <SystemInit+0xea>
    323a:	0141                	addi	sp,sp,16
    323c:	8082                	ret
    323e:	c602                	sw	zero,12(sp)
    3240:	bf61                	j	31d8 <SystemInit+0x90>

00003242 <SystemCoreClockUpdate>:
    3242:	40021637          	lui	a2,0x40021
    3246:	425c                	lw	a5,4(a2)
    3248:	4691                	li	a3,4
    324a:	8bb1                	andi	a5,a5,12
    324c:	80418713          	addi	a4,gp,-2044 # 200001f4 <SystemCoreClock>
    3250:	00d78563          	beq	a5,a3,325a <SystemCoreClockUpdate+0x18>
    3254:	46a1                	li	a3,8
    3256:	02d78963          	beq	a5,a3,3288 <SystemCoreClockUpdate+0x46>
    325a:	007a17b7          	lui	a5,0x7a1
    325e:	20078793          	addi	a5,a5,512 # 7a1200 <_data_lma+0x794454>
    3262:	c31c                	sw	a5,0(a4)
    3264:	400217b7          	lui	a5,0x40021
    3268:	43dc                	lw	a5,4(a5)
    326a:	8391                	srli	a5,a5,0x4
    326c:	00f7f693          	andi	a3,a5,15
    3270:	200007b7          	lui	a5,0x20000
    3274:	00078793          	mv	a5,a5
    3278:	97b6                	add	a5,a5,a3
    327a:	0007c683          	lbu	a3,0(a5) # 20000000 <_data_vma>
    327e:	431c                	lw	a5,0(a4)
    3280:	00d7d7b3          	srl	a5,a5,a3
    3284:	c31c                	sw	a5,0(a4)
    3286:	8082                	ret
    3288:	4254                	lw	a3,4(a2)
    328a:	4250                	lw	a2,4(a2)
    328c:	67c1                	lui	a5,0x10
    328e:	82c9                	srli	a3,a3,0x12
    3290:	8abd                	andi	a3,a3,15
    3292:	8e7d                	and	a2,a2,a5
    3294:	00268793          	addi	a5,a3,2 # 40021002 <_eusrstack+0x20019002>
    3298:	ca85                	beqz	a3,32c8 <SystemCoreClockUpdate+0x86>
    329a:	46bd                	li	a3,15
    329c:	02d78963          	beq	a5,a3,32ce <SystemCoreClockUpdate+0x8c>
    32a0:	46c1                	li	a3,16
    32a2:	02d78963          	beq	a5,a3,32d4 <SystemCoreClockUpdate+0x92>
    32a6:	45c5                	li	a1,17
    32a8:	4681                	li	a3,0
    32aa:	00b79363          	bne	a5,a1,32b0 <SystemCoreClockUpdate+0x6e>
    32ae:	47c1                	li	a5,16
    32b0:	e60d                	bnez	a2,32da <SystemCoreClockUpdate+0x98>
    32b2:	003d1637          	lui	a2,0x3d1
    32b6:	90060613          	addi	a2,a2,-1792 # 3d0900 <_data_lma+0x3c3b54>
    32ba:	02c787b3          	mul	a5,a5,a2
    32be:	c31c                	sw	a5,0(a4)
    32c0:	d2d5                	beqz	a3,3264 <SystemCoreClockUpdate+0x22>
    32c2:	431c                	lw	a5,0(a4)
    32c4:	8385                	srli	a5,a5,0x1
    32c6:	bf71                	j	3262 <SystemCoreClockUpdate+0x20>
    32c8:	4681                	li	a3,0
    32ca:	47c9                	li	a5,18
    32cc:	b7d5                	j	32b0 <SystemCoreClockUpdate+0x6e>
    32ce:	4685                	li	a3,1
    32d0:	47b5                	li	a5,13
    32d2:	bff9                	j	32b0 <SystemCoreClockUpdate+0x6e>
    32d4:	4681                	li	a3,0
    32d6:	47bd                	li	a5,15
    32d8:	bfe1                	j	32b0 <SystemCoreClockUpdate+0x6e>
    32da:	40021637          	lui	a2,0x40021
    32de:	4250                	lw	a2,4(a2)
    32e0:	00e61593          	slli	a1,a2,0xe
    32e4:	fc05c7e3          	bltz	a1,32b2 <SystemCoreClockUpdate+0x70>
    32e8:	007a1637          	lui	a2,0x7a1
    32ec:	20060613          	addi	a2,a2,512 # 7a1200 <_data_lma+0x794454>
    32f0:	b7e9                	j	32ba <SystemCoreClockUpdate+0x78>
    32f2:	a001                	j	32f2 <SystemCoreClockUpdate+0xb0>
    32f4:	a001                	j	32f4 <SystemCoreClockUpdate+0xb2>

000032f6 <Ecall_M_Mode_Handler>:
    32f6:	a001                	j	32f6 <Ecall_M_Mode_Handler>

000032f8 <Ecall_U_Mode_Handler>:
    32f8:	a001                	j	32f8 <Ecall_U_Mode_Handler>

000032fa <Break_Point_Handler>:
    32fa:	a001                	j	32fa <Break_Point_Handler>

000032fc <SysTick_Handler>:
    32fc:	a001                	j	32fc <SysTick_Handler>

000032fe <SW_Handler>:
    32fe:	a001                	j	32fe <SW_Handler>

00003300 <WWDG_IRQHandler>:
    3300:	a001                	j	3300 <WWDG_IRQHandler>

00003302 <PVD_IRQHandler>:
    3302:	a001                	j	3302 <PVD_IRQHandler>

00003304 <TAMPER_IRQHandler>:
    3304:	a001                	j	3304 <TAMPER_IRQHandler>

00003306 <RTC_IRQHandler>:
    3306:	a001                	j	3306 <RTC_IRQHandler>

00003308 <FLASH_IRQHandler>:
    3308:	a001                	j	3308 <FLASH_IRQHandler>

0000330a <RCC_IRQHandler>:
    330a:	a001                	j	330a <RCC_IRQHandler>

0000330c <EXTI0_IRQHandler>:
    330c:	a001                	j	330c <EXTI0_IRQHandler>

0000330e <EXTI1_IRQHandler>:
    330e:	a001                	j	330e <EXTI1_IRQHandler>

00003310 <EXTI2_IRQHandler>:
    3310:	a001                	j	3310 <EXTI2_IRQHandler>

00003312 <EXTI3_IRQHandler>:
    3312:	a001                	j	3312 <EXTI3_IRQHandler>
    3314:	a001                	j	3314 <EXTI3_IRQHandler+0x2>

00003316 <DMA1_Channel1_IRQHandler>:
    3316:	a001                	j	3316 <DMA1_Channel1_IRQHandler>

00003318 <DMA1_Channel2_IRQHandler>:
    3318:	a001                	j	3318 <DMA1_Channel2_IRQHandler>

0000331a <DMA1_Channel3_IRQHandler>:
    331a:	a001                	j	331a <DMA1_Channel3_IRQHandler>

0000331c <DMA1_Channel4_IRQHandler>:
    331c:	a001                	j	331c <DMA1_Channel4_IRQHandler>

0000331e <DMA1_Channel5_IRQHandler>:
    331e:	a001                	j	331e <DMA1_Channel5_IRQHandler>

00003320 <DMA1_Channel6_IRQHandler>:
    3320:	a001                	j	3320 <DMA1_Channel6_IRQHandler>

00003322 <DMA1_Channel7_IRQHandler>:
    3322:	a001                	j	3322 <DMA1_Channel7_IRQHandler>

00003324 <ADC1_2_IRQHandler>:
    3324:	a001                	j	3324 <ADC1_2_IRQHandler>

00003326 <USB_HP_CAN1_TX_IRQHandler>:
    3326:	a001                	j	3326 <USB_HP_CAN1_TX_IRQHandler>

00003328 <USB_LP_CAN1_RX0_IRQHandler>:
    3328:	a001                	j	3328 <USB_LP_CAN1_RX0_IRQHandler>

0000332a <CAN1_RX1_IRQHandler>:
    332a:	a001                	j	332a <CAN1_RX1_IRQHandler>

0000332c <CAN1_SCE_IRQHandler>:
    332c:	a001                	j	332c <CAN1_SCE_IRQHandler>

0000332e <EXTI9_5_IRQHandler>:
    332e:	a001                	j	332e <EXTI9_5_IRQHandler>

00003330 <TIM1_BRK_IRQHandler>:
    3330:	a001                	j	3330 <TIM1_BRK_IRQHandler>

00003332 <TIM1_UP_IRQHandler>:
    3332:	a001                	j	3332 <TIM1_UP_IRQHandler>

00003334 <TIM1_TRG_COM_IRQHandler>:
    3334:	a001                	j	3334 <TIM1_TRG_COM_IRQHandler>

00003336 <TIM1_CC_IRQHandler>:
    3336:	a001                	j	3336 <TIM1_CC_IRQHandler>

00003338 <TIM2_IRQHandler>:
    3338:	a001                	j	3338 <TIM2_IRQHandler>

0000333a <TIM3_IRQHandler>:
    333a:	a001                	j	333a <TIM3_IRQHandler>

0000333c <TIM4_IRQHandler>:
    333c:	a001                	j	333c <TIM4_IRQHandler>

0000333e <I2C1_EV_IRQHandler>:
    333e:	a001                	j	333e <I2C1_EV_IRQHandler>

00003340 <I2C1_ER_IRQHandler>:
    3340:	a001                	j	3340 <I2C1_ER_IRQHandler>

00003342 <I2C2_EV_IRQHandler>:
    3342:	a001                	j	3342 <I2C2_EV_IRQHandler>

00003344 <I2C2_ER_IRQHandler>:
    3344:	a001                	j	3344 <I2C2_ER_IRQHandler>

00003346 <SPI1_IRQHandler>:
    3346:	a001                	j	3346 <SPI1_IRQHandler>

00003348 <SPI2_IRQHandler>:
    3348:	a001                	j	3348 <SPI2_IRQHandler>
    334a:	a001                	j	334a <SPI2_IRQHandler+0x2>
    334c:	a001                	j	334c <SPI2_IRQHandler+0x4>

0000334e <USART3_IRQHandler>:
    334e:	a001                	j	334e <USART3_IRQHandler>

00003350 <EXTI15_10_IRQHandler>:
    3350:	a001                	j	3350 <EXTI15_10_IRQHandler>

00003352 <RTCAlarm_IRQHandler>:
    3352:	a001                	j	3352 <RTCAlarm_IRQHandler>

00003354 <USBWakeUp_IRQHandler>:
    3354:	a001                	j	3354 <USBWakeUp_IRQHandler>

00003356 <TIM8_BRK_IRQHandler>:
    3356:	a001                	j	3356 <TIM8_BRK_IRQHandler>

00003358 <TIM8_UP_IRQHandler>:
    3358:	a001                	j	3358 <TIM8_UP_IRQHandler>

0000335a <TIM8_TRG_COM_IRQHandler>:
    335a:	a001                	j	335a <TIM8_TRG_COM_IRQHandler>

0000335c <TIM8_CC_IRQHandler>:
    335c:	a001                	j	335c <TIM8_CC_IRQHandler>

0000335e <RNG_IRQHandler>:
    335e:	a001                	j	335e <RNG_IRQHandler>

00003360 <FSMC_IRQHandler>:
    3360:	a001                	j	3360 <FSMC_IRQHandler>

00003362 <SDIO_IRQHandler>:
    3362:	a001                	j	3362 <SDIO_IRQHandler>

00003364 <TIM5_IRQHandler>:
    3364:	a001                	j	3364 <TIM5_IRQHandler>

00003366 <SPI3_IRQHandler>:
    3366:	a001                	j	3366 <SPI3_IRQHandler>

00003368 <UART4_IRQHandler>:
    3368:	a001                	j	3368 <UART4_IRQHandler>

0000336a <UART5_IRQHandler>:
    336a:	a001                	j	336a <UART5_IRQHandler>

0000336c <TIM6_IRQHandler>:
    336c:	a001                	j	336c <TIM6_IRQHandler>

0000336e <TIM7_IRQHandler>:
    336e:	a001                	j	336e <TIM7_IRQHandler>

00003370 <DMA2_Channel1_IRQHandler>:
    3370:	a001                	j	3370 <DMA2_Channel1_IRQHandler>

00003372 <DMA2_Channel2_IRQHandler>:
    3372:	a001                	j	3372 <DMA2_Channel2_IRQHandler>

00003374 <DMA2_Channel3_IRQHandler>:
    3374:	a001                	j	3374 <DMA2_Channel3_IRQHandler>

00003376 <DMA2_Channel4_IRQHandler>:
    3376:	a001                	j	3376 <DMA2_Channel4_IRQHandler>

00003378 <DMA2_Channel5_IRQHandler>:
    3378:	a001                	j	3378 <DMA2_Channel5_IRQHandler>

0000337a <ETH_IRQHandler>:
    337a:	a001                	j	337a <ETH_IRQHandler>

0000337c <ETH_WKUP_IRQHandler>:
    337c:	a001                	j	337c <ETH_WKUP_IRQHandler>

0000337e <CAN2_TX_IRQHandler>:
    337e:	a001                	j	337e <CAN2_TX_IRQHandler>

00003380 <CAN2_RX0_IRQHandler>:
    3380:	a001                	j	3380 <CAN2_RX0_IRQHandler>

00003382 <CAN2_RX1_IRQHandler>:
    3382:	a001                	j	3382 <CAN2_RX1_IRQHandler>

00003384 <CAN2_SCE_IRQHandler>:
    3384:	a001                	j	3384 <CAN2_SCE_IRQHandler>

00003386 <OTG_FS_IRQHandler>:
    3386:	a001                	j	3386 <OTG_FS_IRQHandler>

00003388 <USBHSWakeup_IRQHandler>:
    3388:	a001                	j	3388 <USBHSWakeup_IRQHandler>

0000338a <USBHS_IRQHandler>:
    338a:	a001                	j	338a <USBHS_IRQHandler>

0000338c <DVP_IRQHandler>:
    338c:	a001                	j	338c <DVP_IRQHandler>

0000338e <UART6_IRQHandler>:
    338e:	a001                	j	338e <UART6_IRQHandler>

00003390 <UART7_IRQHandler>:
    3390:	a001                	j	3390 <UART7_IRQHandler>

00003392 <UART8_IRQHandler>:
    3392:	a001                	j	3392 <UART8_IRQHandler>

00003394 <TIM9_BRK_IRQHandler>:
    3394:	a001                	j	3394 <TIM9_BRK_IRQHandler>

00003396 <TIM9_UP_IRQHandler>:
    3396:	a001                	j	3396 <TIM9_UP_IRQHandler>

00003398 <TIM9_TRG_COM_IRQHandler>:
    3398:	a001                	j	3398 <TIM9_TRG_COM_IRQHandler>

0000339a <TIM9_CC_IRQHandler>:
    339a:	a001                	j	339a <TIM9_CC_IRQHandler>

0000339c <TIM10_BRK_IRQHandler>:
    339c:	a001                	j	339c <TIM10_BRK_IRQHandler>

0000339e <TIM10_UP_IRQHandler>:
    339e:	a001                	j	339e <TIM10_UP_IRQHandler>

000033a0 <TIM10_TRG_COM_IRQHandler>:
    33a0:	a001                	j	33a0 <TIM10_TRG_COM_IRQHandler>

000033a2 <TIM10_CC_IRQHandler>:
    33a2:	a001                	j	33a2 <TIM10_CC_IRQHandler>

000033a4 <DMA2_Channel6_IRQHandler>:
    33a4:	a001                	j	33a4 <DMA2_Channel6_IRQHandler>

000033a6 <DMA2_Channel7_IRQHandler>:
    33a6:	a001                	j	33a6 <DMA2_Channel7_IRQHandler>

000033a8 <DMA2_Channel8_IRQHandler>:
    33a8:	a001                	j	33a8 <DMA2_Channel8_IRQHandler>

000033aa <DMA2_Channel9_IRQHandler>:
    33aa:	a001                	j	33aa <DMA2_Channel9_IRQHandler>

000033ac <DMA2_Channel10_IRQHandler>:
    33ac:	a001                	j	33ac <DMA2_Channel10_IRQHandler>

000033ae <DMA2_Channel11_IRQHandler>:
    33ae:	a001                	j	33ae <DMA2_Channel11_IRQHandler>

000033b0 <handle_reset>:
    33b0:	1fffd197          	auipc	gp,0x1fffd
    33b4:	64018193          	addi	gp,gp,1600 # 200009f0 <__global_pointer$>
    33b8:	20005117          	auipc	sp,0x20005
    33bc:	c4810113          	addi	sp,sp,-952 # 20008000 <_eusrstack>
    33c0:	0000a517          	auipc	a0,0xa
    33c4:	9ec50513          	addi	a0,a0,-1556 # cdac <_data_lma>
    33c8:	1fffd597          	auipc	a1,0x1fffd
    33cc:	c3858593          	addi	a1,a1,-968 # 20000000 <_data_vma>
    33d0:	81818613          	addi	a2,gp,-2024 # 20000208 <_edata>
    33d4:	00c5fa63          	bgeu	a1,a2,33e8 <handle_reset+0x38>
    33d8:	00052283          	lw	t0,0(a0)
    33dc:	0055a023          	sw	t0,0(a1)
    33e0:	0511                	addi	a0,a0,4
    33e2:	0591                	addi	a1,a1,4
    33e4:	fec5eae3          	bltu	a1,a2,33d8 <handle_reset+0x28>
    33e8:	81818513          	addi	a0,gp,-2024 # 20000208 <_edata>
    33ec:	e8818593          	addi	a1,gp,-376 # 20000878 <_ebss>
    33f0:	00b57763          	bgeu	a0,a1,33fe <handle_reset+0x4e>
    33f4:	00052023          	sw	zero,0(a0)
    33f8:	0511                	addi	a0,a0,4
    33fa:	feb56de3          	bltu	a0,a1,33f4 <handle_reset+0x44>
    33fe:	42fd                	li	t0,31
    3400:	bc029073          	csrw	0xbc0,t0
    3404:	42fd                	li	t0,31
    3406:	80429073          	csrw	0x804,t0
    340a:	000062b7          	lui	t0,0x6
    340e:	08828293          	addi	t0,t0,136 # 6088 <_Balloc+0x2>
    3412:	3002a073          	csrs	mstatus,t0
    3416:	ffffd297          	auipc	t0,0xffffd
    341a:	c2228293          	addi	t0,t0,-990 # 38 <_einit>
    341e:	0032e293          	ori	t0,t0,3
    3422:	30529073          	csrw	mtvec,t0
    3426:	d23ff0ef          	jal	ra,3148 <SystemInit>
    342a:	fffff297          	auipc	t0,0xfffff
    342e:	2dc28293          	addi	t0,t0,732 # 2706 <main>
    3432:	34129073          	csrw	mepc,t0
    3436:	30200073          	mret

0000343a <DMA_Cmd>:
    343a:	411c                	lw	a5,0(a0)
    343c:	c589                	beqz	a1,3446 <DMA_Cmd+0xc>
    343e:	0017e793          	ori	a5,a5,1
    3442:	c11c                	sw	a5,0(a0)
    3444:	8082                	ret
    3446:	6741                	lui	a4,0x10
    3448:	1779                	addi	a4,a4,-2
    344a:	8ff9                	and	a5,a5,a4
    344c:	bfdd                	j	3442 <DMA_Cmd+0x8>

0000344e <EXTI_Init>:
    344e:	4158                	lw	a4,4(a0)
    3450:	00052803          	lw	a6,0(a0)
    3454:	454c                	lw	a1,12(a0)
    3456:	40010637          	lui	a2,0x40010
    345a:	40060793          	addi	a5,a2,1024 # 40010400 <_eusrstack+0x20008400>
    345e:	973e                	add	a4,a4,a5
    3460:	fff84693          	not	a3,a6
    3464:	c5b1                	beqz	a1,34b0 <EXTI_Init+0x62>
    3466:	40062583          	lw	a1,1024(a2)
    346a:	8df5                	and	a1,a1,a3
    346c:	40b62023          	sw	a1,1024(a2)
    3470:	43d0                	lw	a2,4(a5)
    3472:	8ef1                	and	a3,a3,a2
    3474:	c3d4                	sw	a3,4(a5)
    3476:	4314                	lw	a3,0(a4)
    3478:	0106e6b3          	or	a3,a3,a6
    347c:	c314                	sw	a3,0(a4)
    347e:	4118                	lw	a4,0(a0)
    3480:	4790                	lw	a2,8(a5)
    3482:	fff74693          	not	a3,a4
    3486:	8e75                	and	a2,a2,a3
    3488:	c790                	sw	a2,8(a5)
    348a:	47d0                	lw	a2,12(a5)
    348c:	8ef1                	and	a3,a3,a2
    348e:	c7d4                	sw	a3,12(a5)
    3490:	4514                	lw	a3,8(a0)
    3492:	4641                	li	a2,16
    3494:	00c69963          	bne	a3,a2,34a6 <EXTI_Init+0x58>
    3498:	4794                	lw	a3,8(a5)
    349a:	8ed9                	or	a3,a3,a4
    349c:	c794                	sw	a3,8(a5)
    349e:	47d4                	lw	a3,12(a5)
    34a0:	8f55                	or	a4,a4,a3
    34a2:	c7d8                	sw	a4,12(a5)
    34a4:	8082                	ret
    34a6:	97b6                	add	a5,a5,a3
    34a8:	4394                	lw	a3,0(a5)
    34aa:	8f55                	or	a4,a4,a3
    34ac:	c398                	sw	a4,0(a5)
    34ae:	8082                	ret
    34b0:	431c                	lw	a5,0(a4)
    34b2:	8ff5                	and	a5,a5,a3
    34b4:	c31c                	sw	a5,0(a4)
    34b6:	8082                	ret

000034b8 <EXTI_GetITStatus>:
    34b8:	400107b7          	lui	a5,0x40010
    34bc:	40078713          	addi	a4,a5,1024 # 40010400 <_eusrstack+0x20008400>
    34c0:	4007a783          	lw	a5,1024(a5)
    34c4:	4b58                	lw	a4,20(a4)
    34c6:	8f69                	and	a4,a4,a0
    34c8:	c709                	beqz	a4,34d2 <EXTI_GetITStatus+0x1a>
    34ca:	8d7d                	and	a0,a0,a5
    34cc:	00a03533          	snez	a0,a0
    34d0:	8082                	ret
    34d2:	4501                	li	a0,0
    34d4:	8082                	ret

000034d6 <EXTI_ClearITPendingBit>:
    34d6:	400107b7          	lui	a5,0x40010
    34da:	40a7aa23          	sw	a0,1044(a5) # 40010414 <_eusrstack+0x20008414>
    34de:	8082                	ret

000034e0 <FSMC_NORSRAMInit>:
    34e0:	4514                	lw	a3,8(a0)
    34e2:	415c                	lw	a5,4(a0)
    34e4:	4558                	lw	a4,12(a0)
    34e6:	02c52803          	lw	a6,44(a0)
    34ea:	8fd5                	or	a5,a5,a3
    34ec:	8fd9                	or	a5,a5,a4
    34ee:	4918                	lw	a4,16(a0)
    34f0:	a0000637          	lui	a2,0xa0000
    34f4:	8fd9                	or	a5,a5,a4
    34f6:	4958                	lw	a4,20(a0)
    34f8:	8fd9                	or	a5,a5,a4
    34fa:	4d18                	lw	a4,24(a0)
    34fc:	8fd9                	or	a5,a5,a4
    34fe:	4d58                	lw	a4,28(a0)
    3500:	8fd9                	or	a5,a5,a4
    3502:	5118                	lw	a4,32(a0)
    3504:	8fd9                	or	a5,a5,a4
    3506:	5158                	lw	a4,36(a0)
    3508:	8fd9                	or	a5,a5,a4
    350a:	5518                	lw	a4,40(a0)
    350c:	8fd9                	or	a5,a5,a4
    350e:	5918                	lw	a4,48(a0)
    3510:	0107e7b3          	or	a5,a5,a6
    3514:	8fd9                	or	a5,a5,a4
    3516:	4118                	lw	a4,0(a0)
    3518:	070a                	slli	a4,a4,0x2
    351a:	963a                	add	a2,a2,a4
    351c:	c21c                	sw	a5,0(a2)
    351e:	47a1                	li	a5,8
    3520:	00f69663          	bne	a3,a5,352c <FSMC_NORSRAMInit+0x4c>
    3524:	421c                	lw	a5,0(a2)
    3526:	0407e793          	ori	a5,a5,64
    352a:	c21c                	sw	a5,0(a2)
    352c:	5954                	lw	a3,52(a0)
    352e:	4e8c                	lw	a1,24(a3)
    3530:	429c                	lw	a5,0(a3)
    3532:	8fcd                	or	a5,a5,a1
    3534:	42cc                	lw	a1,4(a3)
    3536:	0592                	slli	a1,a1,0x4
    3538:	8fcd                	or	a5,a5,a1
    353a:	468c                	lw	a1,8(a3)
    353c:	05a2                	slli	a1,a1,0x8
    353e:	8fcd                	or	a5,a5,a1
    3540:	46cc                	lw	a1,12(a3)
    3542:	05c2                	slli	a1,a1,0x10
    3544:	8fcd                	or	a5,a5,a1
    3546:	4a8c                	lw	a1,16(a3)
    3548:	4ad4                	lw	a3,20(a3)
    354a:	05d2                	slli	a1,a1,0x14
    354c:	8fcd                	or	a5,a5,a1
    354e:	06e2                	slli	a3,a3,0x18
    3550:	8fd5                	or	a5,a5,a3
    3552:	c25c                	sw	a5,4(a2)
    3554:	6791                	lui	a5,0x4
    3556:	02f81963          	bne	a6,a5,3588 <FSMC_NORSRAMInit+0xa8>
    355a:	5d14                	lw	a3,56(a0)
    355c:	4e90                	lw	a2,24(a3)
    355e:	429c                	lw	a5,0(a3)
    3560:	8fd1                	or	a5,a5,a2
    3562:	42d0                	lw	a2,4(a3)
    3564:	0612                	slli	a2,a2,0x4
    3566:	8fd1                	or	a5,a5,a2
    3568:	4690                	lw	a2,8(a3)
    356a:	0622                	slli	a2,a2,0x8
    356c:	8fd1                	or	a5,a5,a2
    356e:	4a90                	lw	a2,16(a3)
    3570:	4ad4                	lw	a3,20(a3)
    3572:	0652                	slli	a2,a2,0x14
    3574:	06e2                	slli	a3,a3,0x18
    3576:	8fd1                	or	a5,a5,a2
    3578:	8fd5                	or	a5,a5,a3
    357a:	a00006b7          	lui	a3,0xa0000
    357e:	10468693          	addi	a3,a3,260 # a0000104 <_eusrstack+0x7fff8104>
    3582:	9736                	add	a4,a4,a3
    3584:	c31c                	sw	a5,0(a4)
    3586:	8082                	ret
    3588:	a00007b7          	lui	a5,0xa0000
    358c:	10478793          	addi	a5,a5,260 # a0000104 <_eusrstack+0x7fff8104>
    3590:	973e                	add	a4,a4,a5
    3592:	100007b7          	lui	a5,0x10000
    3596:	17fd                	addi	a5,a5,-1
    3598:	b7f5                	j	3584 <FSMC_NORSRAMInit+0xa4>

0000359a <FSMC_NORSRAMCmd>:
    359a:	a00007b7          	lui	a5,0xa0000
    359e:	050a                	slli	a0,a0,0x2
    35a0:	953e                	add	a0,a0,a5
    35a2:	411c                	lw	a5,0(a0)
    35a4:	c589                	beqz	a1,35ae <FSMC_NORSRAMCmd+0x14>
    35a6:	0017e793          	ori	a5,a5,1
    35aa:	c11c                	sw	a5,0(a0)
    35ac:	8082                	ret
    35ae:	00100737          	lui	a4,0x100
    35b2:	1779                	addi	a4,a4,-2
    35b4:	8ff9                	and	a5,a5,a4
    35b6:	bfd5                	j	35aa <FSMC_NORSRAMCmd+0x10>

000035b8 <GPIO_Init>:
    35b8:	459c                	lw	a5,8(a1)
    35ba:	0107f713          	andi	a4,a5,16
    35be:	00f7f813          	andi	a6,a5,15
    35c2:	c701                	beqz	a4,35ca <GPIO_Init+0x12>
    35c4:	41d8                	lw	a4,4(a1)
    35c6:	00e86833          	or	a6,a6,a4
    35ca:	0005d583          	lhu	a1,0(a1)
    35ce:	0ff5f713          	andi	a4,a1,255
    35d2:	c339                	beqz	a4,3618 <GPIO_Init+0x60>
    35d4:	4118                	lw	a4,0(a0)
    35d6:	4681                	li	a3,0
    35d8:	4e85                	li	t4,1
    35da:	4f3d                	li	t5,15
    35dc:	02800f93          	li	t6,40
    35e0:	04800293          	li	t0,72
    35e4:	4e21                	li	t3,8
    35e6:	00de9633          	sll	a2,t4,a3
    35ea:	00c5f8b3          	and	a7,a1,a2
    35ee:	03161163          	bne	a2,a7,3610 <GPIO_Init+0x58>
    35f2:	00269893          	slli	a7,a3,0x2
    35f6:	011f1333          	sll	t1,t5,a7
    35fa:	fff34313          	not	t1,t1
    35fe:	00e37733          	and	a4,t1,a4
    3602:	011818b3          	sll	a7,a6,a7
    3606:	00e8e733          	or	a4,a7,a4
    360a:	05f79f63          	bne	a5,t6,3668 <GPIO_Init+0xb0>
    360e:	c950                	sw	a2,20(a0)
    3610:	0685                	addi	a3,a3,1
    3612:	fdc69ae3          	bne	a3,t3,35e6 <GPIO_Init+0x2e>
    3616:	c118                	sw	a4,0(a0)
    3618:	0ff00713          	li	a4,255
    361c:	04b77563          	bgeu	a4,a1,3666 <GPIO_Init+0xae>
    3620:	4154                	lw	a3,4(a0)
    3622:	4621                	li	a2,8
    3624:	4e85                	li	t4,1
    3626:	4f3d                	li	t5,15
    3628:	02800f93          	li	t6,40
    362c:	04800293          	li	t0,72
    3630:	4e41                	li	t3,16
    3632:	00ce98b3          	sll	a7,t4,a2
    3636:	0115f733          	and	a4,a1,a7
    363a:	02e89263          	bne	a7,a4,365e <GPIO_Init+0xa6>
    363e:	00261713          	slli	a4,a2,0x2
    3642:	1701                	addi	a4,a4,-32
    3644:	00ef1333          	sll	t1,t5,a4
    3648:	fff34313          	not	t1,t1
    364c:	00d376b3          	and	a3,t1,a3
    3650:	00e81733          	sll	a4,a6,a4
    3654:	8ed9                	or	a3,a3,a4
    3656:	01f79d63          	bne	a5,t6,3670 <GPIO_Init+0xb8>
    365a:	01152a23          	sw	a7,20(a0)
    365e:	0605                	addi	a2,a2,1
    3660:	fdc619e3          	bne	a2,t3,3632 <GPIO_Init+0x7a>
    3664:	c154                	sw	a3,4(a0)
    3666:	8082                	ret
    3668:	fa5794e3          	bne	a5,t0,3610 <GPIO_Init+0x58>
    366c:	c910                	sw	a2,16(a0)
    366e:	b74d                	j	3610 <GPIO_Init+0x58>
    3670:	fe5797e3          	bne	a5,t0,365e <GPIO_Init+0xa6>
    3674:	01152823          	sw	a7,16(a0)
    3678:	b7dd                	j	365e <GPIO_Init+0xa6>

0000367a <GPIO_ReadInputDataBit>:
    367a:	4508                	lw	a0,8(a0)
    367c:	8d6d                	and	a0,a0,a1
    367e:	00a03533          	snez	a0,a0
    3682:	8082                	ret

00003684 <GPIO_SetBits>:
    3684:	c90c                	sw	a1,16(a0)
    3686:	8082                	ret

00003688 <GPIO_ResetBits>:
    3688:	c94c                	sw	a1,20(a0)
    368a:	8082                	ret

0000368c <GPIO_WriteBit>:
    368c:	c219                	beqz	a2,3692 <GPIO_WriteBit+0x6>
    368e:	c90c                	sw	a1,16(a0)
    3690:	8082                	ret
    3692:	c94c                	sw	a1,20(a0)
    3694:	8082                	ret

00003696 <GPIO_EXTILineConfig>:
    3696:	0fc5f713          	andi	a4,a1,252
    369a:	0035f793          	andi	a5,a1,3
    369e:	400105b7          	lui	a1,0x40010
    36a2:	95ba                	add	a1,a1,a4
    36a4:	4594                	lw	a3,8(a1)
    36a6:	078a                	slli	a5,a5,0x2
    36a8:	473d                	li	a4,15
    36aa:	00f71733          	sll	a4,a4,a5
    36ae:	fff74713          	not	a4,a4
    36b2:	8f75                	and	a4,a4,a3
    36b4:	c598                	sw	a4,8(a1)
    36b6:	4598                	lw	a4,8(a1)
    36b8:	00f51533          	sll	a0,a0,a5
    36bc:	8d59                	or	a0,a0,a4
    36be:	c588                	sw	a0,8(a1)
    36c0:	8082                	ret

000036c2 <NVIC_PriorityGroupConfig>:
    36c2:	80a1ae23          	sw	a0,-2020(gp) # 2000020c <NVIC_Priority_Group>
    36c6:	8082                	ret

000036c8 <NVIC_Init>:
    36c8:	81c18793          	addi	a5,gp,-2020 # 2000020c <NVIC_Priority_Group>
    36cc:	4394                	lw	a3,0(a5)
    36ce:	00054703          	lbu	a4,0(a0)
    36d2:	e689                	bnez	a3,36dc <NVIC_Init+0x14>
    36d4:	00254783          	lbu	a5,2(a0)
    36d8:	0792                	slli	a5,a5,0x4
    36da:	a831                	j	36f6 <NVIC_Init+0x2e>
    36dc:	4394                	lw	a3,0(a5)
    36de:	4605                	li	a2,1
    36e0:	04c69163          	bne	a3,a2,3722 <NVIC_Init+0x5a>
    36e4:	00254783          	lbu	a5,2(a0)
    36e8:	00154603          	lbu	a2,1(a0)
    36ec:	0792                	slli	a5,a5,0x4
    36ee:	00d61463          	bne	a2,a3,36f6 <NVIC_Init+0x2e>
    36f2:	f807e793          	ori	a5,a5,-128
    36f6:	e000e6b7          	lui	a3,0xe000e
    36fa:	0ff7f793          	andi	a5,a5,255
    36fe:	96ba                	add	a3,a3,a4
    3700:	40f68023          	sb	a5,1024(a3) # e000e400 <_eusrstack+0xc0006400>
    3704:	4685                	li	a3,1
    3706:	00575793          	srli	a5,a4,0x5
    370a:	00e69733          	sll	a4,a3,a4
    370e:	4154                	lw	a3,4(a0)
    3710:	c6ad                	beqz	a3,377a <NVIC_Init+0xb2>
    3712:	04078793          	addi	a5,a5,64 # a0000040 <_eusrstack+0x7fff8040>
    3716:	078a                	slli	a5,a5,0x2
    3718:	e000e6b7          	lui	a3,0xe000e
    371c:	97b6                	add	a5,a5,a3
    371e:	c398                	sw	a4,0(a5)
    3720:	8082                	ret
    3722:	438c                	lw	a1,0(a5)
    3724:	4689                	li	a3,2
    3726:	02d59363          	bne	a1,a3,374c <NVIC_Init+0x84>
    372a:	00154683          	lbu	a3,1(a0)
    372e:	00254783          	lbu	a5,2(a0)
    3732:	00d66563          	bltu	a2,a3,373c <NVIC_Init+0x74>
    3736:	068a                	slli	a3,a3,0x2
    3738:	97b6                	add	a5,a5,a3
    373a:	bf79                	j	36d8 <NVIC_Init+0x10>
    373c:	03e68693          	addi	a3,a3,62 # e000e03e <_eusrstack+0xc000603e>
    3740:	068a                	slli	a3,a3,0x2
    3742:	97b6                	add	a5,a5,a3
    3744:	0ff7f793          	andi	a5,a5,255
    3748:	0792                	slli	a5,a5,0x4
    374a:	b765                	j	36f2 <NVIC_Init+0x2a>
    374c:	4390                	lw	a2,0(a5)
    374e:	468d                	li	a3,3
    3750:	00d61e63          	bne	a2,a3,376c <NVIC_Init+0xa4>
    3754:	00154683          	lbu	a3,1(a0)
    3758:	00254783          	lbu	a5,2(a0)
    375c:	00d66463          	bltu	a2,a3,3764 <NVIC_Init+0x9c>
    3760:	0686                	slli	a3,a3,0x1
    3762:	bfd9                	j	3738 <NVIC_Init+0x70>
    3764:	07c68693          	addi	a3,a3,124
    3768:	0686                	slli	a3,a3,0x1
    376a:	bfe1                	j	3742 <NVIC_Init+0x7a>
    376c:	4394                	lw	a3,0(a5)
    376e:	4791                	li	a5,4
    3770:	f8f69ae3          	bne	a3,a5,3704 <NVIC_Init+0x3c>
    3774:	00154783          	lbu	a5,1(a0)
    3778:	b785                	j	36d8 <NVIC_Init+0x10>
    377a:	06078793          	addi	a5,a5,96
    377e:	bf61                	j	3716 <NVIC_Init+0x4e>

00003780 <RCC_GetClocksFreq>:
    3780:	40021737          	lui	a4,0x40021
    3784:	435c                	lw	a5,4(a4)
    3786:	4691                	li	a3,4
    3788:	8bb1                	andi	a5,a5,12
    378a:	00d78563          	beq	a5,a3,3794 <RCC_GetClocksFreq+0x14>
    378e:	46a1                	li	a3,8
    3790:	06d78663          	beq	a5,a3,37fc <RCC_GetClocksFreq+0x7c>
    3794:	007a17b7          	lui	a5,0x7a1
    3798:	20078793          	addi	a5,a5,512 # 7a1200 <_data_lma+0x794454>
    379c:	c11c                	sw	a5,0(a0)
    379e:	40021637          	lui	a2,0x40021
    37a2:	425c                	lw	a5,4(a2)
    37a4:	20000737          	lui	a4,0x20000
    37a8:	01070713          	addi	a4,a4,16 # 20000010 <APBAHBPrescTable>
    37ac:	8391                	srli	a5,a5,0x4
    37ae:	8bbd                	andi	a5,a5,15
    37b0:	97ba                	add	a5,a5,a4
    37b2:	0007c683          	lbu	a3,0(a5)
    37b6:	411c                	lw	a5,0(a0)
    37b8:	00d7d7b3          	srl	a5,a5,a3
    37bc:	c15c                	sw	a5,4(a0)
    37be:	4254                	lw	a3,4(a2)
    37c0:	82a1                	srli	a3,a3,0x8
    37c2:	8a9d                	andi	a3,a3,7
    37c4:	96ba                	add	a3,a3,a4
    37c6:	0006c683          	lbu	a3,0(a3)
    37ca:	00d7d6b3          	srl	a3,a5,a3
    37ce:	c514                	sw	a3,8(a0)
    37d0:	4254                	lw	a3,4(a2)
    37d2:	82ad                	srli	a3,a3,0xb
    37d4:	8a9d                	andi	a3,a3,7
    37d6:	9736                	add	a4,a4,a3
    37d8:	00074703          	lbu	a4,0(a4)
    37dc:	00e7d7b3          	srl	a5,a5,a4
    37e0:	c55c                	sw	a5,12(a0)
    37e2:	4258                	lw	a4,4(a2)
    37e4:	8339                	srli	a4,a4,0xe
    37e6:	00377693          	andi	a3,a4,3
    37ea:	80818713          	addi	a4,gp,-2040 # 200001f8 <ADCPrescTable>
    37ee:	9736                	add	a4,a4,a3
    37f0:	00074703          	lbu	a4,0(a4)
    37f4:	02e7d7b3          	divu	a5,a5,a4
    37f8:	c91c                	sw	a5,16(a0)
    37fa:	8082                	ret
    37fc:	435c                	lw	a5,4(a4)
    37fe:	4354                	lw	a3,4(a4)
    3800:	6741                	lui	a4,0x10
    3802:	83c9                	srli	a5,a5,0x12
    3804:	8ef9                	and	a3,a3,a4
    3806:	1ffff737          	lui	a4,0x1ffff
    380a:	70c72703          	lw	a4,1804(a4) # 1ffff70c <_data_lma+0x1fff2960>
    380e:	8bbd                	andi	a5,a5,15
    3810:	0789                	addi	a5,a5,2
    3812:	01171613          	slli	a2,a4,0x11
    3816:	00064863          	bltz	a2,3826 <RCC_GetClocksFreq+0xa6>
    381a:	4645                	li	a2,17
    381c:	4701                	li	a4,0
    381e:	02c79263          	bne	a5,a2,3842 <RCC_GetClocksFreq+0xc2>
    3822:	47c9                	li	a5,18
    3824:	a839                	j	3842 <RCC_GetClocksFreq+0xc2>
    3826:	4709                	li	a4,2
    3828:	02e78963          	beq	a5,a4,385a <RCC_GetClocksFreq+0xda>
    382c:	473d                	li	a4,15
    382e:	02e78863          	beq	a5,a4,385e <RCC_GetClocksFreq+0xde>
    3832:	4741                	li	a4,16
    3834:	02e78863          	beq	a5,a4,3864 <RCC_GetClocksFreq+0xe4>
    3838:	4645                	li	a2,17
    383a:	4701                	li	a4,0
    383c:	00c79363          	bne	a5,a2,3842 <RCC_GetClocksFreq+0xc2>
    3840:	47c1                	li	a5,16
    3842:	e685                	bnez	a3,386a <RCC_GetClocksFreq+0xea>
    3844:	400246b7          	lui	a3,0x40024
    3848:	8006a683          	lw	a3,-2048(a3) # 40023800 <_eusrstack+0x2001b800>
    384c:	8ac1                	andi	a3,a3,16
    384e:	c68d                	beqz	a3,3878 <RCC_GetClocksFreq+0xf8>
    3850:	007a16b7          	lui	a3,0x7a1
    3854:	20068693          	addi	a3,a3,512 # 7a1200 <_data_lma+0x794454>
    3858:	a025                	j	3880 <RCC_GetClocksFreq+0x100>
    385a:	4701                	li	a4,0
    385c:	b7d9                	j	3822 <RCC_GetClocksFreq+0xa2>
    385e:	4705                	li	a4,1
    3860:	47b5                	li	a5,13
    3862:	b7c5                	j	3842 <RCC_GetClocksFreq+0xc2>
    3864:	4701                	li	a4,0
    3866:	47bd                	li	a5,15
    3868:	bfe9                	j	3842 <RCC_GetClocksFreq+0xc2>
    386a:	400216b7          	lui	a3,0x40021
    386e:	42d4                	lw	a3,4(a3)
    3870:	00e69613          	slli	a2,a3,0xe
    3874:	fc065ee3          	bgez	a2,3850 <RCC_GetClocksFreq+0xd0>
    3878:	003d16b7          	lui	a3,0x3d1
    387c:	90068693          	addi	a3,a3,-1792 # 3d0900 <_data_lma+0x3c3b54>
    3880:	02d787b3          	mul	a5,a5,a3
    3884:	c11c                	sw	a5,0(a0)
    3886:	df01                	beqz	a4,379e <RCC_GetClocksFreq+0x1e>
    3888:	411c                	lw	a5,0(a0)
    388a:	8385                	srli	a5,a5,0x1
    388c:	bf01                	j	379c <RCC_GetClocksFreq+0x1c>

0000388e <RCC_AHBPeriphClockCmd>:
    388e:	c599                	beqz	a1,389c <RCC_AHBPeriphClockCmd+0xe>
    3890:	40021737          	lui	a4,0x40021
    3894:	4b5c                	lw	a5,20(a4)
    3896:	8d5d                	or	a0,a0,a5
    3898:	cb48                	sw	a0,20(a4)
    389a:	8082                	ret
    389c:	400217b7          	lui	a5,0x40021
    38a0:	4bd8                	lw	a4,20(a5)
    38a2:	fff54513          	not	a0,a0
    38a6:	8d79                	and	a0,a0,a4
    38a8:	cbc8                	sw	a0,20(a5)
    38aa:	8082                	ret

000038ac <RCC_APB2PeriphClockCmd>:
    38ac:	c599                	beqz	a1,38ba <RCC_APB2PeriphClockCmd+0xe>
    38ae:	40021737          	lui	a4,0x40021
    38b2:	4f1c                	lw	a5,24(a4)
    38b4:	8d5d                	or	a0,a0,a5
    38b6:	cf08                	sw	a0,24(a4)
    38b8:	8082                	ret
    38ba:	400217b7          	lui	a5,0x40021
    38be:	4f98                	lw	a4,24(a5)
    38c0:	fff54513          	not	a0,a0
    38c4:	8d79                	and	a0,a0,a4
    38c6:	cf88                	sw	a0,24(a5)
    38c8:	8082                	ret

000038ca <RCC_APB1PeriphClockCmd>:
    38ca:	c599                	beqz	a1,38d8 <RCC_APB1PeriphClockCmd+0xe>
    38cc:	40021737          	lui	a4,0x40021
    38d0:	4f5c                	lw	a5,28(a4)
    38d2:	8d5d                	or	a0,a0,a5
    38d4:	cf48                	sw	a0,28(a4)
    38d6:	8082                	ret
    38d8:	400217b7          	lui	a5,0x40021
    38dc:	4fd8                	lw	a4,28(a5)
    38de:	fff54513          	not	a0,a0
    38e2:	8d79                	and	a0,a0,a4
    38e4:	cfc8                	sw	a0,28(a5)
    38e6:	8082                	ret

000038e8 <USART_Init>:
    38e8:	01055683          	lhu	a3,16(a0)
    38ec:	77f5                	lui	a5,0xffffd
    38ee:	17fd                	addi	a5,a5,-1
    38f0:	8ff5                	and	a5,a5,a3
    38f2:	0065d683          	lhu	a3,6(a1) # 40010006 <_eusrstack+0x20008006>
    38f6:	7139                	addi	sp,sp,-64
    38f8:	dc22                	sw	s0,56(sp)
    38fa:	de06                	sw	ra,60(sp)
    38fc:	8fd5                	or	a5,a5,a3
    38fe:	00c5d703          	lhu	a4,12(a1)
    3902:	00f51823          	sh	a5,16(a0)
    3906:	00c55683          	lhu	a3,12(a0)
    390a:	77fd                	lui	a5,0xfffff
    390c:	9f378793          	addi	a5,a5,-1549 # ffffe9f3 <_eusrstack+0xdfff69f3>
    3910:	8ff5                	and	a5,a5,a3
    3912:	0045d683          	lhu	a3,4(a1)
    3916:	842a                	mv	s0,a0
    3918:	c62e                	sw	a1,12(sp)
    391a:	8fd5                	or	a5,a5,a3
    391c:	0085d683          	lhu	a3,8(a1)
    3920:	8fd5                	or	a5,a5,a3
    3922:	00a5d683          	lhu	a3,10(a1)
    3926:	8fd5                	or	a5,a5,a3
    3928:	00f51623          	sh	a5,12(a0)
    392c:	01455783          	lhu	a5,20(a0)
    3930:	07c2                	slli	a5,a5,0x10
    3932:	83c1                	srli	a5,a5,0x10
    3934:	cff7f793          	andi	a5,a5,-769
    3938:	8fd9                	or	a5,a5,a4
    393a:	00f51a23          	sh	a5,20(a0)
    393e:	0868                	addi	a0,sp,28
    3940:	3581                	jal	3780 <RCC_GetClocksFreq>
    3942:	400147b7          	lui	a5,0x40014
    3946:	80078793          	addi	a5,a5,-2048 # 40013800 <_eusrstack+0x2000b800>
    394a:	45b2                	lw	a1,12(sp)
    394c:	04f41e63          	bne	s0,a5,39a8 <USART_Init+0xc0>
    3950:	57a2                	lw	a5,40(sp)
    3952:	00c45683          	lhu	a3,12(s0)
    3956:	4765                	li	a4,25
    3958:	02e787b3          	mul	a5,a5,a4
    395c:	06c2                	slli	a3,a3,0x10
    395e:	86c1                	srai	a3,a3,0x10
    3960:	4198                	lw	a4,0(a1)
    3962:	0406d563          	bgez	a3,39ac <USART_Init+0xc4>
    3966:	0706                	slli	a4,a4,0x1
    3968:	00c45603          	lhu	a2,12(s0)
    396c:	0642                	slli	a2,a2,0x10
    396e:	02e7d7b3          	divu	a5,a5,a4
    3972:	06400713          	li	a4,100
    3976:	8641                	srai	a2,a2,0x10
    3978:	02e7d6b3          	divu	a3,a5,a4
    397c:	02e7f7b3          	remu	a5,a5,a4
    3980:	0692                	slli	a3,a3,0x4
    3982:	02065763          	bgez	a2,39b0 <USART_Init+0xc8>
    3986:	078e                	slli	a5,a5,0x3
    3988:	03278793          	addi	a5,a5,50
    398c:	02e7d7b3          	divu	a5,a5,a4
    3990:	0077f713          	andi	a4,a5,7
    3994:	00d767b3          	or	a5,a4,a3
    3998:	07c2                	slli	a5,a5,0x10
    399a:	83c1                	srli	a5,a5,0x10
    399c:	00f41423          	sh	a5,8(s0)
    39a0:	50f2                	lw	ra,60(sp)
    39a2:	5462                	lw	s0,56(sp)
    39a4:	6121                	addi	sp,sp,64
    39a6:	8082                	ret
    39a8:	5792                	lw	a5,36(sp)
    39aa:	b765                	j	3952 <USART_Init+0x6a>
    39ac:	070a                	slli	a4,a4,0x2
    39ae:	bf6d                	j	3968 <USART_Init+0x80>
    39b0:	0792                	slli	a5,a5,0x4
    39b2:	03278793          	addi	a5,a5,50
    39b6:	02e7d7b3          	divu	a5,a5,a4
    39ba:	8bbd                	andi	a5,a5,15
    39bc:	8fd5                	or	a5,a5,a3
    39be:	bfe9                	j	3998 <USART_Init+0xb0>

000039c0 <USART_Cmd>:
    39c0:	c981                	beqz	a1,39d0 <USART_Cmd+0x10>
    39c2:	00c55783          	lhu	a5,12(a0)
    39c6:	6709                	lui	a4,0x2
    39c8:	8fd9                	or	a5,a5,a4
    39ca:	00f51623          	sh	a5,12(a0)
    39ce:	8082                	ret
    39d0:	00c55703          	lhu	a4,12(a0)
    39d4:	77f9                	lui	a5,0xffffe
    39d6:	17fd                	addi	a5,a5,-1
    39d8:	8ff9                	and	a5,a5,a4
    39da:	bfc5                	j	39ca <USART_Cmd+0xa>

000039dc <USART_ITConfig>:
    39dc:	0ff5f713          	andi	a4,a1,255
    39e0:	4785                	li	a5,1
    39e2:	8315                	srli	a4,a4,0x5
    39e4:	00b795b3          	sll	a1,a5,a1
    39e8:	00f71963          	bne	a4,a5,39fa <USART_ITConfig+0x1e>
    39ec:	00c50793          	addi	a5,a0,12
    39f0:	4398                	lw	a4,0(a5)
    39f2:	ce01                	beqz	a2,3a0a <USART_ITConfig+0x2e>
    39f4:	8dd9                	or	a1,a1,a4
    39f6:	c38c                	sw	a1,0(a5)
    39f8:	8082                	ret
    39fa:	4689                	li	a3,2
    39fc:	01450793          	addi	a5,a0,20
    3a00:	fed718e3          	bne	a4,a3,39f0 <USART_ITConfig+0x14>
    3a04:	01050793          	addi	a5,a0,16
    3a08:	b7e5                	j	39f0 <USART_ITConfig+0x14>
    3a0a:	fff5c593          	not	a1,a1
    3a0e:	8df9                	and	a1,a1,a4
    3a10:	b7dd                	j	39f6 <USART_ITConfig+0x1a>

00003a12 <USART_SendData>:
    3a12:	1ff5f593          	andi	a1,a1,511
    3a16:	00b51223          	sh	a1,4(a0)
    3a1a:	8082                	ret

00003a1c <USART_ReceiveData>:
    3a1c:	00455503          	lhu	a0,4(a0)
    3a20:	1ff57513          	andi	a0,a0,511
    3a24:	8082                	ret

00003a26 <USART_GetFlagStatus>:
    3a26:	00055503          	lhu	a0,0(a0)
    3a2a:	8d6d                	and	a0,a0,a1
    3a2c:	00a03533          	snez	a0,a0
    3a30:	8082                	ret

00003a32 <USART_GetITStatus>:
    3a32:	0ff5f713          	andi	a4,a1,255
    3a36:	4685                	li	a3,1
    3a38:	8315                	srli	a4,a4,0x5
    3a3a:	00b697b3          	sll	a5,a3,a1
    3a3e:	02d71363          	bne	a4,a3,3a64 <USART_GetITStatus+0x32>
    3a42:	00c55703          	lhu	a4,12(a0)
    3a46:	8ff9                	and	a5,a5,a4
    3a48:	00055703          	lhu	a4,0(a0)
    3a4c:	4501                	li	a0,0
    3a4e:	0742                	slli	a4,a4,0x10
    3a50:	8341                	srli	a4,a4,0x10
    3a52:	cb81                	beqz	a5,3a62 <USART_GetITStatus+0x30>
    3a54:	4505                	li	a0,1
    3a56:	81a1                	srli	a1,a1,0x8
    3a58:	00b515b3          	sll	a1,a0,a1
    3a5c:	8f6d                	and	a4,a4,a1
    3a5e:	00e03533          	snez	a0,a4
    3a62:	8082                	ret
    3a64:	4689                	li	a3,2
    3a66:	00d71563          	bne	a4,a3,3a70 <USART_GetITStatus+0x3e>
    3a6a:	01055703          	lhu	a4,16(a0)
    3a6e:	bfe1                	j	3a46 <USART_GetITStatus+0x14>
    3a70:	01455703          	lhu	a4,20(a0)
    3a74:	bfc9                	j	3a46 <USART_GetITStatus+0x14>

00003a76 <USART_ClearITPendingBit>:
    3a76:	81a1                	srli	a1,a1,0x8
    3a78:	4785                	li	a5,1
    3a7a:	00b797b3          	sll	a5,a5,a1
    3a7e:	fff7c793          	not	a5,a5
    3a82:	07c2                	slli	a5,a5,0x10
    3a84:	83c1                	srli	a5,a5,0x10
    3a86:	00f51023          	sh	a5,0(a0)
    3a8a:	8082                	ret

00003a8c <EXTI4_IRQHandler>:
    3a8c:	1141                	addi	sp,sp,-16
    3a8e:	c622                	sw	s0,12(sp)
    3a90:	6405                	lui	s0,0x1
    3a92:	80040513          	addi	a0,s0,-2048 # 800 <__stack_size>
    3a96:	c426                	sw	s1,8(sp)
    3a98:	a21ff0ef          	jal	ra,34b8 <EXTI_GetITStatus>
    3a9c:	4785                	li	a5,1
    3a9e:	02f51363          	bne	a0,a5,3ac4 <EXTI4_IRQHandler+0x38>
    3aa2:	4529                	li	a0,10
    3aa4:	400114b7          	lui	s1,0x40011
    3aa8:	2639                	jal	3db6 <Delay_Ms>
    3aaa:	80040413          	addi	s0,s0,-2048
    3aae:	80048493          	addi	s1,s1,-2048 # 40010800 <_eusrstack+0x20008800>
    3ab2:	85a2                	mv	a1,s0
    3ab4:	8526                	mv	a0,s1
    3ab6:	bc5ff0ef          	jal	ra,367a <GPIO_ReadInputDataBit>
    3aba:	dd65                	beqz	a0,3ab2 <EXTI4_IRQHandler+0x26>
    3abc:	4529                	li	a0,10
    3abe:	2ce5                	jal	3db6 <Delay_Ms>
    3ac0:	80018c23          	sb	zero,-2024(gp) # 20000208 <_edata>
    3ac4:	6505                	lui	a0,0x1
    3ac6:	80050513          	addi	a0,a0,-2048 # 800 <__stack_size>
    3aca:	a0dff0ef          	jal	ra,34d6 <EXTI_ClearITPendingBit>
    3ace:	4432                	lw	s0,12(sp)
    3ad0:	44a2                	lw	s1,8(sp)
    3ad2:	0141                	addi	sp,sp,16
    3ad4:	30200073          	mret

00003ad8 <extix_init>:
    3ad8:	7139                	addi	sp,sp,-64
    3ada:	4585                	li	a1,1
    3adc:	4505                	li	a0,1
    3ade:	de06                	sw	ra,60(sp)
    3ae0:	dcdff0ef          	jal	ra,38ac <RCC_APB2PeriphClockCmd>
    3ae4:	4585                	li	a1,1
    3ae6:	4511                	li	a0,4
    3ae8:	dc5ff0ef          	jal	ra,38ac <RCC_APB2PeriphClockCmd>
    3aec:	6785                	lui	a5,0x1
    3aee:	80078793          	addi	a5,a5,-2048 # 800 <__stack_size>
    3af2:	40011537          	lui	a0,0x40011
    3af6:	00f11a23          	sh	a5,20(sp)
    3afa:	084c                	addi	a1,sp,20
    3afc:	04800793          	li	a5,72
    3b00:	80050513          	addi	a0,a0,-2048 # 40010800 <_eusrstack+0x20008800>
    3b04:	ce3e                	sw	a5,28(sp)
    3b06:	ab3ff0ef          	jal	ra,35b8 <GPIO_Init>
    3b0a:	45ad                	li	a1,11
    3b0c:	4501                	li	a0,0
    3b0e:	b89ff0ef          	jal	ra,3696 <GPIO_EXTILineConfig>
    3b12:	6785                	lui	a5,0x1
    3b14:	80078793          	addi	a5,a5,-2048 # 800 <__stack_size>
    3b18:	d03e                	sw	a5,32(sp)
    3b1a:	1008                	addi	a0,sp,32
    3b1c:	47b1                	li	a5,12
    3b1e:	d43e                	sw	a5,40(sp)
    3b20:	d202                	sw	zero,36(sp)
    3b22:	92dff0ef          	jal	ra,344e <EXTI_Init>
    3b26:	20000793          	li	a5,512
    3b2a:	00f11623          	sh	a5,12(sp)
    3b2e:	478d                	li	a5,3
    3b30:	00f10723          	sb	a5,14(sp)
    3b34:	0068                	addi	a0,sp,12
    3b36:	4785                	li	a5,1
    3b38:	c83e                	sw	a5,16(sp)
    3b3a:	b8fff0ef          	jal	ra,36c8 <NVIC_Init>
    3b3e:	50f2                	lw	ra,60(sp)
    3b40:	6121                	addi	sp,sp,64
    3b42:	8082                	ret

00003b44 <USARTx_Init>:
    3b44:	7159                	addi	sp,sp,-112
    3b46:	4585                	li	a1,1
    3b48:	4511                	li	a0,4
    3b4a:	d686                	sw	ra,108(sp)
    3b4c:	d4a2                	sw	s0,104(sp)
    3b4e:	d2a6                	sw	s1,100(sp)
    3b50:	d0ca                	sw	s2,96(sp)
    3b52:	cece                	sw	s3,92(sp)
    3b54:	d59ff0ef          	jal	ra,38ac <RCC_APB2PeriphClockCmd>
    3b58:	4585                	li	a1,1
    3b5a:	00020537          	lui	a0,0x20
    3b5e:	d6dff0ef          	jal	ra,38ca <RCC_APB1PeriphClockCmd>
    3b62:	4585                	li	a1,1
    3b64:	6511                	lui	a0,0x4
    3b66:	d47ff0ef          	jal	ra,38ac <RCC_APB2PeriphClockCmd>
    3b6a:	40011437          	lui	s0,0x40011
    3b6e:	20000793          	li	a5,512
    3b72:	498d                	li	s3,3
    3b74:	4961                	li	s2,24
    3b76:	082c                	addi	a1,sp,24
    3b78:	80040513          	addi	a0,s0,-2048 # 40010800 <_eusrstack+0x20008800>
    3b7c:	00f11c23          	sh	a5,24(sp)
    3b80:	ce4e                	sw	s3,28(sp)
    3b82:	d04a                	sw	s2,32(sp)
    3b84:	a35ff0ef          	jal	ra,35b8 <GPIO_Init>
    3b88:	40000793          	li	a5,1024
    3b8c:	4491                	li	s1,4
    3b8e:	082c                	addi	a1,sp,24
    3b90:	80040513          	addi	a0,s0,-2048
    3b94:	00f11c23          	sh	a5,24(sp)
    3b98:	d026                	sw	s1,32(sp)
    3b9a:	a1fff0ef          	jal	ra,35b8 <GPIO_Init>
    3b9e:	104c                	addi	a1,sp,36
    3ba0:	80040513          	addi	a0,s0,-2048
    3ba4:	02911223          	sh	s1,36(sp)
    3ba8:	d44e                	sw	s3,40(sp)
    3baa:	d64a                	sw	s2,44(sp)
    3bac:	a0dff0ef          	jal	ra,35b8 <GPIO_Init>
    3bb0:	47a1                	li	a5,8
    3bb2:	104c                	addi	a1,sp,36
    3bb4:	80040513          	addi	a0,s0,-2048
    3bb8:	02f11223          	sh	a5,36(sp)
    3bbc:	d626                	sw	s1,44(sp)
    3bbe:	6471                	lui	s0,0x1c
    3bc0:	9f9ff0ef          	jal	ra,35b8 <GPIO_Init>
    3bc4:	400044b7          	lui	s1,0x40004
    3bc8:	20040413          	addi	s0,s0,512 # 1c200 <_data_lma+0xf454>
    3bcc:	000c0937          	lui	s2,0xc0
    3bd0:	008c                	addi	a1,sp,64
    3bd2:	40048513          	addi	a0,s1,1024 # 40004400 <_eusrstack+0x1fffc400>
    3bd6:	c0a2                	sw	s0,64(sp)
    3bd8:	c4ca                	sw	s2,72(sp)
    3bda:	c282                	sw	zero,68(sp)
    3bdc:	04011623          	sh	zero,76(sp)
    3be0:	d09ff0ef          	jal	ra,38e8 <USART_Init>
    3be4:	d822                	sw	s0,48(sp)
    3be6:	40014437          	lui	s0,0x40014
    3bea:	180c                	addi	a1,sp,48
    3bec:	80040513          	addi	a0,s0,-2048 # 40013800 <_eusrstack+0x2000b800>
    3bf0:	dc4a                	sw	s2,56(sp)
    3bf2:	da02                	sw	zero,52(sp)
    3bf4:	02011e23          	sh	zero,60(sp)
    3bf8:	cf1ff0ef          	jal	ra,38e8 <USART_Init>
    3bfc:	13500793          	li	a5,309
    3c00:	4905                	li	s2,1
    3c02:	00f11423          	sh	a5,8(sp)
    3c06:	0028                	addi	a0,sp,8
    3c08:	4785                	li	a5,1
    3c0a:	00f10523          	sb	a5,10(sp)
    3c0e:	c64a                	sw	s2,12(sp)
    3c10:	ab9ff0ef          	jal	ra,36c8 <NVIC_Init>
    3c14:	13600793          	li	a5,310
    3c18:	0808                	addi	a0,sp,16
    3c1a:	00f11823          	sh	a5,16(sp)
    3c1e:	01210923          	sb	s2,18(sp)
    3c22:	ca4a                	sw	s2,20(sp)
    3c24:	aa5ff0ef          	jal	ra,36c8 <NVIC_Init>
    3c28:	80040513          	addi	a0,s0,-2048
    3c2c:	4605                	li	a2,1
    3c2e:	52500593          	li	a1,1317
    3c32:	dabff0ef          	jal	ra,39dc <USART_ITConfig>
    3c36:	4605                	li	a2,1
    3c38:	40048513          	addi	a0,s1,1024
    3c3c:	52500593          	li	a1,1317
    3c40:	d9dff0ef          	jal	ra,39dc <USART_ITConfig>
    3c44:	40020937          	lui	s2,0x40020
    3c48:	08090513          	addi	a0,s2,128 # 40020080 <_eusrstack+0x20018080>
    3c4c:	4585                	li	a1,1
    3c4e:	fecff0ef          	jal	ra,343a <DMA_Cmd>
    3c52:	06c90513          	addi	a0,s2,108
    3c56:	4585                	li	a1,1
    3c58:	fe2ff0ef          	jal	ra,343a <DMA_Cmd>
    3c5c:	80040513          	addi	a0,s0,-2048
    3c60:	4585                	li	a1,1
    3c62:	d5fff0ef          	jal	ra,39c0 <USART_Cmd>
    3c66:	40048513          	addi	a0,s1,1024
    3c6a:	4585                	li	a1,1
    3c6c:	d55ff0ef          	jal	ra,39c0 <USART_Cmd>
    3c70:	50b6                	lw	ra,108(sp)
    3c72:	5426                	lw	s0,104(sp)
    3c74:	5496                	lw	s1,100(sp)
    3c76:	5906                	lw	s2,96(sp)
    3c78:	49f6                	lw	s3,92(sp)
    3c7a:	6165                	addi	sp,sp,112
    3c7c:	8082                	ret

00003c7e <USART1_IRQHandler>:
    3c7e:	1141                	addi	sp,sp,-16
    3c80:	c622                	sw	s0,12(sp)
    3c82:	40014437          	lui	s0,0x40014
    3c86:	52500593          	li	a1,1317
    3c8a:	80040513          	addi	a0,s0,-2048 # 40013800 <_eusrstack+0x2000b800>
    3c8e:	da5ff0ef          	jal	ra,3a32 <USART_GetITStatus>
    3c92:	cd25                	beqz	a0,3d0a <USART1_IRQHandler+0x8c>
    3c94:	52500593          	li	a1,1317
    3c98:	80040513          	addi	a0,s0,-2048
    3c9c:	ddbff0ef          	jal	ra,3a76 <USART_ClearITPendingBit>
    3ca0:	80040513          	addi	a0,s0,-2048
    3ca4:	d79ff0ef          	jal	ra,3a1c <USART_ReceiveData>
    3ca8:	e8a19023          	sh	a0,-384(gp) # 20000870 <received_data>
    3cac:	2ce5                	jal	3fa4 <__locale_ctype_ptr>
    3cae:	e801d603          	lhu	a2,-384(gp) # 20000870 <received_data>
    3cb2:	9532                	add	a0,a0,a2
    3cb4:	00154783          	lbu	a5,1(a0) # 4001 <__ascii_mbtowc+0x31>
    3cb8:	8b8d                	andi	a5,a5,3
    3cba:	c79d                	beqz	a5,3ce8 <USART1_IRQHandler+0x6a>
    3cbc:	82018713          	addi	a4,gp,-2016 # 20000210 <uart_cnt>
    3cc0:	00074783          	lbu	a5,0(a4) # 2000 <LCD_Init+0x1470>
    3cc4:	46fd                	li	a3,31
    3cc6:	02f6e163          	bltu	a3,a5,3ce8 <USART1_IRQHandler+0x6a>
    3cca:	00074783          	lbu	a5,0(a4)
    3cce:	0ff7f693          	andi	a3,a5,255
    3cd2:	00168793          	addi	a5,a3,1
    3cd6:	0ff7f793          	andi	a5,a5,255
    3cda:	00f70023          	sb	a5,0(a4)
    3cde:	83018793          	addi	a5,gp,-2000 # 20000220 <uart_buf>
    3ce2:	97b6                	add	a5,a5,a3
    3ce4:	00c78023          	sb	a2,0(a5)
    3ce8:	47a9                	li	a5,10
    3cea:	02f61063          	bne	a2,a5,3d0a <USART1_IRQHandler+0x8c>
    3cee:	82018023          	sb	zero,-2016(gp) # 20000210 <uart_cnt>
    3cf2:	4785                	li	a5,1
    3cf4:	40014537          	lui	a0,0x40014
    3cf8:	e6f18f23          	sb	a5,-386(gp) # 2000086e <recv_ok>
    3cfc:	4581                	li	a1,0
    3cfe:	80050513          	addi	a0,a0,-2048 # 40013800 <_eusrstack+0x2000b800>
    3d02:	8af18623          	sb	a5,-1876(gp) # 2000029c <numx>
    3d06:	cbbff0ef          	jal	ra,39c0 <USART_Cmd>
    3d0a:	4432                	lw	s0,12(sp)
    3d0c:	0141                	addi	sp,sp,16
    3d0e:	30200073          	mret

00003d12 <USART2_IRQHandler>:
    3d12:	1141                	addi	sp,sp,-16
    3d14:	c622                	sw	s0,12(sp)
    3d16:	40004437          	lui	s0,0x40004
    3d1a:	52500593          	li	a1,1317
    3d1e:	40040513          	addi	a0,s0,1024 # 40004400 <_eusrstack+0x1fffc400>
    3d22:	d11ff0ef          	jal	ra,3a32 <USART_GetITStatus>
    3d26:	c905                	beqz	a0,3d56 <USART2_IRQHandler+0x44>
    3d28:	40040513          	addi	a0,s0,1024
    3d2c:	cf1ff0ef          	jal	ra,3a1c <USART_ReceiveData>
    3d30:	e6818783          	lb	a5,-408(gp) # 20000858 <USART_Rbuffer_Num>
    3d34:	52500593          	li	a1,1317
    3d38:	00178693          	addi	a3,a5,1
    3d3c:	e6d18423          	sb	a3,-408(gp) # 20000858 <USART_Rbuffer_Num>
    3d40:	20000737          	lui	a4,0x20000
    3d44:	45870713          	addi	a4,a4,1112 # 20000458 <USART_Rbuffer>
    3d48:	97ba                	add	a5,a5,a4
    3d4a:	00a78023          	sb	a0,0(a5)
    3d4e:	40040513          	addi	a0,s0,1024
    3d52:	d25ff0ef          	jal	ra,3a76 <USART_ClearITPendingBit>
    3d56:	4432                	lw	s0,12(sp)
    3d58:	0141                	addi	sp,sp,16
    3d5a:	30200073          	mret

00003d5e <Delay_Init>:
    3d5e:	200007b7          	lui	a5,0x20000
    3d62:	1f47a783          	lw	a5,500(a5) # 200001f4 <SystemCoreClock>
    3d66:	007a1737          	lui	a4,0x7a1
    3d6a:	20070713          	addi	a4,a4,512 # 7a1200 <_data_lma+0x794454>
    3d6e:	02e7d7b3          	divu	a5,a5,a4
    3d72:	0ff7f793          	andi	a5,a5,255
    3d76:	82f18223          	sb	a5,-2012(gp) # 20000214 <p_us>
    3d7a:	3e800713          	li	a4,1000
    3d7e:	02e787b3          	mul	a5,a5,a4
    3d82:	82f19123          	sh	a5,-2014(gp) # 20000212 <p_ms>
    3d86:	8082                	ret

00003d88 <Delay_Us>:
    3d88:	e000f7b7          	lui	a5,0xe000f
    3d8c:	43d8                	lw	a4,4(a5)
    3d8e:	4681                	li	a3,0
    3d90:	9b79                	andi	a4,a4,-2
    3d92:	c3d8                	sw	a4,4(a5)
    3d94:	8241c703          	lbu	a4,-2012(gp) # 20000214 <p_us>
    3d98:	02a70633          	mul	a2,a4,a0
    3d9c:	cb90                	sw	a2,16(a5)
    3d9e:	cbd4                	sw	a3,20(a5)
    3da0:	4398                	lw	a4,0(a5)
    3da2:	03176713          	ori	a4,a4,49
    3da6:	c398                	sw	a4,0(a5)
    3da8:	43d8                	lw	a4,4(a5)
    3daa:	8b05                	andi	a4,a4,1
    3dac:	df75                	beqz	a4,3da8 <Delay_Us+0x20>
    3dae:	4398                	lw	a4,0(a5)
    3db0:	9b79                	andi	a4,a4,-2
    3db2:	c398                	sw	a4,0(a5)
    3db4:	8082                	ret

00003db6 <Delay_Ms>:
    3db6:	e000f7b7          	lui	a5,0xe000f
    3dba:	43d8                	lw	a4,4(a5)
    3dbc:	4681                	li	a3,0
    3dbe:	9b79                	andi	a4,a4,-2
    3dc0:	c3d8                	sw	a4,4(a5)
    3dc2:	8221d703          	lhu	a4,-2014(gp) # 20000212 <p_ms>
    3dc6:	02a70633          	mul	a2,a4,a0
    3dca:	cb90                	sw	a2,16(a5)
    3dcc:	cbd4                	sw	a3,20(a5)
    3dce:	4398                	lw	a4,0(a5)
    3dd0:	03176713          	ori	a4,a4,49
    3dd4:	c398                	sw	a4,0(a5)
    3dd6:	43d8                	lw	a4,4(a5)
    3dd8:	8b05                	andi	a4,a4,1
    3dda:	df75                	beqz	a4,3dd6 <Delay_Ms+0x20>
    3ddc:	4398                	lw	a4,0(a5)
    3dde:	9b79                	andi	a4,a4,-2
    3de0:	c398                	sw	a4,0(a5)
    3de2:	8082                	ret

00003de4 <_write>:
    3de4:	1101                	addi	sp,sp,-32
    3de6:	ca26                	sw	s1,20(sp)
    3de8:	400044b7          	lui	s1,0x40004
    3dec:	cc22                	sw	s0,24(sp)
    3dee:	c84a                	sw	s2,16(sp)
    3df0:	c64e                	sw	s3,12(sp)
    3df2:	ce06                	sw	ra,28(sp)
    3df4:	89ae                	mv	s3,a1
    3df6:	8932                	mv	s2,a2
    3df8:	4401                	li	s0,0
    3dfa:	40048493          	addi	s1,s1,1024 # 40004400 <_eusrstack+0x1fffc400>
    3dfe:	01244a63          	blt	s0,s2,3e12 <_write+0x2e>
    3e02:	40f2                	lw	ra,28(sp)
    3e04:	4462                	lw	s0,24(sp)
    3e06:	854a                	mv	a0,s2
    3e08:	44d2                	lw	s1,20(sp)
    3e0a:	4942                	lw	s2,16(sp)
    3e0c:	49b2                	lw	s3,12(sp)
    3e0e:	6105                	addi	sp,sp,32
    3e10:	8082                	ret
    3e12:	04000593          	li	a1,64
    3e16:	8526                	mv	a0,s1
    3e18:	c0fff0ef          	jal	ra,3a26 <USART_GetFlagStatus>
    3e1c:	d97d                	beqz	a0,3e12 <_write+0x2e>
    3e1e:	008987b3          	add	a5,s3,s0
    3e22:	00078583          	lb	a1,0(a5) # e000f000 <_eusrstack+0xc0007000>
    3e26:	8526                	mv	a0,s1
    3e28:	0405                	addi	s0,s0,1
    3e2a:	05c2                	slli	a1,a1,0x10
    3e2c:	81c1                	srli	a1,a1,0x10
    3e2e:	be5ff0ef          	jal	ra,3a12 <USART_SendData>
    3e32:	b7f1                	j	3dfe <_write+0x1a>

00003e34 <_sbrk>:
    3e34:	80c18713          	addi	a4,gp,-2036 # 200001fc <curbrk.5226>
    3e38:	431c                	lw	a5,0(a4)
    3e3a:	e8818693          	addi	a3,gp,-376 # 20000878 <_ebss>
    3e3e:	953e                	add	a0,a0,a5
    3e40:	00d56b63          	bltu	a0,a3,3e56 <_sbrk+0x22>
    3e44:	200086b7          	lui	a3,0x20008
    3e48:	80068693          	addi	a3,a3,-2048 # 20007800 <_heap_end>
    3e4c:	00a6e563          	bltu	a3,a0,3e56 <_sbrk+0x22>
    3e50:	c308                	sw	a0,0(a4)
    3e52:	853e                	mv	a0,a5
    3e54:	8082                	ret
    3e56:	57fd                	li	a5,-1
    3e58:	bfed                	j	3e52 <_sbrk+0x1e>

00003e5a <__fixunssfsi>:
    3e5a:	01755713          	srli	a4,a0,0x17
    3e5e:	00800637          	lui	a2,0x800
    3e62:	fff60793          	addi	a5,a2,-1 # 7fffff <_data_lma+0x7f3253>
    3e66:	0ff77713          	andi	a4,a4,255
    3e6a:	07e00593          	li	a1,126
    3e6e:	00a7f6b3          	and	a3,a5,a0
    3e72:	01f55793          	srli	a5,a0,0x1f
    3e76:	4501                	li	a0,0
    3e78:	00e5f463          	bgeu	a1,a4,3e80 <__fixunssfsi+0x26>
    3e7c:	c399                	beqz	a5,3e82 <__fixunssfsi+0x28>
    3e7e:	8082                	ret
    3e80:	8082                	ret
    3e82:	09e00793          	li	a5,158
    3e86:	557d                	li	a0,-1
    3e88:	fee7ebe3          	bltu	a5,a4,3e7e <__fixunssfsi+0x24>
    3e8c:	09500593          	li	a1,149
    3e90:	00c6e7b3          	or	a5,a3,a2
    3e94:	00e5d763          	bge	a1,a4,3ea2 <__fixunssfsi+0x48>
    3e98:	f6a70713          	addi	a4,a4,-150
    3e9c:	00e79533          	sll	a0,a5,a4
    3ea0:	8082                	ret
    3ea2:	09600513          	li	a0,150
    3ea6:	40e50733          	sub	a4,a0,a4
    3eaa:	00e7d533          	srl	a0,a5,a4
    3eae:	8082                	ret

00003eb0 <exit>:
    3eb0:	1141                	addi	sp,sp,-16
    3eb2:	c422                	sw	s0,8(sp)
    3eb4:	c606                	sw	ra,12(sp)
    3eb6:	ffffc797          	auipc	a5,0xffffc
    3eba:	14a78793          	addi	a5,a5,330 # 0 <_sinit>
    3ebe:	842a                	mv	s0,a0
    3ec0:	c791                	beqz	a5,3ecc <exit+0x1c>
    3ec2:	4581                	li	a1,0
    3ec4:	00000097          	auipc	ra,0x0
    3ec8:	000000e7          	jalr	zero # 0 <_sinit>
    3ecc:	81418793          	addi	a5,gp,-2028 # 20000204 <_global_impure_ptr>
    3ed0:	4388                	lw	a0,0(a5)
    3ed2:	551c                	lw	a5,40(a0)
    3ed4:	c391                	beqz	a5,3ed8 <exit+0x28>
    3ed6:	9782                	jalr	a5
    3ed8:	8522                	mv	a0,s0
    3eda:	7ba050ef          	jal	ra,9694 <_exit>

00003ede <_fputs_r>:
    3ede:	1101                	addi	sp,sp,-32
    3ee0:	cc22                	sw	s0,24(sp)
    3ee2:	ca26                	sw	s1,20(sp)
    3ee4:	c84a                	sw	s2,16(sp)
    3ee6:	ce06                	sw	ra,28(sp)
    3ee8:	c64e                	sw	s3,12(sp)
    3eea:	c452                	sw	s4,8(sp)
    3eec:	84aa                	mv	s1,a0
    3eee:	892e                	mv	s2,a1
    3ef0:	8432                	mv	s0,a2
    3ef2:	c509                	beqz	a0,3efc <_fputs_r+0x1e>
    3ef4:	4d1c                	lw	a5,24(a0)
    3ef6:	e399                	bnez	a5,3efc <_fputs_r+0x1e>
    3ef8:	7d0010ef          	jal	ra,56c8 <__sinit>
    3efc:	00009797          	auipc	a5,0x9
    3f00:	bb078793          	addi	a5,a5,-1104 # caac <__sf_fake_stdin>
    3f04:	02f41063          	bne	s0,a5,3f24 <_fputs_r+0x46>
    3f08:	40c0                	lw	s0,4(s1)
    3f0a:	00c45783          	lhu	a5,12(s0)
    3f0e:	8ba1                	andi	a5,a5,8
    3f10:	cb95                	beqz	a5,3f44 <_fputs_r+0x66>
    3f12:	481c                	lw	a5,16(s0)
    3f14:	cb85                	beqz	a5,3f44 <_fputs_r+0x66>
    3f16:	59fd                	li	s3,-1
    3f18:	4a29                	li	s4,10
    3f1a:	00094583          	lbu	a1,0(s2)
    3f1e:	e1a9                	bnez	a1,3f60 <_fputs_r+0x82>
    3f20:	4501                	li	a0,0
    3f22:	a03d                	j	3f50 <_fputs_r+0x72>
    3f24:	00009797          	auipc	a5,0x9
    3f28:	ba878793          	addi	a5,a5,-1112 # cacc <__sf_fake_stdout>
    3f2c:	00f41463          	bne	s0,a5,3f34 <_fputs_r+0x56>
    3f30:	4480                	lw	s0,8(s1)
    3f32:	bfe1                	j	3f0a <_fputs_r+0x2c>
    3f34:	00009797          	auipc	a5,0x9
    3f38:	b5878793          	addi	a5,a5,-1192 # ca8c <__sf_fake_stderr>
    3f3c:	fcf417e3          	bne	s0,a5,3f0a <_fputs_r+0x2c>
    3f40:	44c0                	lw	s0,12(s1)
    3f42:	b7e1                	j	3f0a <_fputs_r+0x2c>
    3f44:	85a2                	mv	a1,s0
    3f46:	8526                	mv	a0,s1
    3f48:	410010ef          	jal	ra,5358 <__swsetup_r>
    3f4c:	d569                	beqz	a0,3f16 <_fputs_r+0x38>
    3f4e:	557d                	li	a0,-1
    3f50:	40f2                	lw	ra,28(sp)
    3f52:	4462                	lw	s0,24(sp)
    3f54:	44d2                	lw	s1,20(sp)
    3f56:	4942                	lw	s2,16(sp)
    3f58:	49b2                	lw	s3,12(sp)
    3f5a:	4a22                	lw	s4,8(sp)
    3f5c:	6105                	addi	sp,sp,32
    3f5e:	8082                	ret
    3f60:	441c                	lw	a5,8(s0)
    3f62:	0905                	addi	s2,s2,1
    3f64:	17fd                	addi	a5,a5,-1
    3f66:	c41c                	sw	a5,8(s0)
    3f68:	0007d763          	bgez	a5,3f76 <_fputs_r+0x98>
    3f6c:	4c18                	lw	a4,24(s0)
    3f6e:	00e7cb63          	blt	a5,a4,3f84 <_fputs_r+0xa6>
    3f72:	01458963          	beq	a1,s4,3f84 <_fputs_r+0xa6>
    3f76:	401c                	lw	a5,0(s0)
    3f78:	00178713          	addi	a4,a5,1
    3f7c:	c018                	sw	a4,0(s0)
    3f7e:	00b78023          	sb	a1,0(a5)
    3f82:	bf61                	j	3f1a <_fputs_r+0x3c>
    3f84:	8622                	mv	a2,s0
    3f86:	8526                	mv	a0,s1
    3f88:	2f0010ef          	jal	ra,5278 <__swbuf_r>
    3f8c:	f93517e3          	bne	a0,s3,3f1a <_fputs_r+0x3c>
    3f90:	bf7d                	j	3f4e <_fputs_r+0x70>

00003f92 <fputs>:
    3f92:	81018793          	addi	a5,gp,-2032 # 20000200 <_impure_ptr>
    3f96:	862e                	mv	a2,a1
    3f98:	85aa                	mv	a1,a0
    3f9a:	4388                	lw	a0,0(a5)
    3f9c:	b789                	j	3ede <_fputs_r>

00003f9e <__locale_ctype_ptr_l>:
    3f9e:	0ec52503          	lw	a0,236(a0)
    3fa2:	8082                	ret

00003fa4 <__locale_ctype_ptr>:
    3fa4:	81018793          	addi	a5,gp,-2032 # 20000200 <_impure_ptr>
    3fa8:	439c                	lw	a5,0(a5)
    3faa:	539c                	lw	a5,32(a5)
    3fac:	e789                	bnez	a5,3fb6 <__locale_ctype_ptr+0x12>
    3fae:	1fffc797          	auipc	a5,0x1fffc
    3fb2:	0d278793          	addi	a5,a5,210 # 20000080 <__global_locale>
    3fb6:	0ec7a503          	lw	a0,236(a5)
    3fba:	8082                	ret

00003fbc <malloc>:
    3fbc:	81018793          	addi	a5,gp,-2032 # 20000200 <_impure_ptr>
    3fc0:	85aa                	mv	a1,a0
    3fc2:	4388                	lw	a0,0(a5)
    3fc4:	a255                	j	4168 <_malloc_r>

00003fc6 <free>:
    3fc6:	81018793          	addi	a5,gp,-2032 # 20000200 <_impure_ptr>
    3fca:	85aa                	mv	a1,a0
    3fcc:	4388                	lw	a0,0(a5)
    3fce:	a8cd                	j	40c0 <_free_r>

00003fd0 <__ascii_mbtowc>:
    3fd0:	e185                	bnez	a1,3ff0 <__ascii_mbtowc+0x20>
    3fd2:	1141                	addi	sp,sp,-16
    3fd4:	006c                	addi	a1,sp,12
    3fd6:	4501                	li	a0,0
    3fd8:	ca11                	beqz	a2,3fec <__ascii_mbtowc+0x1c>
    3fda:	5579                	li	a0,-2
    3fdc:	ca81                	beqz	a3,3fec <__ascii_mbtowc+0x1c>
    3fde:	00064783          	lbu	a5,0(a2)
    3fe2:	c19c                	sw	a5,0(a1)
    3fe4:	00064503          	lbu	a0,0(a2)
    3fe8:	00a03533          	snez	a0,a0
    3fec:	0141                	addi	sp,sp,16
    3fee:	8082                	ret
    3ff0:	4501                	li	a0,0
    3ff2:	ca19                	beqz	a2,4008 <__ascii_mbtowc+0x38>
    3ff4:	5579                	li	a0,-2
    3ff6:	ca89                	beqz	a3,4008 <__ascii_mbtowc+0x38>
    3ff8:	00064783          	lbu	a5,0(a2)
    3ffc:	c19c                	sw	a5,0(a1)
    3ffe:	00064503          	lbu	a0,0(a2)
    4002:	00a03533          	snez	a0,a0
    4006:	8082                	ret
    4008:	8082                	ret

0000400a <memcpy>:
    400a:	00a5c7b3          	xor	a5,a1,a0
    400e:	8b8d                	andi	a5,a5,3
    4010:	00c50733          	add	a4,a0,a2
    4014:	e781                	bnez	a5,401c <memcpy+0x12>
    4016:	478d                	li	a5,3
    4018:	00c7ee63          	bltu	a5,a2,4034 <memcpy+0x2a>
    401c:	87aa                	mv	a5,a0
    401e:	0ae57063          	bgeu	a0,a4,40be <memcpy+0xb4>
    4022:	0005c683          	lbu	a3,0(a1)
    4026:	0785                	addi	a5,a5,1
    4028:	0585                	addi	a1,a1,1
    402a:	fed78fa3          	sb	a3,-1(a5)
    402e:	fee7eae3          	bltu	a5,a4,4022 <memcpy+0x18>
    4032:	8082                	ret
    4034:	00357693          	andi	a3,a0,3
    4038:	87aa                	mv	a5,a0
    403a:	ca91                	beqz	a3,404e <memcpy+0x44>
    403c:	0005c683          	lbu	a3,0(a1)
    4040:	0785                	addi	a5,a5,1
    4042:	0585                	addi	a1,a1,1
    4044:	fed78fa3          	sb	a3,-1(a5)
    4048:	0037f693          	andi	a3,a5,3
    404c:	b7fd                	j	403a <memcpy+0x30>
    404e:	ffc77693          	andi	a3,a4,-4
    4052:	fe068613          	addi	a2,a3,-32
    4056:	06c7f063          	bgeu	a5,a2,40b6 <memcpy+0xac>
    405a:	0005a383          	lw	t2,0(a1)
    405e:	0045a283          	lw	t0,4(a1)
    4062:	0085af83          	lw	t6,8(a1)
    4066:	00c5af03          	lw	t5,12(a1)
    406a:	0105ae83          	lw	t4,16(a1)
    406e:	0145ae03          	lw	t3,20(a1)
    4072:	0185a303          	lw	t1,24(a1)
    4076:	01c5a883          	lw	a7,28(a1)
    407a:	02458593          	addi	a1,a1,36
    407e:	0077a023          	sw	t2,0(a5)
    4082:	ffc5a803          	lw	a6,-4(a1)
    4086:	0057a223          	sw	t0,4(a5)
    408a:	01f7a423          	sw	t6,8(a5)
    408e:	01e7a623          	sw	t5,12(a5)
    4092:	01d7a823          	sw	t4,16(a5)
    4096:	01c7aa23          	sw	t3,20(a5)
    409a:	0067ac23          	sw	t1,24(a5)
    409e:	0117ae23          	sw	a7,28(a5)
    40a2:	02478793          	addi	a5,a5,36
    40a6:	ff07ae23          	sw	a6,-4(a5)
    40aa:	b775                	j	4056 <memcpy+0x4c>
    40ac:	4190                	lw	a2,0(a1)
    40ae:	0791                	addi	a5,a5,4
    40b0:	0591                	addi	a1,a1,4
    40b2:	fec7ae23          	sw	a2,-4(a5)
    40b6:	fed7ebe3          	bltu	a5,a3,40ac <memcpy+0xa2>
    40ba:	f6e7e4e3          	bltu	a5,a4,4022 <memcpy+0x18>
    40be:	8082                	ret

000040c0 <_free_r>:
    40c0:	c1dd                	beqz	a1,4166 <_free_r+0xa6>
    40c2:	ffc5a783          	lw	a5,-4(a1)
    40c6:	1141                	addi	sp,sp,-16
    40c8:	c422                	sw	s0,8(sp)
    40ca:	c606                	sw	ra,12(sp)
    40cc:	c226                	sw	s1,4(sp)
    40ce:	ffc58413          	addi	s0,a1,-4
    40d2:	0007d363          	bgez	a5,40d8 <_free_r+0x18>
    40d6:	943e                	add	s0,s0,a5
    40d8:	84aa                	mv	s1,a0
    40da:	7a9010ef          	jal	ra,6082 <__malloc_lock>
    40de:	82818793          	addi	a5,gp,-2008 # 20000218 <__malloc_free_list>
    40e2:	439c                	lw	a5,0(a5)
    40e4:	ef81                	bnez	a5,40fc <_free_r+0x3c>
    40e6:	00042223          	sw	zero,4(s0)
    40ea:	8281a423          	sw	s0,-2008(gp) # 20000218 <__malloc_free_list>
    40ee:	4422                	lw	s0,8(sp)
    40f0:	40b2                	lw	ra,12(sp)
    40f2:	8526                	mv	a0,s1
    40f4:	4492                	lw	s1,4(sp)
    40f6:	0141                	addi	sp,sp,16
    40f8:	78d0106f          	j	6084 <__malloc_unlock>
    40fc:	00f47e63          	bgeu	s0,a5,4118 <_free_r+0x58>
    4100:	4014                	lw	a3,0(s0)
    4102:	00d40733          	add	a4,s0,a3
    4106:	00e79663          	bne	a5,a4,4112 <_free_r+0x52>
    410a:	4398                	lw	a4,0(a5)
    410c:	43dc                	lw	a5,4(a5)
    410e:	9736                	add	a4,a4,a3
    4110:	c018                	sw	a4,0(s0)
    4112:	c05c                	sw	a5,4(s0)
    4114:	bfd9                	j	40ea <_free_r+0x2a>
    4116:	87ba                	mv	a5,a4
    4118:	43d8                	lw	a4,4(a5)
    411a:	c319                	beqz	a4,4120 <_free_r+0x60>
    411c:	fee47de3          	bgeu	s0,a4,4116 <_free_r+0x56>
    4120:	4394                	lw	a3,0(a5)
    4122:	00d78633          	add	a2,a5,a3
    4126:	00861f63          	bne	a2,s0,4144 <_free_r+0x84>
    412a:	4010                	lw	a2,0(s0)
    412c:	96b2                	add	a3,a3,a2
    412e:	c394                	sw	a3,0(a5)
    4130:	00d78633          	add	a2,a5,a3
    4134:	fac71de3          	bne	a4,a2,40ee <_free_r+0x2e>
    4138:	4310                	lw	a2,0(a4)
    413a:	4358                	lw	a4,4(a4)
    413c:	96b2                	add	a3,a3,a2
    413e:	c394                	sw	a3,0(a5)
    4140:	c3d8                	sw	a4,4(a5)
    4142:	b775                	j	40ee <_free_r+0x2e>
    4144:	00c47563          	bgeu	s0,a2,414e <_free_r+0x8e>
    4148:	47b1                	li	a5,12
    414a:	c09c                	sw	a5,0(s1)
    414c:	b74d                	j	40ee <_free_r+0x2e>
    414e:	4010                	lw	a2,0(s0)
    4150:	00c406b3          	add	a3,s0,a2
    4154:	00d71663          	bne	a4,a3,4160 <_free_r+0xa0>
    4158:	4314                	lw	a3,0(a4)
    415a:	4358                	lw	a4,4(a4)
    415c:	96b2                	add	a3,a3,a2
    415e:	c014                	sw	a3,0(s0)
    4160:	c058                	sw	a4,4(s0)
    4162:	c3c0                	sw	s0,4(a5)
    4164:	b769                	j	40ee <_free_r+0x2e>
    4166:	8082                	ret

00004168 <_malloc_r>:
    4168:	1101                	addi	sp,sp,-32
    416a:	ca26                	sw	s1,20(sp)
    416c:	00358493          	addi	s1,a1,3
    4170:	98f1                	andi	s1,s1,-4
    4172:	ce06                	sw	ra,28(sp)
    4174:	cc22                	sw	s0,24(sp)
    4176:	c84a                	sw	s2,16(sp)
    4178:	c64e                	sw	s3,12(sp)
    417a:	04a1                	addi	s1,s1,8
    417c:	47b1                	li	a5,12
    417e:	04f4f363          	bgeu	s1,a5,41c4 <_malloc_r+0x5c>
    4182:	44b1                	li	s1,12
    4184:	04b4e263          	bltu	s1,a1,41c8 <_malloc_r+0x60>
    4188:	892a                	mv	s2,a0
    418a:	6f9010ef          	jal	ra,6082 <__malloc_lock>
    418e:	82818793          	addi	a5,gp,-2008 # 20000218 <__malloc_free_list>
    4192:	4398                	lw	a4,0(a5)
    4194:	843a                	mv	s0,a4
    4196:	e039                	bnez	s0,41dc <_malloc_r+0x74>
    4198:	82c18793          	addi	a5,gp,-2004 # 2000021c <__malloc_sbrk_start>
    419c:	439c                	lw	a5,0(a5)
    419e:	e791                	bnez	a5,41aa <_malloc_r+0x42>
    41a0:	4581                	li	a1,0
    41a2:	854a                	mv	a0,s2
    41a4:	28e9                	jal	427e <_sbrk_r>
    41a6:	82a1a623          	sw	a0,-2004(gp) # 2000021c <__malloc_sbrk_start>
    41aa:	85a6                	mv	a1,s1
    41ac:	854a                	mv	a0,s2
    41ae:	28c1                	jal	427e <_sbrk_r>
    41b0:	59fd                	li	s3,-1
    41b2:	07351963          	bne	a0,s3,4224 <_malloc_r+0xbc>
    41b6:	47b1                	li	a5,12
    41b8:	00f92023          	sw	a5,0(s2)
    41bc:	854a                	mv	a0,s2
    41be:	6c7010ef          	jal	ra,6084 <__malloc_unlock>
    41c2:	a029                	j	41cc <_malloc_r+0x64>
    41c4:	fc04d0e3          	bgez	s1,4184 <_malloc_r+0x1c>
    41c8:	47b1                	li	a5,12
    41ca:	c11c                	sw	a5,0(a0)
    41cc:	4501                	li	a0,0
    41ce:	40f2                	lw	ra,28(sp)
    41d0:	4462                	lw	s0,24(sp)
    41d2:	44d2                	lw	s1,20(sp)
    41d4:	4942                	lw	s2,16(sp)
    41d6:	49b2                	lw	s3,12(sp)
    41d8:	6105                	addi	sp,sp,32
    41da:	8082                	ret
    41dc:	401c                	lw	a5,0(s0)
    41de:	8f85                	sub	a5,a5,s1
    41e0:	0207cf63          	bltz	a5,421e <_malloc_r+0xb6>
    41e4:	46ad                	li	a3,11
    41e6:	00f6f663          	bgeu	a3,a5,41f2 <_malloc_r+0x8a>
    41ea:	c01c                	sw	a5,0(s0)
    41ec:	943e                	add	s0,s0,a5
    41ee:	c004                	sw	s1,0(s0)
    41f0:	a031                	j	41fc <_malloc_r+0x94>
    41f2:	405c                	lw	a5,4(s0)
    41f4:	02871363          	bne	a4,s0,421a <_malloc_r+0xb2>
    41f8:	82f1a423          	sw	a5,-2008(gp) # 20000218 <__malloc_free_list>
    41fc:	854a                	mv	a0,s2
    41fe:	687010ef          	jal	ra,6084 <__malloc_unlock>
    4202:	00b40513          	addi	a0,s0,11
    4206:	00440793          	addi	a5,s0,4
    420a:	9961                	andi	a0,a0,-8
    420c:	40f50733          	sub	a4,a0,a5
    4210:	df5d                	beqz	a4,41ce <_malloc_r+0x66>
    4212:	943a                	add	s0,s0,a4
    4214:	8f89                	sub	a5,a5,a0
    4216:	c01c                	sw	a5,0(s0)
    4218:	bf5d                	j	41ce <_malloc_r+0x66>
    421a:	c35c                	sw	a5,4(a4)
    421c:	b7c5                	j	41fc <_malloc_r+0x94>
    421e:	8722                	mv	a4,s0
    4220:	4040                	lw	s0,4(s0)
    4222:	bf95                	j	4196 <_malloc_r+0x2e>
    4224:	00350413          	addi	s0,a0,3
    4228:	9871                	andi	s0,s0,-4
    422a:	fc8502e3          	beq	a0,s0,41ee <_malloc_r+0x86>
    422e:	40a405b3          	sub	a1,s0,a0
    4232:	854a                	mv	a0,s2
    4234:	20a9                	jal	427e <_sbrk_r>
    4236:	fb351ce3          	bne	a0,s3,41ee <_malloc_r+0x86>
    423a:	bfb5                	j	41b6 <_malloc_r+0x4e>

0000423c <iprintf>:
    423c:	7139                	addi	sp,sp,-64
    423e:	da3e                	sw	a5,52(sp)
    4240:	d22e                	sw	a1,36(sp)
    4242:	d432                	sw	a2,40(sp)
    4244:	d636                	sw	a3,44(sp)
    4246:	d83a                	sw	a4,48(sp)
    4248:	dc42                	sw	a6,56(sp)
    424a:	de46                	sw	a7,60(sp)
    424c:	81018793          	addi	a5,gp,-2032 # 20000200 <_impure_ptr>
    4250:	cc22                	sw	s0,24(sp)
    4252:	4380                	lw	s0,0(a5)
    4254:	ca26                	sw	s1,20(sp)
    4256:	ce06                	sw	ra,28(sp)
    4258:	84aa                	mv	s1,a0
    425a:	c411                	beqz	s0,4266 <iprintf+0x2a>
    425c:	4c1c                	lw	a5,24(s0)
    425e:	e781                	bnez	a5,4266 <iprintf+0x2a>
    4260:	8522                	mv	a0,s0
    4262:	466010ef          	jal	ra,56c8 <__sinit>
    4266:	440c                	lw	a1,8(s0)
    4268:	1054                	addi	a3,sp,36
    426a:	8626                	mv	a2,s1
    426c:	8522                	mv	a0,s0
    426e:	c636                	sw	a3,12(sp)
    4270:	3a7020ef          	jal	ra,6e16 <_vfiprintf_r>
    4274:	40f2                	lw	ra,28(sp)
    4276:	4462                	lw	s0,24(sp)
    4278:	44d2                	lw	s1,20(sp)
    427a:	6121                	addi	sp,sp,64
    427c:	8082                	ret

0000427e <_sbrk_r>:
    427e:	1141                	addi	sp,sp,-16
    4280:	c422                	sw	s0,8(sp)
    4282:	842a                	mv	s0,a0
    4284:	852e                	mv	a0,a1
    4286:	e801a223          	sw	zero,-380(gp) # 20000874 <errno>
    428a:	c606                	sw	ra,12(sp)
    428c:	ba9ff0ef          	jal	ra,3e34 <_sbrk>
    4290:	57fd                	li	a5,-1
    4292:	00f51763          	bne	a0,a5,42a0 <_sbrk_r+0x22>
    4296:	e8418793          	addi	a5,gp,-380 # 20000874 <errno>
    429a:	439c                	lw	a5,0(a5)
    429c:	c391                	beqz	a5,42a0 <_sbrk_r+0x22>
    429e:	c01c                	sw	a5,0(s0)
    42a0:	40b2                	lw	ra,12(sp)
    42a2:	4422                	lw	s0,8(sp)
    42a4:	0141                	addi	sp,sp,16
    42a6:	8082                	ret

000042a8 <sniprintf>:
    42a8:	7135                	addi	sp,sp,-160
    42aa:	cb3e                	sw	a5,148(sp)
    42ac:	daa6                	sw	s1,116(sp)
    42ae:	c736                	sw	a3,140(sp)
    42b0:	c93a                	sw	a4,144(sp)
    42b2:	cd42                	sw	a6,152(sp)
    42b4:	cf46                	sw	a7,156(sp)
    42b6:	81018793          	addi	a5,gp,-2032 # 20000200 <_impure_ptr>
    42ba:	de86                	sw	ra,124(sp)
    42bc:	dca2                	sw	s0,120(sp)
    42be:	4384                	lw	s1,0(a5)
    42c0:	0005db63          	bgez	a1,42d6 <sniprintf+0x2e>
    42c4:	08b00793          	li	a5,139
    42c8:	c09c                	sw	a5,0(s1)
    42ca:	557d                	li	a0,-1
    42cc:	50f6                	lw	ra,124(sp)
    42ce:	5466                	lw	s0,120(sp)
    42d0:	54d6                	lw	s1,116(sp)
    42d2:	610d                	addi	sp,sp,160
    42d4:	8082                	ret
    42d6:	20800793          	li	a5,520
    42da:	00f11a23          	sh	a5,20(sp)
    42de:	c42a                	sw	a0,8(sp)
    42e0:	cc2a                	sw	a0,24(sp)
    42e2:	4781                	li	a5,0
    42e4:	c199                	beqz	a1,42ea <sniprintf+0x42>
    42e6:	fff58793          	addi	a5,a1,-1
    42ea:	c83e                	sw	a5,16(sp)
    42ec:	ce3e                	sw	a5,28(sp)
    42ee:	0174                	addi	a3,sp,140
    42f0:	57fd                	li	a5,-1
    42f2:	842e                	mv	s0,a1
    42f4:	8526                	mv	a0,s1
    42f6:	002c                	addi	a1,sp,8
    42f8:	00f11b23          	sh	a5,22(sp)
    42fc:	c236                	sw	a3,4(sp)
    42fe:	02b020ef          	jal	ra,6b28 <_svfiprintf_r>
    4302:	57fd                	li	a5,-1
    4304:	00f55563          	bge	a0,a5,430e <sniprintf+0x66>
    4308:	08b00793          	li	a5,139
    430c:	c09c                	sw	a5,0(s1)
    430e:	dc5d                	beqz	s0,42cc <sniprintf+0x24>
    4310:	47a2                	lw	a5,8(sp)
    4312:	00078023          	sb	zero,0(a5)
    4316:	bf5d                	j	42cc <sniprintf+0x24>

00004318 <strlen>:
    4318:	87aa                	mv	a5,a0
    431a:	0785                	addi	a5,a5,1
    431c:	fff7c703          	lbu	a4,-1(a5)
    4320:	ff6d                	bnez	a4,431a <strlen+0x2>
    4322:	40a78533          	sub	a0,a5,a0
    4326:	157d                	addi	a0,a0,-1
    4328:	8082                	ret

0000432a <strstr>:
    432a:	00054703          	lbu	a4,0(a0)
    432e:	0005c783          	lbu	a5,0(a1)
    4332:	e701                	bnez	a4,433a <strstr+0x10>
    4334:	c391                	beqz	a5,4338 <strstr+0xe>
    4336:	4501                	li	a0,0
    4338:	8082                	ret
    433a:	4781                	li	a5,0
    433c:	a801                	j	434c <strstr+0x22>
    433e:	00154783          	lbu	a5,1(a0)
    4342:	00150713          	addi	a4,a0,1
    4346:	dbe5                	beqz	a5,4336 <strstr+0xc>
    4348:	4781                	li	a5,0
    434a:	853a                	mv	a0,a4
    434c:	00f58733          	add	a4,a1,a5
    4350:	00074703          	lbu	a4,0(a4)
    4354:	d375                	beqz	a4,4338 <strstr+0xe>
    4356:	00f506b3          	add	a3,a0,a5
    435a:	0006c683          	lbu	a3,0(a3)
    435e:	fee690e3          	bne	a3,a4,433e <strstr+0x14>
    4362:	0785                	addi	a5,a5,1
    4364:	872a                	mv	a4,a0
    4366:	b7d5                	j	434a <strstr+0x20>

00004368 <sulp>:
    4368:	1101                	addi	sp,sp,-32
    436a:	cc22                	sw	s0,24(sp)
    436c:	872a                	mv	a4,a0
    436e:	842e                	mv	s0,a1
    4370:	853a                	mv	a0,a4
    4372:	85a2                	mv	a1,s0
    4374:	c632                	sw	a2,12(sp)
    4376:	ce06                	sw	ra,28(sp)
    4378:	3dc020ef          	jal	ra,6754 <__ulp>
    437c:	4632                	lw	a2,12(sp)
    437e:	882a                	mv	a6,a0
    4380:	88ae                	mv	a7,a1
    4382:	c605                	beqz	a2,43aa <sulp+0x42>
    4384:	8051                	srli	s0,s0,0x14
    4386:	7ff47413          	andi	s0,s0,2047
    438a:	06b00793          	li	a5,107
    438e:	8f81                	sub	a5,a5,s0
    4390:	00f05d63          	blez	a5,43aa <sulp+0x42>
    4394:	07d2                	slli	a5,a5,0x14
    4396:	3ff00737          	lui	a4,0x3ff00
    439a:	4801                	li	a6,0
    439c:	973e                	add	a4,a4,a5
    439e:	8642                	mv	a2,a6
    43a0:	86ba                	mv	a3,a4
    43a2:	244040ef          	jal	ra,85e6 <__muldf3>
    43a6:	882a                	mv	a6,a0
    43a8:	88ae                	mv	a7,a1
    43aa:	40f2                	lw	ra,28(sp)
    43ac:	4462                	lw	s0,24(sp)
    43ae:	8542                	mv	a0,a6
    43b0:	85c6                	mv	a1,a7
    43b2:	6105                	addi	sp,sp,32
    43b4:	8082                	ret

000043b6 <_strtod_l>:
    43b6:	7135                	addi	sp,sp,-160
    43b8:	c94a                	sw	s2,144(sp)
    43ba:	892a                	mv	s2,a0
    43bc:	8536                	mv	a0,a3
    43be:	d432                	sw	a2,40(sp)
    43c0:	c636                	sw	a3,12(sp)
    43c2:	cf06                	sw	ra,156(sp)
    43c4:	cd22                	sw	s0,152(sp)
    43c6:	cb26                	sw	s1,148(sp)
    43c8:	c74e                	sw	s3,140(sp)
    43ca:	d8ea                	sw	s10,112(sp)
    43cc:	d6ee                	sw	s11,108(sp)
    43ce:	8d2e                	mv	s10,a1
    43d0:	c552                	sw	s4,136(sp)
    43d2:	c356                	sw	s5,132(sp)
    43d4:	c15a                	sw	s6,128(sp)
    43d6:	dede                	sw	s7,124(sp)
    43d8:	dce2                	sw	s8,120(sp)
    43da:	dae6                	sw	s9,116(sp)
    43dc:	c882                	sw	zero,80(sp)
    43de:	3a3010ef          	jal	ra,5f80 <__localeconv_l>
    43e2:	8daa                	mv	s11,a0
    43e4:	4108                	lw	a0,0(a0)
    43e6:	4481                	li	s1,0
    43e8:	4401                	li	s0,0
    43ea:	373d                	jal	4318 <strlen>
    43ec:	46b2                	lw	a3,12(sp)
    43ee:	89aa                	mv	s3,a0
    43f0:	c6ea                	sw	s10,76(sp)
    43f2:	4635                	li	a2,13
    43f4:	02b00593          	li	a1,43
    43f8:	02d00513          	li	a0,45
    43fc:	02000813          	li	a6,32
    4400:	48a5                	li	a7,9
    4402:	47b6                	lw	a5,76(sp)
    4404:	0007c703          	lbu	a4,0(a5)
    4408:	08e66b63          	bltu	a2,a4,449e <_strtod_l+0xe8>
    440c:	09177f63          	bgeu	a4,a7,44aa <_strtod_l+0xf4>
    4410:	c75d                	beqz	a4,44be <_strtod_l+0x108>
    4412:	c802                	sw	zero,16(sp)
    4414:	4a36                	lw	s4,76(sp)
    4416:	03000793          	li	a5,48
    441a:	4a81                	li	s5,0
    441c:	000a4703          	lbu	a4,0(s4)
    4420:	12f71d63          	bne	a4,a5,455a <_strtod_l+0x1a4>
    4424:	001a4783          	lbu	a5,1(s4)
    4428:	05800713          	li	a4,88
    442c:	00e78863          	beq	a5,a4,443c <_strtod_l+0x86>
    4430:	07800613          	li	a2,120
    4434:	03000713          	li	a4,48
    4438:	10c79763          	bne	a5,a2,4546 <_strtod_l+0x190>
    443c:	47c2                	lw	a5,16(sp)
    443e:	8836                	mv	a6,a3
    4440:	0898                	addi	a4,sp,80
    4442:	08d4                	addi	a3,sp,84
    4444:	00008617          	auipc	a2,0x8
    4448:	4e460613          	addi	a2,a2,1252 # c928 <fpi.3395>
    444c:	00ec                	addi	a1,sp,76
    444e:	854a                	mv	a0,s2
    4450:	4a6010ef          	jal	ra,58f6 <__gethex>
    4454:	00757993          	andi	s3,a0,7
    4458:	8aaa                	mv	s5,a0
    445a:	00098863          	beqz	s3,446a <_strtod_l+0xb4>
    445e:	4799                	li	a5,6
    4460:	06f99863          	bne	s3,a5,44d0 <_strtod_l+0x11a>
    4464:	0a05                	addi	s4,s4,1
    4466:	c6d2                	sw	s4,76(sp)
    4468:	c802                	sw	zero,16(sp)
    446a:	57a2                	lw	a5,40(sp)
    446c:	c781                	beqz	a5,4474 <_strtod_l+0xbe>
    446e:	47b6                	lw	a5,76(sp)
    4470:	5722                	lw	a4,40(sp)
    4472:	c31c                	sw	a5,0(a4)
    4474:	47c2                	lw	a5,16(sp)
    4476:	cba1                	beqz	a5,44c6 <_strtod_l+0x110>
    4478:	800005b7          	lui	a1,0x80000
    447c:	8da1                	xor	a1,a1,s0
    447e:	40fa                	lw	ra,156(sp)
    4480:	446a                	lw	s0,152(sp)
    4482:	8526                	mv	a0,s1
    4484:	494a                	lw	s2,144(sp)
    4486:	44da                	lw	s1,148(sp)
    4488:	49ba                	lw	s3,140(sp)
    448a:	4a2a                	lw	s4,136(sp)
    448c:	4a9a                	lw	s5,132(sp)
    448e:	4b0a                	lw	s6,128(sp)
    4490:	5bf6                	lw	s7,124(sp)
    4492:	5c66                	lw	s8,120(sp)
    4494:	5cd6                	lw	s9,116(sp)
    4496:	5d46                	lw	s10,112(sp)
    4498:	5db6                	lw	s11,108(sp)
    449a:	610d                	addi	sp,sp,160
    449c:	8082                	ret
    449e:	00b70963          	beq	a4,a1,44b0 <_strtod_l+0xfa>
    44a2:	02a70463          	beq	a4,a0,44ca <_strtod_l+0x114>
    44a6:	f70716e3          	bne	a4,a6,4412 <_strtod_l+0x5c>
    44aa:	0785                	addi	a5,a5,1
    44ac:	c6be                	sw	a5,76(sp)
    44ae:	bf91                	j	4402 <_strtod_l+0x4c>
    44b0:	c802                	sw	zero,16(sp)
    44b2:	00178713          	addi	a4,a5,1
    44b6:	c6ba                	sw	a4,76(sp)
    44b8:	0017c783          	lbu	a5,1(a5)
    44bc:	ffa1                	bnez	a5,4414 <_strtod_l+0x5e>
    44be:	57a2                	lw	a5,40(sp)
    44c0:	c6ea                	sw	s10,76(sp)
    44c2:	c802                	sw	zero,16(sp)
    44c4:	f7cd                	bnez	a5,446e <_strtod_l+0xb8>
    44c6:	85a2                	mv	a1,s0
    44c8:	bf5d                	j	447e <_strtod_l+0xc8>
    44ca:	4705                	li	a4,1
    44cc:	c83a                	sw	a4,16(sp)
    44ce:	b7d5                	j	44b2 <_strtod_l+0xfc>
    44d0:	4646                	lw	a2,80(sp)
    44d2:	ca11                	beqz	a2,44e6 <_strtod_l+0x130>
    44d4:	03500593          	li	a1,53
    44d8:	08a8                	addi	a0,sp,88
    44da:	4bc020ef          	jal	ra,6996 <__copybits>
    44de:	45c6                	lw	a1,80(sp)
    44e0:	854a                	mv	a0,s2
    44e2:	431010ef          	jal	ra,6112 <_Bfree>
    44e6:	19fd                	addi	s3,s3,-1
    44e8:	4791                	li	a5,4
    44ea:	0137ee63          	bltu	a5,s3,4506 <_strtod_l+0x150>
    44ee:	00008717          	auipc	a4,0x8
    44f2:	3de70713          	addi	a4,a4,990 # c8cc <asc2_3216+0x18ac>
    44f6:	098a                	slli	s3,s3,0x2
    44f8:	99ba                	add	s3,s3,a4
    44fa:	0009a783          	lw	a5,0(s3)
    44fe:	97ba                	add	a5,a5,a4
    4500:	8782                	jr	a5
    4502:	44e6                	lw	s1,88(sp)
    4504:	4476                	lw	s0,92(sp)
    4506:	008afa93          	andi	s5,s5,8
    450a:	f60a80e3          	beqz	s5,446a <_strtod_l+0xb4>
    450e:	800007b7          	lui	a5,0x80000
    4512:	8c5d                	or	s0,s0,a5
    4514:	bf99                	j	446a <_strtod_l+0xb4>
    4516:	45f6                	lw	a1,92(sp)
    4518:	fff00437          	lui	s0,0xfff00
    451c:	147d                	addi	s0,s0,-1
    451e:	0085f7b3          	and	a5,a1,s0
    4522:	4456                	lw	s0,84(sp)
    4524:	44e6                	lw	s1,88(sp)
    4526:	43340413          	addi	s0,s0,1075 # fff00433 <_eusrstack+0xdfef8433>
    452a:	01441593          	slli	a1,s0,0x14
    452e:	00b7e433          	or	s0,a5,a1
    4532:	bfd1                	j	4506 <_strtod_l+0x150>
    4534:	7ff00437          	lui	s0,0x7ff00
    4538:	b7f9                	j	4506 <_strtod_l+0x150>
    453a:	800005b7          	lui	a1,0x80000
    453e:	fff5c413          	not	s0,a1
    4542:	54fd                	li	s1,-1
    4544:	b7c9                	j	4506 <_strtod_l+0x150>
    4546:	47b6                	lw	a5,76(sp)
    4548:	00178693          	addi	a3,a5,1 # 80000001 <_eusrstack+0x5fff8001>
    454c:	c6b6                	sw	a3,76(sp)
    454e:	0017c783          	lbu	a5,1(a5)
    4552:	fee78ae3          	beq	a5,a4,4546 <_strtod_l+0x190>
    4556:	db91                	beqz	a5,446a <_strtod_l+0xb4>
    4558:	4a85                	li	s5,1
    455a:	4cb6                	lw	s9,76(sp)
    455c:	4a01                	li	s4,0
    455e:	4b81                	li	s7,0
    4560:	4c01                	li	s8,0
    4562:	46a5                	li	a3,9
    4564:	45a1                	li	a1,8
    4566:	47a9                	li	a5,10
    4568:	4536                	lw	a0,76(sp)
    456a:	00054b03          	lbu	s6,0(a0)
    456e:	fd0b0713          	addi	a4,s6,-48 # cfd0 <_data_lma+0x224>
    4572:	0ff77613          	andi	a2,a4,255
    4576:	04c6fd63          	bgeu	a3,a2,45d0 <_strtod_l+0x21a>
    457a:	000da583          	lw	a1,0(s11)
    457e:	864e                	mv	a2,s3
    4580:	7af020ef          	jal	ra,752e <strncmp>
    4584:	c13d                	beqz	a0,45ea <_strtod_l+0x234>
    4586:	87da                	mv	a5,s6
    4588:	8de2                	mv	s11,s8
    458a:	4681                	li	a3,0
    458c:	4b01                	li	s6,0
    458e:	4501                	li	a0,0
    4590:	06500713          	li	a4,101
    4594:	00e78763          	beq	a5,a4,45a2 <_strtod_l+0x1ec>
    4598:	04500713          	li	a4,69
    459c:	4981                	li	s3,0
    459e:	16e79963          	bne	a5,a4,4710 <_strtod_l+0x35a>
    45a2:	000d9663          	bnez	s11,45ae <_strtod_l+0x1f8>
    45a6:	0156e7b3          	or	a5,a3,s5
    45aa:	db91                	beqz	a5,44be <_strtod_l+0x108>
    45ac:	4d81                	li	s11,0
    45ae:	4d36                	lw	s10,76(sp)
    45b0:	02b00713          	li	a4,43
    45b4:	001d0793          	addi	a5,s10,1 # 10001 <_data_lma+0x3255>
    45b8:	c6be                	sw	a5,76(sp)
    45ba:	001d4783          	lbu	a5,1(s10)
    45be:	0ee78263          	beq	a5,a4,46a2 <_strtod_l+0x2ec>
    45c2:	02d00713          	li	a4,45
    45c6:	4801                	li	a6,0
    45c8:	0ee79363          	bne	a5,a4,46ae <_strtod_l+0x2f8>
    45cc:	4805                	li	a6,1
    45ce:	a8d9                	j	46a4 <_strtod_l+0x2ee>
    45d0:	0185c963          	blt	a1,s8,45e2 <_strtod_l+0x22c>
    45d4:	02fb8bb3          	mul	s7,s7,a5
    45d8:	9bba                	add	s7,s7,a4
    45da:	0505                	addi	a0,a0,1
    45dc:	0c05                	addi	s8,s8,1
    45de:	c6aa                	sw	a0,76(sp)
    45e0:	b761                	j	4568 <_strtod_l+0x1b2>
    45e2:	02fa0a33          	mul	s4,s4,a5
    45e6:	9a3a                	add	s4,s4,a4
    45e8:	bfcd                	j	45da <_strtod_l+0x224>
    45ea:	4536                	lw	a0,76(sp)
    45ec:	4681                	li	a3,0
    45ee:	954e                	add	a0,a0,s3
    45f0:	c6aa                	sw	a0,76(sp)
    45f2:	00054783          	lbu	a5,0(a0)
    45f6:	060c0d63          	beqz	s8,4670 <_strtod_l+0x2ba>
    45fa:	4b01                	li	s6,0
    45fc:	8de2                	mv	s11,s8
    45fe:	fd078713          	addi	a4,a5,-48
    4602:	4625                	li	a2,9
    4604:	02e67663          	bgeu	a2,a4,4630 <_strtod_l+0x27a>
    4608:	4505                	li	a0,1
    460a:	b759                	j	4590 <_strtod_l+0x1da>
    460c:	47b6                	lw	a5,76(sp)
    460e:	0685                	addi	a3,a3,1
    4610:	00178613          	addi	a2,a5,1
    4614:	c6b2                	sw	a2,76(sp)
    4616:	0017c783          	lbu	a5,1(a5)
    461a:	fee789e3          	beq	a5,a4,460c <_strtod_l+0x256>
    461e:	fcf78713          	addi	a4,a5,-49
    4622:	4621                	li	a2,8
    4624:	1ee66ae3          	bltu	a2,a4,5018 <_strtod_l+0xc62>
    4628:	4cb6                	lw	s9,76(sp)
    462a:	8b36                	mv	s6,a3
    462c:	4d81                	li	s11,0
    462e:	4681                	li	a3,0
    4630:	fd078793          	addi	a5,a5,-48
    4634:	00168713          	addi	a4,a3,1
    4638:	c785                	beqz	a5,4660 <_strtod_l+0x2aa>
    463a:	9b3a                	add	s6,s6,a4
    463c:	01b68533          	add	a0,a3,s11
    4640:	876e                	mv	a4,s11
    4642:	4821                	li	a6,8
    4644:	48c1                	li	a7,16
    4646:	4629                	li	a2,10
    4648:	02a71763          	bne	a4,a0,4676 <_strtod_l+0x2c0>
    464c:	0d85                	addi	s11,s11,1
    464e:	9db6                	add	s11,s11,a3
    4650:	46a1                	li	a3,8
    4652:	02e6cf63          	blt	a3,a4,4690 <_strtod_l+0x2da>
    4656:	4729                	li	a4,10
    4658:	02eb8bb3          	mul	s7,s7,a4
    465c:	4701                	li	a4,0
    465e:	9bbe                	add	s7,s7,a5
    4660:	47b6                	lw	a5,76(sp)
    4662:	00178693          	addi	a3,a5,1
    4666:	c6b6                	sw	a3,76(sp)
    4668:	0017c783          	lbu	a5,1(a5)
    466c:	86ba                	mv	a3,a4
    466e:	bf41                	j	45fe <_strtod_l+0x248>
    4670:	03000713          	li	a4,48
    4674:	b75d                	j	461a <_strtod_l+0x264>
    4676:	00170593          	addi	a1,a4,1
    467a:	00e84663          	blt	a6,a4,4686 <_strtod_l+0x2d0>
    467e:	02cb8bb3          	mul	s7,s7,a2
    4682:	872e                	mv	a4,a1
    4684:	b7d1                	j	4648 <_strtod_l+0x292>
    4686:	feb8cee3          	blt	a7,a1,4682 <_strtod_l+0x2cc>
    468a:	02ca0a33          	mul	s4,s4,a2
    468e:	bfd5                	j	4682 <_strtod_l+0x2cc>
    4690:	46c1                	li	a3,16
    4692:	4701                	li	a4,0
    4694:	fdb6c6e3          	blt	a3,s11,4660 <_strtod_l+0x2aa>
    4698:	46a9                	li	a3,10
    469a:	02da0a33          	mul	s4,s4,a3
    469e:	9a3e                	add	s4,s4,a5
    46a0:	b7c1                	j	4660 <_strtod_l+0x2aa>
    46a2:	4801                	li	a6,0
    46a4:	002d0793          	addi	a5,s10,2
    46a8:	c6be                	sw	a5,76(sp)
    46aa:	002d4783          	lbu	a5,2(s10)
    46ae:	fd078713          	addi	a4,a5,-48
    46b2:	4625                	li	a2,9
    46b4:	0ce66763          	bltu	a2,a4,4782 <_strtod_l+0x3cc>
    46b8:	03000713          	li	a4,48
    46bc:	0ae78663          	beq	a5,a4,4768 <_strtod_l+0x3b2>
    46c0:	fcf78713          	addi	a4,a5,-49
    46c4:	4621                	li	a2,8
    46c6:	4981                	li	s3,0
    46c8:	04e66463          	bltu	a2,a4,4710 <_strtod_l+0x35a>
    46cc:	48b6                	lw	a7,76(sp)
    46ce:	fd078713          	addi	a4,a5,-48
    46d2:	4325                	li	t1,9
    46d4:	4e29                	li	t3,10
    46d6:	47b6                	lw	a5,76(sp)
    46d8:	00178613          	addi	a2,a5,1
    46dc:	c6b2                	sw	a2,76(sp)
    46de:	0017c783          	lbu	a5,1(a5)
    46e2:	fd078593          	addi	a1,a5,-48
    46e6:	0ff5f593          	andi	a1,a1,255
    46ea:	08b37663          	bgeu	t1,a1,4776 <_strtod_l+0x3c0>
    46ee:	6995                	lui	s3,0x5
    46f0:	41160633          	sub	a2,a2,a7
    46f4:	e1f98993          	addi	s3,s3,-481 # 4e1f <_strtod_l+0xa69>
    46f8:	48a1                	li	a7,8
    46fa:	85ce                	mv	a1,s3
    46fc:	00c8c663          	blt	a7,a2,4708 <_strtod_l+0x352>
    4700:	89ba                	mv	s3,a4
    4702:	00e5d363          	bge	a1,a4,4708 <_strtod_l+0x352>
    4706:	89ae                	mv	s3,a1
    4708:	00080463          	beqz	a6,4710 <_strtod_l+0x35a>
    470c:	413009b3          	neg	s3,s3
    4710:	0c0d9863          	bnez	s11,47e0 <_strtod_l+0x42a>
    4714:	00dae6b3          	or	a3,s5,a3
    4718:	d40699e3          	bnez	a3,446a <_strtod_l+0xb4>
    471c:	da0511e3          	bnez	a0,44be <_strtod_l+0x108>
    4720:	04e00713          	li	a4,78
    4724:	06e78a63          	beq	a5,a4,4798 <_strtod_l+0x3e2>
    4728:	06f74063          	blt	a4,a5,4788 <_strtod_l+0x3d2>
    472c:	04900713          	li	a4,73
    4730:	d8e797e3          	bne	a5,a4,44be <_strtod_l+0x108>
    4734:	00008597          	auipc	a1,0x8
    4738:	1e458593          	addi	a1,a1,484 # c918 <asc2_3216+0x18f8>
    473c:	00e8                	addi	a0,sp,76
    473e:	6b2010ef          	jal	ra,5df0 <__match>
    4742:	d6050ee3          	beqz	a0,44be <_strtod_l+0x108>
    4746:	47b6                	lw	a5,76(sp)
    4748:	00008597          	auipc	a1,0x8
    474c:	1d458593          	addi	a1,a1,468 # c91c <asc2_3216+0x18fc>
    4750:	00e8                	addi	a0,sp,76
    4752:	17fd                	addi	a5,a5,-1
    4754:	c6be                	sw	a5,76(sp)
    4756:	69a010ef          	jal	ra,5df0 <__match>
    475a:	e501                	bnez	a0,4762 <_strtod_l+0x3ac>
    475c:	47b6                	lw	a5,76(sp)
    475e:	0785                	addi	a5,a5,1
    4760:	c6be                	sw	a5,76(sp)
    4762:	7ff00437          	lui	s0,0x7ff00
    4766:	b311                	j	446a <_strtod_l+0xb4>
    4768:	47b6                	lw	a5,76(sp)
    476a:	00178613          	addi	a2,a5,1
    476e:	c6b2                	sw	a2,76(sp)
    4770:	0017c783          	lbu	a5,1(a5)
    4774:	b7a1                	j	46bc <_strtod_l+0x306>
    4776:	03c70733          	mul	a4,a4,t3
    477a:	97ba                	add	a5,a5,a4
    477c:	fd078713          	addi	a4,a5,-48
    4780:	bf99                	j	46d6 <_strtod_l+0x320>
    4782:	c6ea                	sw	s10,76(sp)
    4784:	4981                	li	s3,0
    4786:	b769                	j	4710 <_strtod_l+0x35a>
    4788:	06900713          	li	a4,105
    478c:	fae784e3          	beq	a5,a4,4734 <_strtod_l+0x37e>
    4790:	06e00713          	li	a4,110
    4794:	d2e795e3          	bne	a5,a4,44be <_strtod_l+0x108>
    4798:	00008597          	auipc	a1,0x8
    479c:	18c58593          	addi	a1,a1,396 # c924 <asc2_3216+0x1904>
    47a0:	00e8                	addi	a0,sp,76
    47a2:	64e010ef          	jal	ra,5df0 <__match>
    47a6:	d0050ce3          	beqz	a0,44be <_strtod_l+0x108>
    47aa:	47b6                	lw	a5,76(sp)
    47ac:	0007c703          	lbu	a4,0(a5)
    47b0:	02800793          	li	a5,40
    47b4:	02f71363          	bne	a4,a5,47da <_strtod_l+0x424>
    47b8:	08b0                	addi	a2,sp,88
    47ba:	00008597          	auipc	a1,0x8
    47be:	18258593          	addi	a1,a1,386 # c93c <fpinan.3431>
    47c2:	00e8                	addi	a0,sp,76
    47c4:	65c010ef          	jal	ra,5e20 <__hexnan>
    47c8:	4795                	li	a5,5
    47ca:	00f51863          	bne	a0,a5,47da <_strtod_l+0x424>
    47ce:	45f6                	lw	a1,92(sp)
    47d0:	7ff00437          	lui	s0,0x7ff00
    47d4:	44e6                	lw	s1,88(sp)
    47d6:	8c4d                	or	s0,s0,a1
    47d8:	b949                	j	446a <_strtod_l+0xb4>
    47da:	fff80437          	lui	s0,0xfff80
    47de:	b171                	j	446a <_strtod_l+0xb4>
    47e0:	41698ab3          	sub	s5,s3,s6
    47e4:	000c1363          	bnez	s8,47ea <_strtod_l+0x434>
    47e8:	8c6e                	mv	s8,s11
    47ea:	47c1                	li	a5,16
    47ec:	8d6e                	mv	s10,s11
    47ee:	01b7d363          	bge	a5,s11,47f4 <_strtod_l+0x43e>
    47f2:	4d41                	li	s10,16
    47f4:	855e                	mv	a0,s7
    47f6:	355040ef          	jal	ra,934a <__floatunsidf>
    47fa:	47a5                	li	a5,9
    47fc:	84aa                	mv	s1,a0
    47fe:	842e                	mv	s0,a1
    4800:	03b7dc63          	bge	a5,s11,4838 <_strtod_l+0x482>
    4804:	ff7d0793          	addi	a5,s10,-9
    4808:	00379713          	slli	a4,a5,0x3
    480c:	00008797          	auipc	a5,0x8
    4810:	30c78793          	addi	a5,a5,780 # cb18 <__mprec_tens>
    4814:	97ba                	add	a5,a5,a4
    4816:	4390                	lw	a2,0(a5)
    4818:	43d4                	lw	a3,4(a5)
    481a:	5cd030ef          	jal	ra,85e6 <__muldf3>
    481e:	842a                	mv	s0,a0
    4820:	8552                	mv	a0,s4
    4822:	84ae                	mv	s1,a1
    4824:	327040ef          	jal	ra,934a <__floatunsidf>
    4828:	862a                	mv	a2,a0
    482a:	86ae                	mv	a3,a1
    482c:	8522                	mv	a0,s0
    482e:	85a6                	mv	a1,s1
    4830:	705020ef          	jal	ra,7734 <__adddf3>
    4834:	84aa                	mv	s1,a0
    4836:	842e                	mv	s0,a1
    4838:	47bd                	li	a5,15
    483a:	09b7cd63          	blt	a5,s11,48d4 <_strtod_l+0x51e>
    483e:	c20a86e3          	beqz	s5,446a <_strtod_l+0xb4>
    4842:	07505463          	blez	s5,48aa <_strtod_l+0x4f4>
    4846:	4759                	li	a4,22
    4848:	03574363          	blt	a4,s5,486e <_strtod_l+0x4b8>
    484c:	0a8e                	slli	s5,s5,0x3
    484e:	00008797          	auipc	a5,0x8
    4852:	2ca78793          	addi	a5,a5,714 # cb18 <__mprec_tens>
    4856:	9abe                	add	s5,s5,a5
    4858:	000aa503          	lw	a0,0(s5) # d000 <_data_lma+0x254>
    485c:	004aa583          	lw	a1,4(s5)
    4860:	8626                	mv	a2,s1
    4862:	86a2                	mv	a3,s0
    4864:	583030ef          	jal	ra,85e6 <__muldf3>
    4868:	84aa                	mv	s1,a0
    486a:	842e                	mv	s0,a1
    486c:	befd                	j	446a <_strtod_l+0xb4>
    486e:	02500713          	li	a4,37
    4872:	41b70733          	sub	a4,a4,s11
    4876:	05574f63          	blt	a4,s5,48d4 <_strtod_l+0x51e>
    487a:	41b78db3          	sub	s11,a5,s11
    487e:	00008917          	auipc	s2,0x8
    4882:	29a90913          	addi	s2,s2,666 # cb18 <__mprec_tens>
    4886:	003d9793          	slli	a5,s11,0x3
    488a:	97ca                	add	a5,a5,s2
    488c:	4388                	lw	a0,0(a5)
    488e:	43cc                	lw	a1,4(a5)
    4890:	41ba8db3          	sub	s11,s5,s11
    4894:	8626                	mv	a2,s1
    4896:	86a2                	mv	a3,s0
    4898:	0d8e                	slli	s11,s11,0x3
    489a:	54d030ef          	jal	ra,85e6 <__muldf3>
    489e:	9dca                	add	s11,s11,s2
    48a0:	000da603          	lw	a2,0(s11)
    48a4:	004da683          	lw	a3,4(s11)
    48a8:	bf75                	j	4864 <_strtod_l+0x4ae>
    48aa:	57a9                	li	a5,-22
    48ac:	02fac463          	blt	s5,a5,48d4 <_strtod_l+0x51e>
    48b0:	413b09b3          	sub	s3,s6,s3
    48b4:	00399b13          	slli	s6,s3,0x3
    48b8:	00008997          	auipc	s3,0x8
    48bc:	26098993          	addi	s3,s3,608 # cb18 <__mprec_tens>
    48c0:	99da                	add	s3,s3,s6
    48c2:	0009a603          	lw	a2,0(s3)
    48c6:	0049a683          	lw	a3,4(s3)
    48ca:	8526                	mv	a0,s1
    48cc:	85a2                	mv	a1,s0
    48ce:	596030ef          	jal	ra,7e64 <__divdf3>
    48d2:	bf59                	j	4868 <_strtod_l+0x4b2>
    48d4:	41ad8d33          	sub	s10,s11,s10
    48d8:	9d56                	add	s10,s10,s5
    48da:	11a05763          	blez	s10,49e8 <_strtod_l+0x632>
    48de:	00fd7793          	andi	a5,s10,15
    48e2:	cf99                	beqz	a5,4900 <_strtod_l+0x54a>
    48e4:	00008717          	auipc	a4,0x8
    48e8:	23470713          	addi	a4,a4,564 # cb18 <__mprec_tens>
    48ec:	078e                	slli	a5,a5,0x3
    48ee:	97ba                	add	a5,a5,a4
    48f0:	4388                	lw	a0,0(a5)
    48f2:	43cc                	lw	a1,4(a5)
    48f4:	8626                	mv	a2,s1
    48f6:	86a2                	mv	a3,s0
    48f8:	4ef030ef          	jal	ra,85e6 <__muldf3>
    48fc:	84aa                	mv	s1,a0
    48fe:	842e                	mv	s0,a1
    4900:	ff0d7d13          	andi	s10,s10,-16
    4904:	0a0d0863          	beqz	s10,49b4 <_strtod_l+0x5fe>
    4908:	13400793          	li	a5,308
    490c:	05a7d563          	bge	a5,s10,4956 <_strtod_l+0x5a0>
    4910:	4b01                	li	s6,0
    4912:	4981                	li	s3,0
    4914:	c602                	sw	zero,12(sp)
    4916:	4b81                	li	s7,0
    4918:	02200793          	li	a5,34
    491c:	00f92023          	sw	a5,0(s2)
    4920:	7ff00437          	lui	s0,0x7ff00
    4924:	4481                	li	s1,0
    4926:	47b2                	lw	a5,12(sp)
    4928:	b40781e3          	beqz	a5,446a <_strtod_l+0xb4>
    492c:	45c6                	lw	a1,80(sp)
    492e:	854a                	mv	a0,s2
    4930:	7e2010ef          	jal	ra,6112 <_Bfree>
    4934:	85de                	mv	a1,s7
    4936:	854a                	mv	a0,s2
    4938:	7da010ef          	jal	ra,6112 <_Bfree>
    493c:	85ce                	mv	a1,s3
    493e:	854a                	mv	a0,s2
    4940:	7d2010ef          	jal	ra,6112 <_Bfree>
    4944:	45b2                	lw	a1,12(sp)
    4946:	854a                	mv	a0,s2
    4948:	7ca010ef          	jal	ra,6112 <_Bfree>
    494c:	85da                	mv	a1,s6
    494e:	854a                	mv	a0,s2
    4950:	7c2010ef          	jal	ra,6112 <_Bfree>
    4954:	be19                	j	446a <_strtod_l+0xb4>
    4956:	404d5d13          	srai	s10,s10,0x4
    495a:	8526                	mv	a0,s1
    495c:	85a2                	mv	a1,s0
    495e:	4781                	li	a5,0
    4960:	4a01                	li	s4,0
    4962:	4805                	li	a6,1
    4964:	00008897          	auipc	a7,0x8
    4968:	18c88893          	addi	a7,a7,396 # caf0 <__mprec_bigtens>
    496c:	05a84663          	blt	a6,s10,49b8 <_strtod_l+0x602>
    4970:	c399                	beqz	a5,4976 <_strtod_l+0x5c0>
    4972:	84aa                	mv	s1,a0
    4974:	842e                	mv	s0,a1
    4976:	00008717          	auipc	a4,0x8
    497a:	17a70713          	addi	a4,a4,378 # caf0 <__mprec_bigtens>
    497e:	003a1793          	slli	a5,s4,0x3
    4982:	97ba                	add	a5,a5,a4
    4984:	4388                	lw	a0,0(a5)
    4986:	43cc                	lw	a1,4(a5)
    4988:	fcb00737          	lui	a4,0xfcb00
    498c:	9722                	add	a4,a4,s0
    498e:	8626                	mv	a2,s1
    4990:	86ba                	mv	a3,a4
    4992:	455030ef          	jal	ra,85e6 <__muldf3>
    4996:	7ff00437          	lui	s0,0x7ff00
    499a:	00b477b3          	and	a5,s0,a1
    499e:	7ca00737          	lui	a4,0x7ca00
    49a2:	84aa                	mv	s1,a0
    49a4:	f6f766e3          	bltu	a4,a5,4910 <_strtod_l+0x55a>
    49a8:	7c900737          	lui	a4,0x7c900
    49ac:	02f77a63          	bgeu	a4,a5,49e0 <_strtod_l+0x62a>
    49b0:	147d                	addi	s0,s0,-1
    49b2:	54fd                	li	s1,-1
    49b4:	4a01                	li	s4,0
    49b6:	a8dd                	j	4aac <_strtod_l+0x6f6>
    49b8:	001d7713          	andi	a4,s10,1
    49bc:	cf11                	beqz	a4,49d8 <_strtod_l+0x622>
    49be:	003a1713          	slli	a4,s4,0x3
    49c2:	9746                	add	a4,a4,a7
    49c4:	4310                	lw	a2,0(a4)
    49c6:	4354                	lw	a3,4(a4)
    49c8:	41f030ef          	jal	ra,85e6 <__muldf3>
    49cc:	4785                	li	a5,1
    49ce:	4805                	li	a6,1
    49d0:	00008897          	auipc	a7,0x8
    49d4:	12088893          	addi	a7,a7,288 # caf0 <__mprec_bigtens>
    49d8:	0a05                	addi	s4,s4,1
    49da:	401d5d13          	srai	s10,s10,0x1
    49de:	b779                	j	496c <_strtod_l+0x5b6>
    49e0:	03500437          	lui	s0,0x3500
    49e4:	942e                	add	s0,s0,a1
    49e6:	b7f9                	j	49b4 <_strtod_l+0x5fe>
    49e8:	fc0d06e3          	beqz	s10,49b4 <_strtod_l+0x5fe>
    49ec:	41a00d33          	neg	s10,s10
    49f0:	00fd7793          	andi	a5,s10,15
    49f4:	cf99                	beqz	a5,4a12 <_strtod_l+0x65c>
    49f6:	00008717          	auipc	a4,0x8
    49fa:	12270713          	addi	a4,a4,290 # cb18 <__mprec_tens>
    49fe:	078e                	slli	a5,a5,0x3
    4a00:	97ba                	add	a5,a5,a4
    4a02:	4390                	lw	a2,0(a5)
    4a04:	43d4                	lw	a3,4(a5)
    4a06:	8526                	mv	a0,s1
    4a08:	85a2                	mv	a1,s0
    4a0a:	45a030ef          	jal	ra,7e64 <__divdf3>
    4a0e:	84aa                	mv	s1,a0
    4a10:	842e                	mv	s0,a1
    4a12:	404d5d13          	srai	s10,s10,0x4
    4a16:	f80d0fe3          	beqz	s10,49b4 <_strtod_l+0x5fe>
    4a1a:	47fd                	li	a5,31
    4a1c:	01a7dd63          	bge	a5,s10,4a36 <_strtod_l+0x680>
    4a20:	4b01                	li	s6,0
    4a22:	4981                	li	s3,0
    4a24:	c602                	sw	zero,12(sp)
    4a26:	4b81                	li	s7,0
    4a28:	02200793          	li	a5,34
    4a2c:	4481                	li	s1,0
    4a2e:	4401                	li	s0,0
    4a30:	00f92023          	sw	a5,0(s2)
    4a34:	bdcd                	j	4926 <_strtod_l+0x570>
    4a36:	010d7a13          	andi	s4,s10,16
    4a3a:	000a0463          	beqz	s4,4a42 <_strtod_l+0x68c>
    4a3e:	06a00a13          	li	s4,106
    4a42:	8526                	mv	a0,s1
    4a44:	85a2                	mv	a1,s0
    4a46:	00008797          	auipc	a5,0x8
    4a4a:	f1a78793          	addi	a5,a5,-230 # c960 <tinytens>
    4a4e:	4701                	li	a4,0
    4a50:	001d7693          	andi	a3,s10,1
    4a54:	ca81                	beqz	a3,4a64 <_strtod_l+0x6ae>
    4a56:	4390                	lw	a2,0(a5)
    4a58:	43d4                	lw	a3,4(a5)
    4a5a:	c63e                	sw	a5,12(sp)
    4a5c:	38b030ef          	jal	ra,85e6 <__muldf3>
    4a60:	47b2                	lw	a5,12(sp)
    4a62:	4705                	li	a4,1
    4a64:	401d5d13          	srai	s10,s10,0x1
    4a68:	07a1                	addi	a5,a5,8
    4a6a:	fe0d13e3          	bnez	s10,4a50 <_strtod_l+0x69a>
    4a6e:	c319                	beqz	a4,4a74 <_strtod_l+0x6be>
    4a70:	84aa                	mv	s1,a0
    4a72:	842e                	mv	s0,a1
    4a74:	020a0563          	beqz	s4,4a9e <_strtod_l+0x6e8>
    4a78:	01445793          	srli	a5,s0,0x14
    4a7c:	7ff7f713          	andi	a4,a5,2047
    4a80:	06b00793          	li	a5,107
    4a84:	8f99                	sub	a5,a5,a4
    4a86:	00f05c63          	blez	a5,4a9e <_strtod_l+0x6e8>
    4a8a:	477d                	li	a4,31
    4a8c:	22f75463          	bge	a4,a5,4cb4 <_strtod_l+0x8fe>
    4a90:	03400713          	li	a4,52
    4a94:	4481                	li	s1,0
    4a96:	20f75963          	bge	a4,a5,4ca8 <_strtod_l+0x8f2>
    4a9a:	03700437          	lui	s0,0x3700
    4a9e:	4601                	li	a2,0
    4aa0:	4681                	li	a3,0
    4aa2:	8526                	mv	a0,s1
    4aa4:	85a2                	mv	a1,s0
    4aa6:	173030ef          	jal	ra,8418 <__eqdf2>
    4aaa:	d93d                	beqz	a0,4a20 <_strtod_l+0x66a>
    4aac:	875e                	mv	a4,s7
    4aae:	86ee                	mv	a3,s11
    4ab0:	8662                	mv	a2,s8
    4ab2:	85e6                	mv	a1,s9
    4ab4:	854a                	mv	a0,s2
    4ab6:	738010ef          	jal	ra,61ee <__s2b>
    4aba:	c62a                	sw	a0,12(sp)
    4abc:	e4050ae3          	beqz	a0,4910 <_strtod_l+0x55a>
    4ac0:	41fad793          	srai	a5,s5,0x1f
    4ac4:	413b09b3          	sub	s3,s6,s3
    4ac8:	00f9f7b3          	and	a5,s3,a5
    4acc:	d03e                	sw	a5,32(sp)
    4ace:	ce56                	sw	s5,28(sp)
    4ad0:	000ad363          	bgez	s5,4ad6 <_strtod_l+0x720>
    4ad4:	ce02                	sw	zero,28(sp)
    4ad6:	47b2                	lw	a5,12(sp)
    4ad8:	4b01                	li	s6,0
    4ada:	4981                	li	s3,0
    4adc:	07b1                	addi	a5,a5,12
    4ade:	d83e                	sw	a5,48(sp)
    4ae0:	001007b7          	lui	a5,0x100
    4ae4:	17fd                	addi	a5,a5,-1
    4ae6:	d63e                	sw	a5,44(sp)
    4ae8:	47b2                	lw	a5,12(sp)
    4aea:	854a                	mv	a0,s2
    4aec:	43cc                	lw	a1,4(a5)
    4aee:	598010ef          	jal	ra,6086 <_Balloc>
    4af2:	8baa                	mv	s7,a0
    4af4:	e20502e3          	beqz	a0,4918 <_strtod_l+0x562>
    4af8:	47b2                	lw	a5,12(sp)
    4afa:	55c2                	lw	a1,48(sp)
    4afc:	0531                	addi	a0,a0,12
    4afe:	4b90                	lw	a2,16(a5)
    4b00:	0609                	addi	a2,a2,2
    4b02:	060a                	slli	a2,a2,0x2
    4b04:	d06ff0ef          	jal	ra,400a <memcpy>
    4b08:	08b8                	addi	a4,sp,88
    4b0a:	08d4                	addi	a3,sp,84
    4b0c:	8622                	mv	a2,s0
    4b0e:	85a6                	mv	a1,s1
    4b10:	854a                	mv	a0,s2
    4b12:	ca26                	sw	s1,20(sp)
    4b14:	cc22                	sw	s0,24(sp)
    4b16:	539010ef          	jal	ra,684e <__d2b>
    4b1a:	c8aa                	sw	a0,80(sp)
    4b1c:	de050ee3          	beqz	a0,4918 <_strtod_l+0x562>
    4b20:	4585                	li	a1,1
    4b22:	854a                	mv	a0,s2
    4b24:	021010ef          	jal	ra,6344 <__i2b>
    4b28:	89aa                	mv	s3,a0
    4b2a:	de0507e3          	beqz	a0,4918 <_strtod_l+0x562>
    4b2e:	47d6                	lw	a5,84(sp)
    4b30:	1807c763          	bltz	a5,4cbe <_strtod_l+0x908>
    4b34:	5702                	lw	a4,32(sp)
    4b36:	4c72                	lw	s8,28(sp)
    4b38:	00e78d33          	add	s10,a5,a4
    4b3c:	4766                	lw	a4,88(sp)
    4b3e:	414787b3          	sub	a5,a5,s4
    4b42:	03600693          	li	a3,54
    4b46:	97ba                	add	a5,a5,a4
    4b48:	17fd                	addi	a5,a5,-1
    4b4a:	c0200d93          	li	s11,-1022
    4b4e:	8e99                	sub	a3,a3,a4
    4b50:	19b7d663          	bge	a5,s11,4cdc <_strtod_l+0x926>
    4b54:	40fd8733          	sub	a4,s11,a5
    4b58:	467d                	li	a2,31
    4b5a:	8e99                	sub	a3,a3,a4
    4b5c:	16e64663          	blt	a2,a4,4cc8 <_strtod_l+0x912>
    4b60:	4d85                	li	s11,1
    4b62:	00ed97b3          	sll	a5,s11,a4
    4b66:	d23e                	sw	a5,36(sp)
    4b68:	4c81                	li	s9,0
    4b6a:	9c36                	add	s8,s8,a3
    4b6c:	00dd0db3          	add	s11,s10,a3
    4b70:	9c52                	add	s8,s8,s4
    4b72:	87ea                	mv	a5,s10
    4b74:	01add363          	bge	s11,s10,4b7a <_strtod_l+0x7c4>
    4b78:	87ee                	mv	a5,s11
    4b7a:	00fc5363          	bge	s8,a5,4b80 <_strtod_l+0x7ca>
    4b7e:	87e2                	mv	a5,s8
    4b80:	00f05863          	blez	a5,4b90 <_strtod_l+0x7da>
    4b84:	40fd8db3          	sub	s11,s11,a5
    4b88:	40fc0c33          	sub	s8,s8,a5
    4b8c:	40fd0d33          	sub	s10,s10,a5
    4b90:	5782                	lw	a5,32(sp)
    4b92:	02f05863          	blez	a5,4bc2 <_strtod_l+0x80c>
    4b96:	85ce                	mv	a1,s3
    4b98:	863e                	mv	a2,a5
    4b9a:	854a                	mv	a0,s2
    4b9c:	109010ef          	jal	ra,64a4 <__pow5mult>
    4ba0:	89aa                	mv	s3,a0
    4ba2:	d6050be3          	beqz	a0,4918 <_strtod_l+0x562>
    4ba6:	4646                	lw	a2,80(sp)
    4ba8:	85aa                	mv	a1,a0
    4baa:	854a                	mv	a0,s2
    4bac:	7b4010ef          	jal	ra,6360 <__multiply>
    4bb0:	da2a                	sw	a0,52(sp)
    4bb2:	d60503e3          	beqz	a0,4918 <_strtod_l+0x562>
    4bb6:	45c6                	lw	a1,80(sp)
    4bb8:	854a                	mv	a0,s2
    4bba:	558010ef          	jal	ra,6112 <_Bfree>
    4bbe:	57d2                	lw	a5,52(sp)
    4bc0:	c8be                	sw	a5,80(sp)
    4bc2:	11b04f63          	bgtz	s11,4ce0 <_strtod_l+0x92a>
    4bc6:	01505a63          	blez	s5,4bda <_strtod_l+0x824>
    4bca:	4672                	lw	a2,28(sp)
    4bcc:	85de                	mv	a1,s7
    4bce:	854a                	mv	a0,s2
    4bd0:	0d5010ef          	jal	ra,64a4 <__pow5mult>
    4bd4:	8baa                	mv	s7,a0
    4bd6:	d40501e3          	beqz	a0,4918 <_strtod_l+0x562>
    4bda:	01805a63          	blez	s8,4bee <_strtod_l+0x838>
    4bde:	85de                	mv	a1,s7
    4be0:	8662                	mv	a2,s8
    4be2:	854a                	mv	a0,s2
    4be4:	17f010ef          	jal	ra,6562 <__lshift>
    4be8:	8baa                	mv	s7,a0
    4bea:	d20507e3          	beqz	a0,4918 <_strtod_l+0x562>
    4bee:	01a05a63          	blez	s10,4c02 <_strtod_l+0x84c>
    4bf2:	85ce                	mv	a1,s3
    4bf4:	866a                	mv	a2,s10
    4bf6:	854a                	mv	a0,s2
    4bf8:	16b010ef          	jal	ra,6562 <__lshift>
    4bfc:	89aa                	mv	s3,a0
    4bfe:	d0050de3          	beqz	a0,4918 <_strtod_l+0x562>
    4c02:	45c6                	lw	a1,80(sp)
    4c04:	865e                	mv	a2,s7
    4c06:	854a                	mv	a0,s2
    4c08:	25b010ef          	jal	ra,6662 <__mdiff>
    4c0c:	8b2a                	mv	s6,a0
    4c0e:	d00505e3          	beqz	a0,4918 <_strtod_l+0x562>
    4c12:	00c52c03          	lw	s8,12(a0)
    4c16:	85ce                	mv	a1,s3
    4c18:	00052623          	sw	zero,12(a0)
    4c1c:	215010ef          	jal	ra,6630 <__mcmp>
    4c20:	0c055963          	bgez	a0,4cf2 <_strtod_l+0x93c>
    4c24:	009c6c33          	or	s8,s8,s1
    4c28:	120c1163          	bnez	s8,4d4a <_strtod_l+0x994>
    4c2c:	00c41793          	slli	a5,s0,0xc
    4c30:	10079d63          	bnez	a5,4d4a <_strtod_l+0x994>
    4c34:	7ff007b7          	lui	a5,0x7ff00
    4c38:	8fe1                	and	a5,a5,s0
    4c3a:	06b00737          	lui	a4,0x6b00
    4c3e:	10f77663          	bgeu	a4,a5,4d4a <_strtod_l+0x994>
    4c42:	014b2783          	lw	a5,20(s6)
    4c46:	e791                	bnez	a5,4c52 <_strtod_l+0x89c>
    4c48:	010b2703          	lw	a4,16(s6)
    4c4c:	4785                	li	a5,1
    4c4e:	0ee7de63          	bge	a5,a4,4d4a <_strtod_l+0x994>
    4c52:	85da                	mv	a1,s6
    4c54:	4605                	li	a2,1
    4c56:	854a                	mv	a0,s2
    4c58:	10b010ef          	jal	ra,6562 <__lshift>
    4c5c:	85ce                	mv	a1,s3
    4c5e:	8b2a                	mv	s6,a0
    4c60:	1d1010ef          	jal	ra,6630 <__mcmp>
    4c64:	0ea05363          	blez	a0,4d4a <_strtod_l+0x994>
    4c68:	100a0c63          	beqz	s4,4d80 <_strtod_l+0x9ca>
    4c6c:	7ff007b7          	lui	a5,0x7ff00
    4c70:	8fe1                	and	a5,a5,s0
    4c72:	06b00737          	lui	a4,0x6b00
    4c76:	10f74563          	blt	a4,a5,4d80 <_strtod_l+0x9ca>
    4c7a:	03700737          	lui	a4,0x3700
    4c7e:	daf755e3          	bge	a4,a5,4a28 <_strtod_l+0x672>
    4c82:	4701                	li	a4,0
    4c84:	395007b7          	lui	a5,0x39500
    4c88:	8526                	mv	a0,s1
    4c8a:	85a2                	mv	a1,s0
    4c8c:	863a                	mv	a2,a4
    4c8e:	86be                	mv	a3,a5
    4c90:	157030ef          	jal	ra,85e6 <__muldf3>
    4c94:	842e                	mv	s0,a1
    4c96:	8dc9                	or	a1,a1,a0
    4c98:	84aa                	mv	s1,a0
    4c9a:	c80599e3          	bnez	a1,492c <_strtod_l+0x576>
    4c9e:	02200793          	li	a5,34
    4ca2:	00f92023          	sw	a5,0(s2)
    4ca6:	b159                	j	492c <_strtod_l+0x576>
    4ca8:	1781                	addi	a5,a5,-32
    4caa:	577d                	li	a4,-1
    4cac:	00f717b3          	sll	a5,a4,a5
    4cb0:	8c7d                	and	s0,s0,a5
    4cb2:	b3f5                	j	4a9e <_strtod_l+0x6e8>
    4cb4:	577d                	li	a4,-1
    4cb6:	00f717b3          	sll	a5,a4,a5
    4cba:	8cfd                	and	s1,s1,a5
    4cbc:	b3cd                	j	4a9e <_strtod_l+0x6e8>
    4cbe:	4772                	lw	a4,28(sp)
    4cc0:	5d02                	lw	s10,32(sp)
    4cc2:	40f70c33          	sub	s8,a4,a5
    4cc6:	bd9d                	j	4b3c <_strtod_l+0x786>
    4cc8:	be200c93          	li	s9,-1054
    4ccc:	40fc87b3          	sub	a5,s9,a5
    4cd0:	4c85                	li	s9,1
    4cd2:	00fc9cb3          	sll	s9,s9,a5
    4cd6:	4785                	li	a5,1
    4cd8:	d23e                	sw	a5,36(sp)
    4cda:	bd41                	j	4b6a <_strtod_l+0x7b4>
    4cdc:	4c81                	li	s9,0
    4cde:	bfe5                	j	4cd6 <_strtod_l+0x920>
    4ce0:	45c6                	lw	a1,80(sp)
    4ce2:	866e                	mv	a2,s11
    4ce4:	854a                	mv	a0,s2
    4ce6:	07d010ef          	jal	ra,6562 <__lshift>
    4cea:	c8aa                	sw	a0,80(sp)
    4cec:	ec051de3          	bnez	a0,4bc6 <_strtod_l+0x810>
    4cf0:	b125                	j	4918 <_strtod_l+0x562>
    4cf2:	e969                	bnez	a0,4dc4 <_strtod_l+0xa0e>
    4cf4:	00100737          	lui	a4,0x100
    4cf8:	177d                	addi	a4,a4,-1
    4cfa:	00e477b3          	and	a5,s0,a4
    4cfe:	040c0963          	beqz	s8,4d50 <_strtod_l+0x99a>
    4d02:	04e79963          	bne	a5,a4,4d54 <_strtod_l+0x99e>
    4d06:	577d                	li	a4,-1
    4d08:	020a0063          	beqz	s4,4d28 <_strtod_l+0x972>
    4d0c:	7ff007b7          	lui	a5,0x7ff00
    4d10:	8fe1                	and	a5,a5,s0
    4d12:	06a006b7          	lui	a3,0x6a00
    4d16:	00f6e963          	bltu	a3,a5,4d28 <_strtod_l+0x972>
    4d1a:	83d1                	srli	a5,a5,0x14
    4d1c:	06b00693          	li	a3,107
    4d20:	40f687b3          	sub	a5,a3,a5
    4d24:	00f71733          	sll	a4,a4,a5
    4d28:	02e49663          	bne	s1,a4,4d54 <_strtod_l+0x99e>
    4d2c:	7ff007b7          	lui	a5,0x7ff00
    4d30:	17fd                	addi	a5,a5,-1
    4d32:	00f41563          	bne	s0,a5,4d3c <_strtod_l+0x986>
    4d36:	57fd                	li	a5,-1
    4d38:	bef480e3          	beq	s1,a5,4918 <_strtod_l+0x562>
    4d3c:	7ff005b7          	lui	a1,0x7ff00
    4d40:	8de1                	and	a1,a1,s0
    4d42:	00100437          	lui	s0,0x100
    4d46:	942e                	add	s0,s0,a1
    4d48:	4481                	li	s1,0
    4d4a:	f20a1ce3          	bnez	s4,4c82 <_strtod_l+0x8cc>
    4d4e:	bef9                	j	492c <_strtod_l+0x576>
    4d50:	8fc5                	or	a5,a5,s1
    4d52:	db99                	beqz	a5,4c68 <_strtod_l+0x8b2>
    4d54:	040c8263          	beqz	s9,4d98 <_strtod_l+0x9e2>
    4d58:	008cfcb3          	and	s9,s9,s0
    4d5c:	fe0c87e3          	beqz	s9,4d4a <_strtod_l+0x994>
    4d60:	8652                	mv	a2,s4
    4d62:	8526                	mv	a0,s1
    4d64:	85a2                	mv	a1,s0
    4d66:	020c0f63          	beqz	s8,4da4 <_strtod_l+0x9ee>
    4d6a:	dfeff0ef          	jal	ra,4368 <sulp>
    4d6e:	862a                	mv	a2,a0
    4d70:	86ae                	mv	a3,a1
    4d72:	4552                	lw	a0,20(sp)
    4d74:	45e2                	lw	a1,24(sp)
    4d76:	1bf020ef          	jal	ra,7734 <__adddf3>
    4d7a:	84aa                	mv	s1,a0
    4d7c:	842e                	mv	s0,a1
    4d7e:	b7f1                	j	4d4a <_strtod_l+0x994>
    4d80:	7ff005b7          	lui	a1,0x7ff00
    4d84:	8de1                	and	a1,a1,s0
    4d86:	fff00437          	lui	s0,0xfff00
    4d8a:	95a2                	add	a1,a1,s0
    4d8c:	00100437          	lui	s0,0x100
    4d90:	147d                	addi	s0,s0,-1
    4d92:	8c4d                	or	s0,s0,a1
    4d94:	54fd                	li	s1,-1
    4d96:	bf55                	j	4d4a <_strtod_l+0x994>
    4d98:	5792                	lw	a5,36(sp)
    4d9a:	0097fdb3          	and	s11,a5,s1
    4d9e:	fa0d86e3          	beqz	s11,4d4a <_strtod_l+0x994>
    4da2:	bf7d                	j	4d60 <_strtod_l+0x9aa>
    4da4:	dc4ff0ef          	jal	ra,4368 <sulp>
    4da8:	862a                	mv	a2,a0
    4daa:	86ae                	mv	a3,a1
    4dac:	4552                	lw	a0,20(sp)
    4dae:	45e2                	lw	a1,24(sp)
    4db0:	4ef030ef          	jal	ra,8a9e <__subdf3>
    4db4:	4601                	li	a2,0
    4db6:	4681                	li	a3,0
    4db8:	84aa                	mv	s1,a0
    4dba:	842e                	mv	s0,a1
    4dbc:	65c030ef          	jal	ra,8418 <__eqdf2>
    4dc0:	f549                	bnez	a0,4d4a <_strtod_l+0x994>
    4dc2:	b19d                	j	4a28 <_strtod_l+0x672>
    4dc4:	85ce                	mv	a1,s3
    4dc6:	855a                	mv	a0,s6
    4dc8:	35b010ef          	jal	ra,6922 <__ratio>
    4dcc:	00008797          	auipc	a5,0x8
    4dd0:	b2478793          	addi	a5,a5,-1244 # c8f0 <asc2_3216+0x18d0>
    4dd4:	4390                	lw	a2,0(a5)
    4dd6:	43d4                	lw	a3,4(a5)
    4dd8:	8d2a                	mv	s10,a0
    4dda:	8dae                	mv	s11,a1
    4ddc:	754030ef          	jal	ra,8530 <__ledf2>
    4de0:	10a04263          	bgtz	a0,4ee4 <_strtod_l+0xb2e>
    4de4:	0a0c0163          	beqz	s8,4e86 <_strtod_l+0xad0>
    4de8:	4d81                	li	s11,0
    4dea:	3ff00d37          	lui	s10,0x3ff00
    4dee:	4701                	li	a4,0
    4df0:	3ff007b7          	lui	a5,0x3ff00
    4df4:	7ff006b7          	lui	a3,0x7ff00
    4df8:	00d47cb3          	and	s9,s0,a3
    4dfc:	7fe006b7          	lui	a3,0x7fe00
    4e00:	16dc9f63          	bne	s9,a3,4f7e <_strtod_l+0xbc8>
    4e04:	d26a                	sw	s10,36(sp)
    4e06:	fcb00d37          	lui	s10,0xfcb00
    4e0a:	9d22                	add	s10,s10,s0
    4e0c:	8526                	mv	a0,s1
    4e0e:	85ea                	mv	a1,s10
    4e10:	de3e                	sw	a5,60(sp)
    4e12:	dc3a                	sw	a4,56(sp)
    4e14:	da6e                	sw	s11,52(sp)
    4e16:	13f010ef          	jal	ra,6754 <__ulp>
    4e1a:	58d2                	lw	a7,52(sp)
    4e1c:	5812                	lw	a6,36(sp)
    4e1e:	862a                	mv	a2,a0
    4e20:	86ae                	mv	a3,a1
    4e22:	8546                	mv	a0,a7
    4e24:	85c2                	mv	a1,a6
    4e26:	7c0030ef          	jal	ra,85e6 <__muldf3>
    4e2a:	8626                	mv	a2,s1
    4e2c:	86ea                	mv	a3,s10
    4e2e:	107020ef          	jal	ra,7734 <__adddf3>
    4e32:	84aa                	mv	s1,a0
    4e34:	7ff00537          	lui	a0,0x7ff00
    4e38:	00b57633          	and	a2,a0,a1
    4e3c:	7ca006b7          	lui	a3,0x7ca00
    4e40:	5762                	lw	a4,56(sp)
    4e42:	57f2                	lw	a5,60(sp)
    4e44:	0cd66563          	bltu	a2,a3,4f0e <_strtod_l+0xb58>
    4e48:	4762                	lw	a4,24(sp)
    4e4a:	fff50793          	addi	a5,a0,-1 # 7fefffff <_eusrstack+0x5fef7fff>
    4e4e:	00e79663          	bne	a5,a4,4e5a <_strtod_l+0xaa4>
    4e52:	4752                	lw	a4,20(sp)
    4e54:	57fd                	li	a5,-1
    4e56:	ace781e3          	beq	a5,a4,4918 <_strtod_l+0x562>
    4e5a:	7ff007b7          	lui	a5,0x7ff00
    4e5e:	fff78413          	addi	s0,a5,-1 # 7fefffff <_eusrstack+0x5fef7fff>
    4e62:	54fd                	li	s1,-1
    4e64:	45c6                	lw	a1,80(sp)
    4e66:	854a                	mv	a0,s2
    4e68:	2aa010ef          	jal	ra,6112 <_Bfree>
    4e6c:	85de                	mv	a1,s7
    4e6e:	854a                	mv	a0,s2
    4e70:	2a2010ef          	jal	ra,6112 <_Bfree>
    4e74:	85ce                	mv	a1,s3
    4e76:	854a                	mv	a0,s2
    4e78:	29a010ef          	jal	ra,6112 <_Bfree>
    4e7c:	85da                	mv	a1,s6
    4e7e:	854a                	mv	a0,s2
    4e80:	292010ef          	jal	ra,6112 <_Bfree>
    4e84:	b195                	j	4ae8 <_strtod_l+0x732>
    4e86:	e0b1                	bnez	s1,4eca <_strtod_l+0xb14>
    4e88:	57b2                	lw	a5,44(sp)
    4e8a:	8fe1                	and	a5,a5,s0
    4e8c:	e7a1                	bnez	a5,4ed4 <_strtod_l+0xb1e>
    4e8e:	00008797          	auipc	a5,0x8
    4e92:	a5a78793          	addi	a5,a5,-1446 # c8e8 <asc2_3216+0x18c8>
    4e96:	4390                	lw	a2,0(a5)
    4e98:	43d4                	lw	a3,4(a5)
    4e9a:	856a                	mv	a0,s10
    4e9c:	85ee                	mv	a1,s11
    4e9e:	692030ef          	jal	ra,8530 <__ledf2>
    4ea2:	02054d63          	bltz	a0,4edc <_strtod_l+0xb26>
    4ea6:	00008797          	auipc	a5,0x8
    4eaa:	a3a78793          	addi	a5,a5,-1478 # c8e0 <asc2_3216+0x18c0>
    4eae:	4390                	lw	a2,0(a5)
    4eb0:	43d4                	lw	a3,4(a5)
    4eb2:	856a                	mv	a0,s10
    4eb4:	85ee                	mv	a1,s11
    4eb6:	730030ef          	jal	ra,85e6 <__muldf3>
    4eba:	872a                	mv	a4,a0
    4ebc:	87ae                	mv	a5,a1
    4ebe:	80000d37          	lui	s10,0x80000
    4ec2:	8dba                	mv	s11,a4
    4ec4:	00fd4d33          	xor	s10,s10,a5
    4ec8:	b735                	j	4df4 <_strtod_l+0xa3e>
    4eca:	4785                	li	a5,1
    4ecc:	00f49463          	bne	s1,a5,4ed4 <_strtod_l+0xb1e>
    4ed0:	b4040ce3          	beqz	s0,4a28 <_strtod_l+0x672>
    4ed4:	4d81                	li	s11,0
    4ed6:	bff00d37          	lui	s10,0xbff00
    4eda:	bf11                	j	4dee <_strtod_l+0xa38>
    4edc:	4701                	li	a4,0
    4ede:	3fe007b7          	lui	a5,0x3fe00
    4ee2:	bff1                	j	4ebe <_strtod_l+0xb08>
    4ee4:	00008797          	auipc	a5,0x8
    4ee8:	9fc78793          	addi	a5,a5,-1540 # c8e0 <asc2_3216+0x18c0>
    4eec:	4390                	lw	a2,0(a5)
    4eee:	43d4                	lw	a3,4(a5)
    4ef0:	856a                	mv	a0,s10
    4ef2:	85ee                	mv	a1,s11
    4ef4:	6f2030ef          	jal	ra,85e6 <__muldf3>
    4ef8:	872a                	mv	a4,a0
    4efa:	87ae                	mv	a5,a1
    4efc:	8d2e                	mv	s10,a1
    4efe:	000c1663          	bnez	s8,4f0a <_strtod_l+0xb54>
    4f02:	80000d37          	lui	s10,0x80000
    4f06:	00bd4d33          	xor	s10,s10,a1
    4f0a:	8daa                	mv	s11,a0
    4f0c:	b5e5                	j	4df4 <_strtod_l+0xa3e>
    4f0e:	03500437          	lui	s0,0x3500
    4f12:	942e                	add	s0,s0,a1
    4f14:	f40a18e3          	bnez	s4,4e64 <_strtod_l+0xaae>
    4f18:	7ff006b7          	lui	a3,0x7ff00
    4f1c:	8ee1                	and	a3,a3,s0
    4f1e:	f4dc93e3          	bne	s9,a3,4e64 <_strtod_l+0xaae>
    4f22:	85be                	mv	a1,a5
    4f24:	853a                	mv	a0,a4
    4f26:	8d3a                	mv	s10,a4
    4f28:	8cbe                	mv	s9,a5
    4f2a:	2ec040ef          	jal	ra,9216 <__fixdfsi>
    4f2e:	3ac040ef          	jal	ra,92da <__floatsidf>
    4f32:	862a                	mv	a2,a0
    4f34:	86ae                	mv	a3,a1
    4f36:	856a                	mv	a0,s10
    4f38:	85e6                	mv	a1,s9
    4f3a:	365030ef          	jal	ra,8a9e <__subdf3>
    4f3e:	57b2                	lw	a5,44(sp)
    4f40:	8d2a                	mv	s10,a0
    4f42:	8dae                	mv	s11,a1
    4f44:	8fe1                	and	a5,a5,s0
    4f46:	8fc5                	or	a5,a5,s1
    4f48:	0187ec33          	or	s8,a5,s8
    4f4c:	0a0c0b63          	beqz	s8,5002 <_strtod_l+0xc4c>
    4f50:	00008797          	auipc	a5,0x8
    4f54:	9b078793          	addi	a5,a5,-1616 # c900 <asc2_3216+0x18e0>
    4f58:	4390                	lw	a2,0(a5)
    4f5a:	43d4                	lw	a3,4(a5)
    4f5c:	5d4030ef          	jal	ra,8530 <__ledf2>
    4f60:	9c0546e3          	bltz	a0,492c <_strtod_l+0x576>
    4f64:	00008797          	auipc	a5,0x8
    4f68:	9a478793          	addi	a5,a5,-1628 # c908 <asc2_3216+0x18e8>
    4f6c:	4390                	lw	a2,0(a5)
    4f6e:	43d4                	lw	a3,4(a5)
    4f70:	856a                	mv	a0,s10
    4f72:	85ee                	mv	a1,s11
    4f74:	50e030ef          	jal	ra,8482 <__gedf2>
    4f78:	eea056e3          	blez	a0,4e64 <_strtod_l+0xaae>
    4f7c:	ba45                	j	492c <_strtod_l+0x576>
    4f7e:	040a0d63          	beqz	s4,4fd8 <_strtod_l+0xc22>
    4f82:	06a006b7          	lui	a3,0x6a00
    4f86:	0596e963          	bltu	a3,s9,4fd8 <_strtod_l+0xc22>
    4f8a:	00008697          	auipc	a3,0x8
    4f8e:	96e68693          	addi	a3,a3,-1682 # c8f8 <asc2_3216+0x18d8>
    4f92:	4290                	lw	a2,0(a3)
    4f94:	42d4                	lw	a3,4(a3)
    4f96:	853a                	mv	a0,a4
    4f98:	85be                	mv	a1,a5
    4f9a:	da3a                	sw	a4,52(sp)
    4f9c:	d23e                	sw	a5,36(sp)
    4f9e:	592030ef          	jal	ra,8530 <__ledf2>
    4fa2:	5792                	lw	a5,36(sp)
    4fa4:	5752                	lw	a4,52(sp)
    4fa6:	02a04463          	bgtz	a0,4fce <_strtod_l+0xc18>
    4faa:	853a                	mv	a0,a4
    4fac:	85be                	mv	a1,a5
    4fae:	2d0040ef          	jal	ra,927e <__fixunsdfsi>
    4fb2:	e111                	bnez	a0,4fb6 <_strtod_l+0xc00>
    4fb4:	4505                	li	a0,1
    4fb6:	394040ef          	jal	ra,934a <__floatunsidf>
    4fba:	872a                	mv	a4,a0
    4fbc:	87ae                	mv	a5,a1
    4fbe:	8d2e                	mv	s10,a1
    4fc0:	000c1663          	bnez	s8,4fcc <_strtod_l+0xc16>
    4fc4:	80000d37          	lui	s10,0x80000
    4fc8:	00bd4d33          	xor	s10,s10,a1
    4fcc:	8daa                	mv	s11,a0
    4fce:	06b005b7          	lui	a1,0x6b00
    4fd2:	9d2e                	add	s10,s10,a1
    4fd4:	419d0d33          	sub	s10,s10,s9
    4fd8:	4552                	lw	a0,20(sp)
    4fda:	45e2                	lw	a1,24(sp)
    4fdc:	da3e                	sw	a5,52(sp)
    4fde:	d23a                	sw	a4,36(sp)
    4fe0:	774010ef          	jal	ra,6754 <__ulp>
    4fe4:	862a                	mv	a2,a0
    4fe6:	86ae                	mv	a3,a1
    4fe8:	856e                	mv	a0,s11
    4fea:	85ea                	mv	a1,s10
    4fec:	5fa030ef          	jal	ra,85e6 <__muldf3>
    4ff0:	4652                	lw	a2,20(sp)
    4ff2:	46e2                	lw	a3,24(sp)
    4ff4:	740020ef          	jal	ra,7734 <__adddf3>
    4ff8:	84aa                	mv	s1,a0
    4ffa:	842e                	mv	s0,a1
    4ffc:	57d2                	lw	a5,52(sp)
    4ffe:	5712                	lw	a4,36(sp)
    5000:	bf11                	j	4f14 <_strtod_l+0xb5e>
    5002:	00008797          	auipc	a5,0x8
    5006:	90e78793          	addi	a5,a5,-1778 # c910 <asc2_3216+0x18f0>
    500a:	4390                	lw	a2,0(a5)
    500c:	43d4                	lw	a3,4(a5)
    500e:	522030ef          	jal	ra,8530 <__ledf2>
    5012:	e40559e3          	bgez	a0,4e64 <_strtod_l+0xaae>
    5016:	ba19                	j	492c <_strtod_l+0x576>
    5018:	06500713          	li	a4,101
    501c:	00e78763          	beq	a5,a4,502a <_strtod_l+0xc74>
    5020:	04500713          	li	a4,69
    5024:	4505                	li	a0,1
    5026:	eee79763          	bne	a5,a4,4714 <_strtod_l+0x35e>
    502a:	4b01                	li	s6,0
    502c:	4505                	li	a0,1
    502e:	d78ff06f          	j	45a6 <_strtod_l+0x1f0>

00005032 <strtof>:
    5032:	1101                	addi	sp,sp,-32
    5034:	c84a                	sw	s2,16(sp)
    5036:	81018913          	addi	s2,gp,-2032 # 20000200 <_impure_ptr>
    503a:	00092783          	lw	a5,0(s2)
    503e:	ce06                	sw	ra,28(sp)
    5040:	cc22                	sw	s0,24(sp)
    5042:	5394                	lw	a3,32(a5)
    5044:	ca26                	sw	s1,20(sp)
    5046:	c64e                	sw	s3,12(sp)
    5048:	c452                	sw	s4,8(sp)
    504a:	c25a                	sw	s6,4(sp)
    504c:	c05e                	sw	s7,0(sp)
    504e:	862e                	mv	a2,a1
    5050:	e689                	bnez	a3,505a <strtof+0x28>
    5052:	1fffb697          	auipc	a3,0x1fffb
    5056:	02e68693          	addi	a3,a3,46 # 20000080 <__global_locale>
    505a:	85aa                	mv	a1,a0
    505c:	853e                	mv	a0,a5
    505e:	b58ff0ef          	jal	ra,43b6 <_strtod_l>
    5062:	84aa                	mv	s1,a0
    5064:	842e                	mv	s0,a1
    5066:	862a                	mv	a2,a0
    5068:	86ae                	mv	a3,a1
    506a:	8526                	mv	a0,s1
    506c:	85a2                	mv	a1,s0
    506e:	16c040ef          	jal	ra,91da <__unorddf2>
    5072:	cd09                	beqz	a0,508c <strtof+0x5a>
    5074:	4462                	lw	s0,24(sp)
    5076:	40f2                	lw	ra,28(sp)
    5078:	44d2                	lw	s1,20(sp)
    507a:	4942                	lw	s2,16(sp)
    507c:	49b2                	lw	s3,12(sp)
    507e:	4a22                	lw	s4,8(sp)
    5080:	4b12                	lw	s6,4(sp)
    5082:	4b82                	lw	s7,0(sp)
    5084:	4501                	li	a0,0
    5086:	6105                	addi	sp,sp,32
    5088:	3e00206f          	j	7468 <nanf>
    508c:	85a2                	mv	a1,s0
    508e:	8526                	mv	a0,s1
    5090:	3e8040ef          	jal	ra,9478 <__truncdfsf2>
    5094:	00008797          	auipc	a5,0x8
    5098:	8bc78793          	addi	a5,a5,-1860 # c950 <fpinan.3431+0x14>
    509c:	800009b7          	lui	s3,0x80000
    50a0:	0007ab83          	lw	s7,0(a5)
    50a4:	fff9c993          	not	s3,s3
    50a8:	01357b33          	and	s6,a0,s3
    50ac:	8a2a                	mv	s4,a0
    50ae:	85de                	mv	a1,s7
    50b0:	855a                	mv	a0,s6
    50b2:	38a040ef          	jal	ra,943c <__unordsf2>
    50b6:	e529                	bnez	a0,5100 <strtof+0xce>
    50b8:	85de                	mv	a1,s7
    50ba:	855a                	mv	a0,s6
    50bc:	2f4040ef          	jal	ra,93b0 <__lesf2>
    50c0:	04a05063          	blez	a0,5100 <strtof+0xce>
    50c4:	00008797          	auipc	a5,0x8
    50c8:	89478793          	addi	a5,a5,-1900 # c958 <fpinan.3431+0x1c>
    50cc:	0007ab03          	lw	s6,0(a5)
    50d0:	0047ab83          	lw	s7,4(a5)
    50d4:	01347433          	and	s0,s0,s3
    50d8:	865a                	mv	a2,s6
    50da:	86de                	mv	a3,s7
    50dc:	8526                	mv	a0,s1
    50de:	85a2                	mv	a1,s0
    50e0:	0fa040ef          	jal	ra,91da <__unorddf2>
    50e4:	e909                	bnez	a0,50f6 <strtof+0xc4>
    50e6:	865a                	mv	a2,s6
    50e8:	86de                	mv	a3,s7
    50ea:	8526                	mv	a0,s1
    50ec:	85a2                	mv	a1,s0
    50ee:	442030ef          	jal	ra,8530 <__ledf2>
    50f2:	00a04763          	bgtz	a0,5100 <strtof+0xce>
    50f6:	00092783          	lw	a5,0(s2)
    50fa:	02200713          	li	a4,34
    50fe:	c398                	sw	a4,0(a5)
    5100:	40f2                	lw	ra,28(sp)
    5102:	4462                	lw	s0,24(sp)
    5104:	8552                	mv	a0,s4
    5106:	44d2                	lw	s1,20(sp)
    5108:	4942                	lw	s2,16(sp)
    510a:	49b2                	lw	s3,12(sp)
    510c:	4a22                	lw	s4,8(sp)
    510e:	4b12                	lw	s6,4(sp)
    5110:	4b82                	lw	s7,0(sp)
    5112:	6105                	addi	sp,sp,32
    5114:	8082                	ret

00005116 <_strtol_l.isra.0>:
    5116:	7179                	addi	sp,sp,-48
    5118:	d04a                	sw	s2,32(sp)
    511a:	ce4e                	sw	s3,28(sp)
    511c:	d606                	sw	ra,44(sp)
    511e:	d422                	sw	s0,40(sp)
    5120:	d226                	sw	s1,36(sp)
    5122:	89aa                	mv	s3,a0
    5124:	892e                	mv	s2,a1
    5126:	00190493          	addi	s1,s2,1
    512a:	fff4c403          	lbu	s0,-1(s1)
    512e:	853a                	mv	a0,a4
    5130:	c636                	sw	a3,12(sp)
    5132:	c432                	sw	a2,8(sp)
    5134:	c22e                	sw	a1,4(sp)
    5136:	c03a                	sw	a4,0(sp)
    5138:	e67fe0ef          	jal	ra,3f9e <__locale_ctype_ptr_l>
    513c:	9522                	add	a0,a0,s0
    513e:	00154783          	lbu	a5,1(a0)
    5142:	4702                	lw	a4,0(sp)
    5144:	4592                	lw	a1,4(sp)
    5146:	8ba1                	andi	a5,a5,8
    5148:	4622                	lw	a2,8(sp)
    514a:	46b2                	lw	a3,12(sp)
    514c:	e7c9                	bnez	a5,51d6 <_strtol_l.isra.0+0xc0>
    514e:	02d00793          	li	a5,45
    5152:	08f41463          	bne	s0,a5,51da <_strtol_l.isra.0+0xc4>
    5156:	0004c783          	lbu	a5,0(s1)
    515a:	4305                	li	t1,1
    515c:	00290493          	addi	s1,s2,2
    5160:	c6fd                	beqz	a3,524e <_strtol_l.isra.0+0x138>
    5162:	4741                	li	a4,16
    5164:	02e69263          	bne	a3,a4,5188 <_strtol_l.isra.0+0x72>
    5168:	03000713          	li	a4,48
    516c:	00e79e63          	bne	a5,a4,5188 <_strtol_l.isra.0+0x72>
    5170:	0004c783          	lbu	a5,0(s1)
    5174:	05800713          	li	a4,88
    5178:	0df7f793          	andi	a5,a5,223
    517c:	0ce79463          	bne	a5,a4,5244 <_strtol_l.isra.0+0x12e>
    5180:	0014c783          	lbu	a5,1(s1)
    5184:	46c1                	li	a3,16
    5186:	0489                	addi	s1,s1,2
    5188:	800008b7          	lui	a7,0x80000
    518c:	00031463          	bnez	t1,5194 <_strtol_l.isra.0+0x7e>
    5190:	fff8c893          	not	a7,a7
    5194:	02d8ff33          	remu	t5,a7,a3
    5198:	4801                	li	a6,0
    519a:	4501                	li	a0,0
    519c:	4fa5                	li	t6,9
    519e:	4ee5                	li	t4,25
    51a0:	52fd                	li	t0,-1
    51a2:	02d8de33          	divu	t3,a7,a3
    51a6:	fd078713          	addi	a4,a5,-48
    51aa:	04efe463          	bltu	t6,a4,51f2 <_strtol_l.isra.0+0xdc>
    51ae:	87ba                	mv	a5,a4
    51b0:	04d7df63          	bge	a5,a3,520e <_strtol_l.isra.0+0xf8>
    51b4:	00580d63          	beq	a6,t0,51ce <_strtol_l.isra.0+0xb8>
    51b8:	587d                	li	a6,-1
    51ba:	00ae6a63          	bltu	t3,a0,51ce <_strtol_l.isra.0+0xb8>
    51be:	00ae1463          	bne	t3,a0,51c6 <_strtol_l.isra.0+0xb0>
    51c2:	00ff4663          	blt	t5,a5,51ce <_strtol_l.isra.0+0xb8>
    51c6:	4805                	li	a6,1
    51c8:	02a68533          	mul	a0,a3,a0
    51cc:	953e                	add	a0,a0,a5
    51ce:	0485                	addi	s1,s1,1
    51d0:	fff4c783          	lbu	a5,-1(s1)
    51d4:	bfc9                	j	51a6 <_strtol_l.isra.0+0x90>
    51d6:	8926                	mv	s2,s1
    51d8:	b7b9                	j	5126 <_strtol_l.isra.0+0x10>
    51da:	02b00793          	li	a5,43
    51de:	00f40563          	beq	s0,a5,51e8 <_strtol_l.isra.0+0xd2>
    51e2:	87a2                	mv	a5,s0
    51e4:	4301                	li	t1,0
    51e6:	bfad                	j	5160 <_strtol_l.isra.0+0x4a>
    51e8:	0004c783          	lbu	a5,0(s1)
    51ec:	00290493          	addi	s1,s2,2
    51f0:	bfd5                	j	51e4 <_strtol_l.isra.0+0xce>
    51f2:	fbf78713          	addi	a4,a5,-65
    51f6:	00eee563          	bltu	t4,a4,5200 <_strtol_l.isra.0+0xea>
    51fa:	fc978793          	addi	a5,a5,-55
    51fe:	bf4d                	j	51b0 <_strtol_l.isra.0+0x9a>
    5200:	f9f78713          	addi	a4,a5,-97
    5204:	00eee563          	bltu	t4,a4,520e <_strtol_l.isra.0+0xf8>
    5208:	fa978793          	addi	a5,a5,-87
    520c:	b755                	j	51b0 <_strtol_l.isra.0+0x9a>
    520e:	57fd                	li	a5,-1
    5210:	00f81f63          	bne	a6,a5,522e <_strtol_l.isra.0+0x118>
    5214:	02200793          	li	a5,34
    5218:	00f9a023          	sw	a5,0(s3) # 80000000 <_eusrstack+0x5fff8000>
    521c:	8546                	mv	a0,a7
    521e:	ee19                	bnez	a2,523c <_strtol_l.isra.0+0x126>
    5220:	50b2                	lw	ra,44(sp)
    5222:	5422                	lw	s0,40(sp)
    5224:	5492                	lw	s1,36(sp)
    5226:	5902                	lw	s2,32(sp)
    5228:	49f2                	lw	s3,28(sp)
    522a:	6145                	addi	sp,sp,48
    522c:	8082                	ret
    522e:	00030463          	beqz	t1,5236 <_strtol_l.isra.0+0x120>
    5232:	40a00533          	neg	a0,a0
    5236:	d66d                	beqz	a2,5220 <_strtol_l.isra.0+0x10a>
    5238:	00080463          	beqz	a6,5240 <_strtol_l.isra.0+0x12a>
    523c:	fff48593          	addi	a1,s1,-1
    5240:	c20c                	sw	a1,0(a2)
    5242:	bff9                	j	5220 <_strtol_l.isra.0+0x10a>
    5244:	03000793          	li	a5,48
    5248:	f2a1                	bnez	a3,5188 <_strtol_l.isra.0+0x72>
    524a:	46a1                	li	a3,8
    524c:	bf35                	j	5188 <_strtol_l.isra.0+0x72>
    524e:	03000713          	li	a4,48
    5252:	f0e78fe3          	beq	a5,a4,5170 <_strtol_l.isra.0+0x5a>
    5256:	46a9                	li	a3,10
    5258:	bf05                	j	5188 <_strtol_l.isra.0+0x72>

0000525a <strtol>:
    525a:	81018793          	addi	a5,gp,-2032 # 20000200 <_impure_ptr>
    525e:	439c                	lw	a5,0(a5)
    5260:	86b2                	mv	a3,a2
    5262:	5398                	lw	a4,32(a5)
    5264:	e709                	bnez	a4,526e <strtol+0x14>
    5266:	1fffb717          	auipc	a4,0x1fffb
    526a:	e1a70713          	addi	a4,a4,-486 # 20000080 <__global_locale>
    526e:	862e                	mv	a2,a1
    5270:	85aa                	mv	a1,a0
    5272:	853e                	mv	a0,a5
    5274:	ea3ff06f          	j	5116 <_strtol_l.isra.0>

00005278 <__swbuf_r>:
    5278:	1101                	addi	sp,sp,-32
    527a:	cc22                	sw	s0,24(sp)
    527c:	ca26                	sw	s1,20(sp)
    527e:	c84a                	sw	s2,16(sp)
    5280:	ce06                	sw	ra,28(sp)
    5282:	c64e                	sw	s3,12(sp)
    5284:	84aa                	mv	s1,a0
    5286:	892e                	mv	s2,a1
    5288:	8432                	mv	s0,a2
    528a:	c501                	beqz	a0,5292 <__swbuf_r+0x1a>
    528c:	4d1c                	lw	a5,24(a0)
    528e:	e391                	bnez	a5,5292 <__swbuf_r+0x1a>
    5290:	2925                	jal	56c8 <__sinit>
    5292:	00008797          	auipc	a5,0x8
    5296:	81a78793          	addi	a5,a5,-2022 # caac <__sf_fake_stdin>
    529a:	06f41963          	bne	s0,a5,530c <__swbuf_r+0x94>
    529e:	40c0                	lw	s0,4(s1)
    52a0:	4c1c                	lw	a5,24(s0)
    52a2:	c41c                	sw	a5,8(s0)
    52a4:	00c45783          	lhu	a5,12(s0) # 350000c <_data_lma+0x34f3260>
    52a8:	8ba1                	andi	a5,a5,8
    52aa:	c3c9                	beqz	a5,532c <__swbuf_r+0xb4>
    52ac:	481c                	lw	a5,16(s0)
    52ae:	cfbd                	beqz	a5,532c <__swbuf_r+0xb4>
    52b0:	481c                	lw	a5,16(s0)
    52b2:	4008                	lw	a0,0(s0)
    52b4:	0ff97993          	andi	s3,s2,255
    52b8:	0ff97913          	andi	s2,s2,255
    52bc:	8d1d                	sub	a0,a0,a5
    52be:	485c                	lw	a5,20(s0)
    52c0:	00f54663          	blt	a0,a5,52cc <__swbuf_r+0x54>
    52c4:	85a2                	mv	a1,s0
    52c6:	8526                	mv	a0,s1
    52c8:	2cf9                	jal	55a6 <_fflush_r>
    52ca:	e52d                	bnez	a0,5334 <__swbuf_r+0xbc>
    52cc:	441c                	lw	a5,8(s0)
    52ce:	0505                	addi	a0,a0,1
    52d0:	17fd                	addi	a5,a5,-1
    52d2:	c41c                	sw	a5,8(s0)
    52d4:	401c                	lw	a5,0(s0)
    52d6:	00178713          	addi	a4,a5,1
    52da:	c018                	sw	a4,0(s0)
    52dc:	01378023          	sb	s3,0(a5)
    52e0:	485c                	lw	a5,20(s0)
    52e2:	00a78963          	beq	a5,a0,52f4 <__swbuf_r+0x7c>
    52e6:	00c45783          	lhu	a5,12(s0)
    52ea:	8b85                	andi	a5,a5,1
    52ec:	cb81                	beqz	a5,52fc <__swbuf_r+0x84>
    52ee:	47a9                	li	a5,10
    52f0:	00f91663          	bne	s2,a5,52fc <__swbuf_r+0x84>
    52f4:	85a2                	mv	a1,s0
    52f6:	8526                	mv	a0,s1
    52f8:	247d                	jal	55a6 <_fflush_r>
    52fa:	ed0d                	bnez	a0,5334 <__swbuf_r+0xbc>
    52fc:	40f2                	lw	ra,28(sp)
    52fe:	4462                	lw	s0,24(sp)
    5300:	854a                	mv	a0,s2
    5302:	44d2                	lw	s1,20(sp)
    5304:	4942                	lw	s2,16(sp)
    5306:	49b2                	lw	s3,12(sp)
    5308:	6105                	addi	sp,sp,32
    530a:	8082                	ret
    530c:	00007797          	auipc	a5,0x7
    5310:	7c078793          	addi	a5,a5,1984 # cacc <__sf_fake_stdout>
    5314:	00f41463          	bne	s0,a5,531c <__swbuf_r+0xa4>
    5318:	4480                	lw	s0,8(s1)
    531a:	b759                	j	52a0 <__swbuf_r+0x28>
    531c:	00007797          	auipc	a5,0x7
    5320:	77078793          	addi	a5,a5,1904 # ca8c <__sf_fake_stderr>
    5324:	f6f41ee3          	bne	s0,a5,52a0 <__swbuf_r+0x28>
    5328:	44c0                	lw	s0,12(s1)
    532a:	bf9d                	j	52a0 <__swbuf_r+0x28>
    532c:	85a2                	mv	a1,s0
    532e:	8526                	mv	a0,s1
    5330:	2025                	jal	5358 <__swsetup_r>
    5332:	dd3d                	beqz	a0,52b0 <__swbuf_r+0x38>
    5334:	597d                	li	s2,-1
    5336:	b7d9                	j	52fc <__swbuf_r+0x84>

00005338 <__ascii_wctomb>:
    5338:	cd91                	beqz	a1,5354 <__ascii_wctomb+0x1c>
    533a:	0ff00793          	li	a5,255
    533e:	00c7f763          	bgeu	a5,a2,534c <__ascii_wctomb+0x14>
    5342:	08a00793          	li	a5,138
    5346:	c11c                	sw	a5,0(a0)
    5348:	557d                	li	a0,-1
    534a:	8082                	ret
    534c:	00c58023          	sb	a2,0(a1) # 6b00000 <_data_lma+0x6af3254>
    5350:	4505                	li	a0,1
    5352:	8082                	ret
    5354:	4501                	li	a0,0
    5356:	8082                	ret

00005358 <__swsetup_r>:
    5358:	1141                	addi	sp,sp,-16
    535a:	81018793          	addi	a5,gp,-2032 # 20000200 <_impure_ptr>
    535e:	c226                	sw	s1,4(sp)
    5360:	4384                	lw	s1,0(a5)
    5362:	c422                	sw	s0,8(sp)
    5364:	c04a                	sw	s2,0(sp)
    5366:	c606                	sw	ra,12(sp)
    5368:	892a                	mv	s2,a0
    536a:	842e                	mv	s0,a1
    536c:	c489                	beqz	s1,5376 <__swsetup_r+0x1e>
    536e:	4c9c                	lw	a5,24(s1)
    5370:	e399                	bnez	a5,5376 <__swsetup_r+0x1e>
    5372:	8526                	mv	a0,s1
    5374:	2e91                	jal	56c8 <__sinit>
    5376:	00007797          	auipc	a5,0x7
    537a:	73678793          	addi	a5,a5,1846 # caac <__sf_fake_stdin>
    537e:	02f41c63          	bne	s0,a5,53b6 <__swsetup_r+0x5e>
    5382:	40c0                	lw	s0,4(s1)
    5384:	00c41703          	lh	a4,12(s0)
    5388:	01071793          	slli	a5,a4,0x10
    538c:	83c1                	srli	a5,a5,0x10
    538e:	0087f693          	andi	a3,a5,8
    5392:	eebd                	bnez	a3,5410 <__swsetup_r+0xb8>
    5394:	0107f693          	andi	a3,a5,16
    5398:	ee9d                	bnez	a3,53d6 <__swsetup_r+0x7e>
    539a:	47a5                	li	a5,9
    539c:	00f92023          	sw	a5,0(s2)
    53a0:	04076713          	ori	a4,a4,64
    53a4:	00e41623          	sh	a4,12(s0)
    53a8:	557d                	li	a0,-1
    53aa:	40b2                	lw	ra,12(sp)
    53ac:	4422                	lw	s0,8(sp)
    53ae:	4492                	lw	s1,4(sp)
    53b0:	4902                	lw	s2,0(sp)
    53b2:	0141                	addi	sp,sp,16
    53b4:	8082                	ret
    53b6:	00007797          	auipc	a5,0x7
    53ba:	71678793          	addi	a5,a5,1814 # cacc <__sf_fake_stdout>
    53be:	00f41463          	bne	s0,a5,53c6 <__swsetup_r+0x6e>
    53c2:	4480                	lw	s0,8(s1)
    53c4:	b7c1                	j	5384 <__swsetup_r+0x2c>
    53c6:	00007797          	auipc	a5,0x7
    53ca:	6c678793          	addi	a5,a5,1734 # ca8c <__sf_fake_stderr>
    53ce:	faf41be3          	bne	s0,a5,5384 <__swsetup_r+0x2c>
    53d2:	44c0                	lw	s0,12(s1)
    53d4:	bf45                	j	5384 <__swsetup_r+0x2c>
    53d6:	8b91                	andi	a5,a5,4
    53d8:	c795                	beqz	a5,5404 <__swsetup_r+0xac>
    53da:	584c                	lw	a1,52(s0)
    53dc:	c991                	beqz	a1,53f0 <__swsetup_r+0x98>
    53de:	04440793          	addi	a5,s0,68
    53e2:	00f58563          	beq	a1,a5,53ec <__swsetup_r+0x94>
    53e6:	854a                	mv	a0,s2
    53e8:	cd9fe0ef          	jal	ra,40c0 <_free_r>
    53ec:	02042a23          	sw	zero,52(s0)
    53f0:	00c45783          	lhu	a5,12(s0)
    53f4:	00042223          	sw	zero,4(s0)
    53f8:	fdb7f793          	andi	a5,a5,-37
    53fc:	00f41623          	sh	a5,12(s0)
    5400:	481c                	lw	a5,16(s0)
    5402:	c01c                	sw	a5,0(s0)
    5404:	00c45783          	lhu	a5,12(s0)
    5408:	0087e793          	ori	a5,a5,8
    540c:	00f41623          	sh	a5,12(s0)
    5410:	481c                	lw	a5,16(s0)
    5412:	ef89                	bnez	a5,542c <__swsetup_r+0xd4>
    5414:	00c45783          	lhu	a5,12(s0)
    5418:	20000713          	li	a4,512
    541c:	2807f793          	andi	a5,a5,640
    5420:	00e78663          	beq	a5,a4,542c <__swsetup_r+0xd4>
    5424:	85a2                	mv	a1,s0
    5426:	854a                	mv	a0,s2
    5428:	3b9000ef          	jal	ra,5fe0 <__smakebuf_r>
    542c:	00c45783          	lhu	a5,12(s0)
    5430:	0017f713          	andi	a4,a5,1
    5434:	c705                	beqz	a4,545c <__swsetup_r+0x104>
    5436:	485c                	lw	a5,20(s0)
    5438:	00042423          	sw	zero,8(s0)
    543c:	40f007b3          	neg	a5,a5
    5440:	cc1c                	sw	a5,24(s0)
    5442:	481c                	lw	a5,16(s0)
    5444:	4501                	li	a0,0
    5446:	f3b5                	bnez	a5,53aa <__swsetup_r+0x52>
    5448:	00c41783          	lh	a5,12(s0)
    544c:	0807f713          	andi	a4,a5,128
    5450:	df29                	beqz	a4,53aa <__swsetup_r+0x52>
    5452:	0407e793          	ori	a5,a5,64
    5456:	00f41623          	sh	a5,12(s0)
    545a:	b7b9                	j	53a8 <__swsetup_r+0x50>
    545c:	8b89                	andi	a5,a5,2
    545e:	4701                	li	a4,0
    5460:	e391                	bnez	a5,5464 <__swsetup_r+0x10c>
    5462:	4858                	lw	a4,20(s0)
    5464:	c418                	sw	a4,8(s0)
    5466:	bff1                	j	5442 <__swsetup_r+0xea>

00005468 <__sflush_r>:
    5468:	00c5d783          	lhu	a5,12(a1)
    546c:	1101                	addi	sp,sp,-32
    546e:	cc22                	sw	s0,24(sp)
    5470:	ca26                	sw	s1,20(sp)
    5472:	ce06                	sw	ra,28(sp)
    5474:	c84a                	sw	s2,16(sp)
    5476:	c64e                	sw	s3,12(sp)
    5478:	0087f713          	andi	a4,a5,8
    547c:	84aa                	mv	s1,a0
    547e:	842e                	mv	s0,a1
    5480:	ef79                	bnez	a4,555e <__sflush_r+0xf6>
    5482:	41d8                	lw	a4,4(a1)
    5484:	00e04d63          	bgtz	a4,549e <__sflush_r+0x36>
    5488:	41b8                	lw	a4,64(a1)
    548a:	00e04a63          	bgtz	a4,549e <__sflush_r+0x36>
    548e:	4501                	li	a0,0
    5490:	40f2                	lw	ra,28(sp)
    5492:	4462                	lw	s0,24(sp)
    5494:	44d2                	lw	s1,20(sp)
    5496:	4942                	lw	s2,16(sp)
    5498:	49b2                	lw	s3,12(sp)
    549a:	6105                	addi	sp,sp,32
    549c:	8082                	ret
    549e:	5458                	lw	a4,44(s0)
    54a0:	d77d                	beqz	a4,548e <__sflush_r+0x26>
    54a2:	0004a903          	lw	s2,0(s1)
    54a6:	01379693          	slli	a3,a5,0x13
    54aa:	0004a023          	sw	zero,0(s1)
    54ae:	0606de63          	bgez	a3,552a <__sflush_r+0xc2>
    54b2:	4870                	lw	a2,84(s0)
    54b4:	00c45783          	lhu	a5,12(s0)
    54b8:	8b91                	andi	a5,a5,4
    54ba:	c799                	beqz	a5,54c8 <__sflush_r+0x60>
    54bc:	405c                	lw	a5,4(s0)
    54be:	8e1d                	sub	a2,a2,a5
    54c0:	585c                	lw	a5,52(s0)
    54c2:	c399                	beqz	a5,54c8 <__sflush_r+0x60>
    54c4:	403c                	lw	a5,64(s0)
    54c6:	8e1d                	sub	a2,a2,a5
    54c8:	545c                	lw	a5,44(s0)
    54ca:	500c                	lw	a1,32(s0)
    54cc:	4681                	li	a3,0
    54ce:	8526                	mv	a0,s1
    54d0:	9782                	jalr	a5
    54d2:	57fd                	li	a5,-1
    54d4:	00c45703          	lhu	a4,12(s0)
    54d8:	00f51d63          	bne	a0,a5,54f2 <__sflush_r+0x8a>
    54dc:	4094                	lw	a3,0(s1)
    54de:	47f5                	li	a5,29
    54e0:	06d7e963          	bltu	a5,a3,5552 <__sflush_r+0xea>
    54e4:	204007b7          	lui	a5,0x20400
    54e8:	0785                	addi	a5,a5,1
    54ea:	00d7d7b3          	srl	a5,a5,a3
    54ee:	8b85                	andi	a5,a5,1
    54f0:	c3ad                	beqz	a5,5552 <__sflush_r+0xea>
    54f2:	481c                	lw	a5,16(s0)
    54f4:	00042223          	sw	zero,4(s0)
    54f8:	c01c                	sw	a5,0(s0)
    54fa:	01371793          	slli	a5,a4,0x13
    54fe:	0007d863          	bgez	a5,550e <__sflush_r+0xa6>
    5502:	57fd                	li	a5,-1
    5504:	00f51463          	bne	a0,a5,550c <__sflush_r+0xa4>
    5508:	409c                	lw	a5,0(s1)
    550a:	e391                	bnez	a5,550e <__sflush_r+0xa6>
    550c:	c868                	sw	a0,84(s0)
    550e:	584c                	lw	a1,52(s0)
    5510:	0124a023          	sw	s2,0(s1)
    5514:	ddad                	beqz	a1,548e <__sflush_r+0x26>
    5516:	04440793          	addi	a5,s0,68
    551a:	00f58563          	beq	a1,a5,5524 <__sflush_r+0xbc>
    551e:	8526                	mv	a0,s1
    5520:	ba1fe0ef          	jal	ra,40c0 <_free_r>
    5524:	02042a23          	sw	zero,52(s0)
    5528:	b79d                	j	548e <__sflush_r+0x26>
    552a:	500c                	lw	a1,32(s0)
    552c:	4601                	li	a2,0
    552e:	4685                	li	a3,1
    5530:	8526                	mv	a0,s1
    5532:	9702                	jalr	a4
    5534:	57fd                	li	a5,-1
    5536:	862a                	mv	a2,a0
    5538:	f6f51ee3          	bne	a0,a5,54b4 <__sflush_r+0x4c>
    553c:	409c                	lw	a5,0(s1)
    553e:	dbbd                	beqz	a5,54b4 <__sflush_r+0x4c>
    5540:	4775                	li	a4,29
    5542:	00e78563          	beq	a5,a4,554c <__sflush_r+0xe4>
    5546:	4759                	li	a4,22
    5548:	04e79463          	bne	a5,a4,5590 <__sflush_r+0x128>
    554c:	0124a023          	sw	s2,0(s1)
    5550:	bf3d                	j	548e <__sflush_r+0x26>
    5552:	04076713          	ori	a4,a4,64
    5556:	00e41623          	sh	a4,12(s0)
    555a:	557d                	li	a0,-1
    555c:	bf15                	j	5490 <__sflush_r+0x28>
    555e:	0105a983          	lw	s3,16(a1)
    5562:	f20986e3          	beqz	s3,548e <__sflush_r+0x26>
    5566:	0005a903          	lw	s2,0(a1)
    556a:	8b8d                	andi	a5,a5,3
    556c:	0135a023          	sw	s3,0(a1)
    5570:	41390933          	sub	s2,s2,s3
    5574:	4701                	li	a4,0
    5576:	e391                	bnez	a5,557a <__sflush_r+0x112>
    5578:	49d8                	lw	a4,20(a1)
    557a:	c418                	sw	a4,8(s0)
    557c:	f12059e3          	blez	s2,548e <__sflush_r+0x26>
    5580:	541c                	lw	a5,40(s0)
    5582:	500c                	lw	a1,32(s0)
    5584:	86ca                	mv	a3,s2
    5586:	864e                	mv	a2,s3
    5588:	8526                	mv	a0,s1
    558a:	9782                	jalr	a5
    558c:	00a04963          	bgtz	a0,559e <__sflush_r+0x136>
    5590:	00c45783          	lhu	a5,12(s0)
    5594:	0407e793          	ori	a5,a5,64
    5598:	00f41623          	sh	a5,12(s0)
    559c:	bf7d                	j	555a <__sflush_r+0xf2>
    559e:	99aa                	add	s3,s3,a0
    55a0:	40a90933          	sub	s2,s2,a0
    55a4:	bfe1                	j	557c <__sflush_r+0x114>

000055a6 <_fflush_r>:
    55a6:	499c                	lw	a5,16(a1)
    55a8:	c3a5                	beqz	a5,5608 <_fflush_r+0x62>
    55aa:	1101                	addi	sp,sp,-32
    55ac:	cc22                	sw	s0,24(sp)
    55ae:	ce06                	sw	ra,28(sp)
    55b0:	842a                	mv	s0,a0
    55b2:	c511                	beqz	a0,55be <_fflush_r+0x18>
    55b4:	4d1c                	lw	a5,24(a0)
    55b6:	e781                	bnez	a5,55be <_fflush_r+0x18>
    55b8:	c62e                	sw	a1,12(sp)
    55ba:	2239                	jal	56c8 <__sinit>
    55bc:	45b2                	lw	a1,12(sp)
    55be:	00007797          	auipc	a5,0x7
    55c2:	4ee78793          	addi	a5,a5,1262 # caac <__sf_fake_stdin>
    55c6:	00f59c63          	bne	a1,a5,55de <_fflush_r+0x38>
    55ca:	404c                	lw	a1,4(s0)
    55cc:	00c59783          	lh	a5,12(a1)
    55d0:	c79d                	beqz	a5,55fe <_fflush_r+0x58>
    55d2:	8522                	mv	a0,s0
    55d4:	4462                	lw	s0,24(sp)
    55d6:	40f2                	lw	ra,28(sp)
    55d8:	6105                	addi	sp,sp,32
    55da:	e8fff06f          	j	5468 <__sflush_r>
    55de:	00007797          	auipc	a5,0x7
    55e2:	4ee78793          	addi	a5,a5,1262 # cacc <__sf_fake_stdout>
    55e6:	00f59463          	bne	a1,a5,55ee <_fflush_r+0x48>
    55ea:	440c                	lw	a1,8(s0)
    55ec:	b7c5                	j	55cc <_fflush_r+0x26>
    55ee:	00007797          	auipc	a5,0x7
    55f2:	49e78793          	addi	a5,a5,1182 # ca8c <__sf_fake_stderr>
    55f6:	fcf59be3          	bne	a1,a5,55cc <_fflush_r+0x26>
    55fa:	444c                	lw	a1,12(s0)
    55fc:	bfc1                	j	55cc <_fflush_r+0x26>
    55fe:	40f2                	lw	ra,28(sp)
    5600:	4462                	lw	s0,24(sp)
    5602:	4501                	li	a0,0
    5604:	6105                	addi	sp,sp,32
    5606:	8082                	ret
    5608:	4501                	li	a0,0
    560a:	8082                	ret

0000560c <std>:
    560c:	1141                	addi	sp,sp,-16
    560e:	c422                	sw	s0,8(sp)
    5610:	c606                	sw	ra,12(sp)
    5612:	842a                	mv	s0,a0
    5614:	00b51623          	sh	a1,12(a0)
    5618:	00c51723          	sh	a2,14(a0)
    561c:	00052023          	sw	zero,0(a0)
    5620:	00052223          	sw	zero,4(a0)
    5624:	00052423          	sw	zero,8(a0)
    5628:	06052223          	sw	zero,100(a0)
    562c:	00052823          	sw	zero,16(a0)
    5630:	00052a23          	sw	zero,20(a0)
    5634:	00052c23          	sw	zero,24(a0)
    5638:	4621                	li	a2,8
    563a:	4581                	li	a1,0
    563c:	05c50513          	addi	a0,a0,92
    5640:	bc1fa0ef          	jal	ra,200 <memset>
    5644:	00002797          	auipc	a5,0x2
    5648:	e3078793          	addi	a5,a5,-464 # 7474 <__sread>
    564c:	d05c                	sw	a5,36(s0)
    564e:	00002797          	auipc	a5,0x2
    5652:	e5678793          	addi	a5,a5,-426 # 74a4 <__swrite>
    5656:	d41c                	sw	a5,40(s0)
    5658:	00002797          	auipc	a5,0x2
    565c:	e9a78793          	addi	a5,a5,-358 # 74f2 <__sseek>
    5660:	d45c                	sw	a5,44(s0)
    5662:	00002797          	auipc	a5,0x2
    5666:	ec678793          	addi	a5,a5,-314 # 7528 <__sclose>
    566a:	d000                	sw	s0,32(s0)
    566c:	d81c                	sw	a5,48(s0)
    566e:	40b2                	lw	ra,12(sp)
    5670:	4422                	lw	s0,8(sp)
    5672:	0141                	addi	sp,sp,16
    5674:	8082                	ret

00005676 <_cleanup_r>:
    5676:	00000597          	auipc	a1,0x0
    567a:	f3058593          	addi	a1,a1,-208 # 55a6 <_fflush_r>
    567e:	aa99                	j	57d4 <_fwalk_reent>

00005680 <__sfmoreglue>:
    5680:	1141                	addi	sp,sp,-16
    5682:	c226                	sw	s1,4(sp)
    5684:	06800613          	li	a2,104
    5688:	fff58493          	addi	s1,a1,-1
    568c:	02c484b3          	mul	s1,s1,a2
    5690:	c04a                	sw	s2,0(sp)
    5692:	892e                	mv	s2,a1
    5694:	c422                	sw	s0,8(sp)
    5696:	c606                	sw	ra,12(sp)
    5698:	07448593          	addi	a1,s1,116
    569c:	acdfe0ef          	jal	ra,4168 <_malloc_r>
    56a0:	842a                	mv	s0,a0
    56a2:	cd01                	beqz	a0,56ba <__sfmoreglue+0x3a>
    56a4:	00052023          	sw	zero,0(a0)
    56a8:	01252223          	sw	s2,4(a0)
    56ac:	0531                	addi	a0,a0,12
    56ae:	c408                	sw	a0,8(s0)
    56b0:	06848613          	addi	a2,s1,104
    56b4:	4581                	li	a1,0
    56b6:	b4bfa0ef          	jal	ra,200 <memset>
    56ba:	8522                	mv	a0,s0
    56bc:	40b2                	lw	ra,12(sp)
    56be:	4422                	lw	s0,8(sp)
    56c0:	4492                	lw	s1,4(sp)
    56c2:	4902                	lw	s2,0(sp)
    56c4:	0141                	addi	sp,sp,16
    56c6:	8082                	ret

000056c8 <__sinit>:
    56c8:	4d1c                	lw	a5,24(a0)
    56ca:	e7a5                	bnez	a5,5732 <__sinit+0x6a>
    56cc:	1141                	addi	sp,sp,-16
    56ce:	c606                	sw	ra,12(sp)
    56d0:	c422                	sw	s0,8(sp)
    56d2:	00000797          	auipc	a5,0x0
    56d6:	fa478793          	addi	a5,a5,-92 # 5676 <_cleanup_r>
    56da:	d51c                	sw	a5,40(a0)
    56dc:	81418793          	addi	a5,gp,-2028 # 20000204 <_global_impure_ptr>
    56e0:	439c                	lw	a5,0(a5)
    56e2:	04052423          	sw	zero,72(a0)
    56e6:	04052623          	sw	zero,76(a0)
    56ea:	04052823          	sw	zero,80(a0)
    56ee:	00f51463          	bne	a0,a5,56f6 <__sinit+0x2e>
    56f2:	4785                	li	a5,1
    56f4:	cd1c                	sw	a5,24(a0)
    56f6:	842a                	mv	s0,a0
    56f8:	2835                	jal	5734 <__sfp>
    56fa:	c048                	sw	a0,4(s0)
    56fc:	8522                	mv	a0,s0
    56fe:	281d                	jal	5734 <__sfp>
    5700:	c408                	sw	a0,8(s0)
    5702:	8522                	mv	a0,s0
    5704:	2805                	jal	5734 <__sfp>
    5706:	c448                	sw	a0,12(s0)
    5708:	4048                	lw	a0,4(s0)
    570a:	4601                	li	a2,0
    570c:	4591                	li	a1,4
    570e:	effff0ef          	jal	ra,560c <std>
    5712:	4408                	lw	a0,8(s0)
    5714:	4605                	li	a2,1
    5716:	45a5                	li	a1,9
    5718:	ef5ff0ef          	jal	ra,560c <std>
    571c:	4448                	lw	a0,12(s0)
    571e:	4609                	li	a2,2
    5720:	45c9                	li	a1,18
    5722:	eebff0ef          	jal	ra,560c <std>
    5726:	4785                	li	a5,1
    5728:	cc1c                	sw	a5,24(s0)
    572a:	40b2                	lw	ra,12(sp)
    572c:	4422                	lw	s0,8(sp)
    572e:	0141                	addi	sp,sp,16
    5730:	8082                	ret
    5732:	8082                	ret

00005734 <__sfp>:
    5734:	1141                	addi	sp,sp,-16
    5736:	81418793          	addi	a5,gp,-2028 # 20000204 <_global_impure_ptr>
    573a:	c226                	sw	s1,4(sp)
    573c:	4384                	lw	s1,0(a5)
    573e:	c04a                	sw	s2,0(sp)
    5740:	c606                	sw	ra,12(sp)
    5742:	4c9c                	lw	a5,24(s1)
    5744:	c422                	sw	s0,8(sp)
    5746:	892a                	mv	s2,a0
    5748:	e781                	bnez	a5,5750 <__sfp+0x1c>
    574a:	8526                	mv	a0,s1
    574c:	f7dff0ef          	jal	ra,56c8 <__sinit>
    5750:	04848493          	addi	s1,s1,72
    5754:	4480                	lw	s0,8(s1)
    5756:	40dc                	lw	a5,4(s1)
    5758:	17fd                	addi	a5,a5,-1
    575a:	0007d663          	bgez	a5,5766 <__sfp+0x32>
    575e:	409c                	lw	a5,0(s1)
    5760:	cfb9                	beqz	a5,57be <__sfp+0x8a>
    5762:	4084                	lw	s1,0(s1)
    5764:	bfc5                	j	5754 <__sfp+0x20>
    5766:	00c41703          	lh	a4,12(s0)
    576a:	e739                	bnez	a4,57b8 <__sfp+0x84>
    576c:	77c1                	lui	a5,0xffff0
    576e:	0785                	addi	a5,a5,1
    5770:	06042223          	sw	zero,100(s0)
    5774:	00042023          	sw	zero,0(s0)
    5778:	00042223          	sw	zero,4(s0)
    577c:	00042423          	sw	zero,8(s0)
    5780:	c45c                	sw	a5,12(s0)
    5782:	00042823          	sw	zero,16(s0)
    5786:	00042a23          	sw	zero,20(s0)
    578a:	00042c23          	sw	zero,24(s0)
    578e:	4621                	li	a2,8
    5790:	4581                	li	a1,0
    5792:	05c40513          	addi	a0,s0,92
    5796:	a6bfa0ef          	jal	ra,200 <memset>
    579a:	02042a23          	sw	zero,52(s0)
    579e:	02042c23          	sw	zero,56(s0)
    57a2:	04042423          	sw	zero,72(s0)
    57a6:	04042623          	sw	zero,76(s0)
    57aa:	8522                	mv	a0,s0
    57ac:	40b2                	lw	ra,12(sp)
    57ae:	4422                	lw	s0,8(sp)
    57b0:	4492                	lw	s1,4(sp)
    57b2:	4902                	lw	s2,0(sp)
    57b4:	0141                	addi	sp,sp,16
    57b6:	8082                	ret
    57b8:	06840413          	addi	s0,s0,104
    57bc:	bf71                	j	5758 <__sfp+0x24>
    57be:	4591                	li	a1,4
    57c0:	854a                	mv	a0,s2
    57c2:	ebfff0ef          	jal	ra,5680 <__sfmoreglue>
    57c6:	c088                	sw	a0,0(s1)
    57c8:	fd49                	bnez	a0,5762 <__sfp+0x2e>
    57ca:	47b1                	li	a5,12
    57cc:	00f92023          	sw	a5,0(s2)
    57d0:	4401                	li	s0,0
    57d2:	bfe1                	j	57aa <__sfp+0x76>

000057d4 <_fwalk_reent>:
    57d4:	7179                	addi	sp,sp,-48
    57d6:	d422                	sw	s0,40(sp)
    57d8:	d04a                	sw	s2,32(sp)
    57da:	cc52                	sw	s4,24(sp)
    57dc:	ca56                	sw	s5,20(sp)
    57de:	c85a                	sw	s6,16(sp)
    57e0:	c65e                	sw	s7,12(sp)
    57e2:	d606                	sw	ra,44(sp)
    57e4:	d226                	sw	s1,36(sp)
    57e6:	ce4e                	sw	s3,28(sp)
    57e8:	8a2a                	mv	s4,a0
    57ea:	8aae                	mv	s5,a1
    57ec:	04850413          	addi	s0,a0,72
    57f0:	4901                	li	s2,0
    57f2:	4b05                	li	s6,1
    57f4:	5bfd                	li	s7,-1
    57f6:	ec09                	bnez	s0,5810 <_fwalk_reent+0x3c>
    57f8:	50b2                	lw	ra,44(sp)
    57fa:	5422                	lw	s0,40(sp)
    57fc:	854a                	mv	a0,s2
    57fe:	5492                	lw	s1,36(sp)
    5800:	5902                	lw	s2,32(sp)
    5802:	49f2                	lw	s3,28(sp)
    5804:	4a62                	lw	s4,24(sp)
    5806:	4ad2                	lw	s5,20(sp)
    5808:	4b42                	lw	s6,16(sp)
    580a:	4bb2                	lw	s7,12(sp)
    580c:	6145                	addi	sp,sp,48
    580e:	8082                	ret
    5810:	4404                	lw	s1,8(s0)
    5812:	00442983          	lw	s3,4(s0)
    5816:	19fd                	addi	s3,s3,-1
    5818:	0009d463          	bgez	s3,5820 <_fwalk_reent+0x4c>
    581c:	4000                	lw	s0,0(s0)
    581e:	bfe1                	j	57f6 <_fwalk_reent+0x22>
    5820:	00c4d783          	lhu	a5,12(s1)
    5824:	00fb7b63          	bgeu	s6,a5,583a <_fwalk_reent+0x66>
    5828:	00e49783          	lh	a5,14(s1)
    582c:	01778763          	beq	a5,s7,583a <_fwalk_reent+0x66>
    5830:	85a6                	mv	a1,s1
    5832:	8552                	mv	a0,s4
    5834:	9a82                	jalr	s5
    5836:	00a96933          	or	s2,s2,a0
    583a:	06848493          	addi	s1,s1,104
    583e:	bfe1                	j	5816 <_fwalk_reent+0x42>

00005840 <rshift>:
    5840:	4910                	lw	a2,16(a0)
    5842:	01450693          	addi	a3,a0,20
    5846:	4055d713          	srai	a4,a1,0x5
    584a:	87b6                	mv	a5,a3
    584c:	02c75663          	bge	a4,a2,5878 <rshift+0x38>
    5850:	060a                	slli	a2,a2,0x2
    5852:	070a                	slli	a4,a4,0x2
    5854:	89fd                	andi	a1,a1,31
    5856:	9636                	add	a2,a2,a3
    5858:	9736                	add	a4,a4,a3
    585a:	c9b9                	beqz	a1,58b0 <rshift+0x70>
    585c:	00470813          	addi	a6,a4,4
    5860:	4318                	lw	a4,0(a4)
    5862:	02000313          	li	t1,32
    5866:	40b30333          	sub	t1,t1,a1
    586a:	00b75733          	srl	a4,a4,a1
    586e:	00c86e63          	bltu	a6,a2,588a <rshift+0x4a>
    5872:	c398                	sw	a4,0(a5)
    5874:	c311                	beqz	a4,5878 <rshift+0x38>
    5876:	0791                	addi	a5,a5,4
    5878:	40d78733          	sub	a4,a5,a3
    587c:	8709                	srai	a4,a4,0x2
    587e:	c918                	sw	a4,16(a0)
    5880:	00d79463          	bne	a5,a3,5888 <rshift+0x48>
    5884:	00052a23          	sw	zero,20(a0)
    5888:	8082                	ret
    588a:	00082883          	lw	a7,0(a6)
    588e:	0791                	addi	a5,a5,4
    5890:	0811                	addi	a6,a6,4
    5892:	006898b3          	sll	a7,a7,t1
    5896:	00e8e733          	or	a4,a7,a4
    589a:	fee7ae23          	sw	a4,-4(a5) # fffefffc <_eusrstack+0xdffe7ffc>
    589e:	ffc82703          	lw	a4,-4(a6)
    58a2:	b7e1                	j	586a <rshift+0x2a>
    58a4:	0711                	addi	a4,a4,4
    58a6:	ffc72583          	lw	a1,-4(a4)
    58aa:	0791                	addi	a5,a5,4
    58ac:	feb7ae23          	sw	a1,-4(a5)
    58b0:	fec76ae3          	bltu	a4,a2,58a4 <rshift+0x64>
    58b4:	b7d1                	j	5878 <rshift+0x38>

000058b6 <__hexdig_fun>:
    58b6:	fd050793          	addi	a5,a0,-48
    58ba:	0ff7f793          	andi	a5,a5,255
    58be:	4725                	li	a4,9
    58c0:	00f76763          	bltu	a4,a5,58ce <__hexdig_fun+0x18>
    58c4:	1501                	addi	a0,a0,-32
    58c6:	0ff57793          	andi	a5,a0,255
    58ca:	853e                	mv	a0,a5
    58cc:	8082                	ret
    58ce:	f9f50793          	addi	a5,a0,-97
    58d2:	0ff7f793          	andi	a5,a5,255
    58d6:	4695                	li	a3,5
    58d8:	00f6e563          	bltu	a3,a5,58e2 <__hexdig_fun+0x2c>
    58dc:	fb950513          	addi	a0,a0,-71
    58e0:	b7dd                	j	58c6 <__hexdig_fun+0x10>
    58e2:	fbf50713          	addi	a4,a0,-65
    58e6:	0ff77713          	andi	a4,a4,255
    58ea:	4781                	li	a5,0
    58ec:	fce6efe3          	bltu	a3,a4,58ca <__hexdig_fun+0x14>
    58f0:	fd950513          	addi	a0,a0,-39
    58f4:	bfc9                	j	58c6 <__hexdig_fun+0x10>

000058f6 <__gethex>:
    58f6:	711d                	addi	sp,sp,-96
    58f8:	c2d6                	sw	s5,68(sp)
    58fa:	8aaa                	mv	s5,a0
    58fc:	8542                	mv	a0,a6
    58fe:	c636                	sw	a3,12(sp)
    5900:	c23a                	sw	a4,4(sp)
    5902:	ce86                	sw	ra,92(sp)
    5904:	c8ca                	sw	s2,80(sp)
    5906:	c4d2                	sw	s4,72(sp)
    5908:	c0da                	sw	s6,64(sp)
    590a:	de5e                	sw	s7,60(sp)
    590c:	8b3e                	mv	s6,a5
    590e:	d66e                	sw	s11,44(sp)
    5910:	8932                	mv	s2,a2
    5912:	8dae                	mv	s11,a1
    5914:	cca2                	sw	s0,88(sp)
    5916:	caa6                	sw	s1,84(sp)
    5918:	c6ce                	sw	s3,76(sp)
    591a:	dc62                	sw	s8,56(sp)
    591c:	da66                	sw	s9,52(sp)
    591e:	d86a                	sw	s10,48(sp)
    5920:	2585                	jal	5f80 <__localeconv_l>
    5922:	00052b83          	lw	s7,0(a0)
    5926:	855e                	mv	a0,s7
    5928:	9f1fe0ef          	jal	ra,4318 <strlen>
    592c:	00ab87b3          	add	a5,s7,a0
    5930:	000da683          	lw	a3,0(s11)
    5934:	fff7c783          	lbu	a5,-1(a5)
    5938:	5779                	li	a4,-2
    593a:	8f15                	sub	a4,a4,a3
    593c:	c83e                	sw	a5,16(sp)
    593e:	8a2a                	mv	s4,a0
    5940:	00268793          	addi	a5,a3,2
    5944:	03000693          	li	a3,48
    5948:	00f70633          	add	a2,a4,a5
    594c:	84be                	mv	s1,a5
    594e:	0785                	addi	a5,a5,1
    5950:	fff7c503          	lbu	a0,-1(a5)
    5954:	c432                	sw	a2,8(sp)
    5956:	fed509e3          	beq	a0,a3,5948 <__gethex+0x52>
    595a:	f5dff0ef          	jal	ra,58b6 <__hexdig_fun>
    595e:	10051f63          	bnez	a0,5a7c <__gethex+0x186>
    5962:	8652                	mv	a2,s4
    5964:	85de                	mv	a1,s7
    5966:	8526                	mv	a0,s1
    5968:	3c7010ef          	jal	ra,752e <strncmp>
    596c:	10051d63          	bnez	a0,5a86 <__gethex+0x190>
    5970:	01448c33          	add	s8,s1,s4
    5974:	000c4503          	lbu	a0,0(s8) # d000 <_data_lma+0x254>
    5978:	f3fff0ef          	jal	ra,58b6 <__hexdig_fun>
    597c:	10050663          	beqz	a0,5a88 <__gethex+0x192>
    5980:	84e2                	mv	s1,s8
    5982:	03000793          	li	a5,48
    5986:	0004c503          	lbu	a0,0(s1)
    598a:	00f50b63          	beq	a0,a5,59a0 <__gethex+0xaa>
    598e:	f29ff0ef          	jal	ra,58b6 <__hexdig_fun>
    5992:	4785                	li	a5,1
    5994:	00153993          	seqz	s3,a0
    5998:	8ce2                	mv	s9,s8
    599a:	c43e                	sw	a5,8(sp)
    599c:	8c26                	mv	s8,s1
    599e:	a021                	j	59a6 <__gethex+0xb0>
    59a0:	0485                	addi	s1,s1,1
    59a2:	b7d5                	j	5986 <__gethex+0x90>
    59a4:	0c05                	addi	s8,s8,1
    59a6:	000c4503          	lbu	a0,0(s8)
    59aa:	f0dff0ef          	jal	ra,58b6 <__hexdig_fun>
    59ae:	f97d                	bnez	a0,59a4 <__gethex+0xae>
    59b0:	8652                	mv	a2,s4
    59b2:	85de                	mv	a1,s7
    59b4:	8562                	mv	a0,s8
    59b6:	379010ef          	jal	ra,752e <strncmp>
    59ba:	e911                	bnez	a0,59ce <__gethex+0xd8>
    59bc:	000c9c63          	bnez	s9,59d4 <__gethex+0xde>
    59c0:	9c52                	add	s8,s8,s4
    59c2:	8ce2                	mv	s9,s8
    59c4:	000c4503          	lbu	a0,0(s8)
    59c8:	eefff0ef          	jal	ra,58b6 <__hexdig_fun>
    59cc:	e95d                	bnez	a0,5a82 <__gethex+0x18c>
    59ce:	4401                	li	s0,0
    59d0:	000c8563          	beqz	s9,59da <__gethex+0xe4>
    59d4:	418c8433          	sub	s0,s9,s8
    59d8:	040a                	slli	s0,s0,0x2
    59da:	000c4783          	lbu	a5,0(s8)
    59de:	05000713          	li	a4,80
    59e2:	00e78763          	beq	a5,a4,59f0 <__gethex+0xfa>
    59e6:	07000613          	li	a2,112
    59ea:	8ce2                	mv	s9,s8
    59ec:	06c79063          	bne	a5,a2,5a4c <__gethex+0x156>
    59f0:	001c4783          	lbu	a5,1(s8)
    59f4:	02b00713          	li	a4,43
    59f8:	08e78b63          	beq	a5,a4,5a8e <__gethex+0x198>
    59fc:	02d00713          	li	a4,45
    5a00:	08e78b63          	beq	a5,a4,5a96 <__gethex+0x1a0>
    5a04:	001c0c93          	addi	s9,s8,1
    5a08:	4d01                	li	s10,0
    5a0a:	000cc503          	lbu	a0,0(s9)
    5a0e:	ea9ff0ef          	jal	ra,58b6 <__hexdig_fun>
    5a12:	fff50793          	addi	a5,a0,-1
    5a16:	0ff7f793          	andi	a5,a5,255
    5a1a:	45e1                	li	a1,24
    5a1c:	08f5e463          	bltu	a1,a5,5aa4 <__gethex+0x1ae>
    5a20:	ff050793          	addi	a5,a0,-16
    5a24:	0c85                	addi	s9,s9,1
    5a26:	000cc503          	lbu	a0,0(s9)
    5a2a:	ca3e                	sw	a5,20(sp)
    5a2c:	e8bff0ef          	jal	ra,58b6 <__hexdig_fun>
    5a30:	fff50593          	addi	a1,a0,-1
    5a34:	0ff5f593          	andi	a1,a1,255
    5a38:	4861                	li	a6,24
    5a3a:	47d2                	lw	a5,20(sp)
    5a3c:	48a9                	li	a7,10
    5a3e:	04b87e63          	bgeu	a6,a1,5a9a <__gethex+0x1a4>
    5a42:	000d0463          	beqz	s10,5a4a <__gethex+0x154>
    5a46:	40f007b3          	neg	a5,a5
    5a4a:	943e                	add	s0,s0,a5
    5a4c:	019da023          	sw	s9,0(s11)
    5a50:	04098c63          	beqz	s3,5aa8 <__gethex+0x1b2>
    5a54:	47a2                	lw	a5,8(sp)
    5a56:	4481                	li	s1,0
    5a58:	e391                	bnez	a5,5a5c <__gethex+0x166>
    5a5a:	4499                	li	s1,6
    5a5c:	40f6                	lw	ra,92(sp)
    5a5e:	4466                	lw	s0,88(sp)
    5a60:	8526                	mv	a0,s1
    5a62:	4946                	lw	s2,80(sp)
    5a64:	44d6                	lw	s1,84(sp)
    5a66:	49b6                	lw	s3,76(sp)
    5a68:	4a26                	lw	s4,72(sp)
    5a6a:	4a96                	lw	s5,68(sp)
    5a6c:	4b06                	lw	s6,64(sp)
    5a6e:	5bf2                	lw	s7,60(sp)
    5a70:	5c62                	lw	s8,56(sp)
    5a72:	5cd2                	lw	s9,52(sp)
    5a74:	5d42                	lw	s10,48(sp)
    5a76:	5db2                	lw	s11,44(sp)
    5a78:	6125                	addi	sp,sp,96
    5a7a:	8082                	ret
    5a7c:	4981                	li	s3,0
    5a7e:	4c81                	li	s9,0
    5a80:	bf31                	j	599c <__gethex+0xa6>
    5a82:	0c05                	addi	s8,s8,1
    5a84:	b781                	j	59c4 <__gethex+0xce>
    5a86:	8c26                	mv	s8,s1
    5a88:	4401                	li	s0,0
    5a8a:	4985                	li	s3,1
    5a8c:	b7b9                	j	59da <__gethex+0xe4>
    5a8e:	4d01                	li	s10,0
    5a90:	002c0c93          	addi	s9,s8,2
    5a94:	bf9d                	j	5a0a <__gethex+0x114>
    5a96:	4d05                	li	s10,1
    5a98:	bfe5                	j	5a90 <__gethex+0x19a>
    5a9a:	031787b3          	mul	a5,a5,a7
    5a9e:	97aa                	add	a5,a5,a0
    5aa0:	17c1                	addi	a5,a5,-16
    5aa2:	b749                	j	5a24 <__gethex+0x12e>
    5aa4:	8ce2                	mv	s9,s8
    5aa6:	b75d                	j	5a4c <__gethex+0x156>
    5aa8:	409c07b3          	sub	a5,s8,s1
    5aac:	17fd                	addi	a5,a5,-1
    5aae:	4581                	li	a1,0
    5ab0:	471d                	li	a4,7
    5ab2:	0af74463          	blt	a4,a5,5b5a <__gethex+0x264>
    5ab6:	8556                	mv	a0,s5
    5ab8:	23f9                	jal	6086 <_Balloc>
    5aba:	4605                	li	a2,1
    5abc:	01450993          	addi	s3,a0,20
    5ac0:	414607b3          	sub	a5,a2,s4
    5ac4:	8daa                	mv	s11,a0
    5ac6:	8d4e                	mv	s10,s3
    5ac8:	4881                	li	a7,0
    5aca:	4c81                	li	s9,0
    5acc:	ca3e                	sw	a5,20(sp)
    5ace:	0984e963          	bltu	s1,s8,5b60 <__gethex+0x26a>
    5ad2:	004d0513          	addi	a0,s10,4 # 80000004 <_eusrstack+0x5fff8004>
    5ad6:	41350533          	sub	a0,a0,s3
    5ada:	8509                	srai	a0,a0,0x2
    5adc:	019d2023          	sw	s9,0(s10)
    5ae0:	00ada823          	sw	a0,16(s11)
    5ae4:	00551493          	slli	s1,a0,0x5
    5ae8:	8566                	mv	a0,s9
    5aea:	7aa000ef          	jal	ra,6294 <__hi0bits>
    5aee:	00092b83          	lw	s7,0(s2)
    5af2:	8c89                	sub	s1,s1,a0
    5af4:	0c9bd863          	bge	s7,s1,5bc4 <__gethex+0x2ce>
    5af8:	417484b3          	sub	s1,s1,s7
    5afc:	85a6                	mv	a1,s1
    5afe:	856e                	mv	a0,s11
    5b00:	6cd000ef          	jal	ra,69cc <__any_on>
    5b04:	8a2a                	mv	s4,a0
    5b06:	c905                	beqz	a0,5b36 <__gethex+0x240>
    5b08:	fff48613          	addi	a2,s1,-1
    5b0c:	40565693          	srai	a3,a2,0x5
    5b10:	068a                	slli	a3,a3,0x2
    5b12:	96ce                	add	a3,a3,s3
    5b14:	4294                	lw	a3,0(a3)
    5b16:	4705                	li	a4,1
    5b18:	00c71733          	sll	a4,a4,a2
    5b1c:	8f75                	and	a4,a4,a3
    5b1e:	4a05                	li	s4,1
    5b20:	cb19                	beqz	a4,5b36 <__gethex+0x240>
    5b22:	00ca5963          	bge	s4,a2,5b34 <__gethex+0x23e>
    5b26:	ffe48593          	addi	a1,s1,-2
    5b2a:	856e                	mv	a0,s11
    5b2c:	6a1000ef          	jal	ra,69cc <__any_on>
    5b30:	4a0d                	li	s4,3
    5b32:	e111                	bnez	a0,5b36 <__gethex+0x240>
    5b34:	4a09                	li	s4,2
    5b36:	85a6                	mv	a1,s1
    5b38:	856e                	mv	a0,s11
    5b3a:	d07ff0ef          	jal	ra,5840 <rshift>
    5b3e:	9426                	add	s0,s0,s1
    5b40:	00892703          	lw	a4,8(s2)
    5b44:	08875f63          	bge	a4,s0,5be2 <__gethex+0x2ec>
    5b48:	85ee                	mv	a1,s11
    5b4a:	8556                	mv	a0,s5
    5b4c:	23d9                	jal	6112 <_Bfree>
    5b4e:	4792                	lw	a5,4(sp)
    5b50:	0a300493          	li	s1,163
    5b54:	0007a023          	sw	zero,0(a5)
    5b58:	b711                	j	5a5c <__gethex+0x166>
    5b5a:	0585                	addi	a1,a1,1
    5b5c:	8785                	srai	a5,a5,0x1
    5b5e:	bf91                	j	5ab2 <__gethex+0x1bc>
    5b60:	fffc0793          	addi	a5,s8,-1
    5b64:	c43e                	sw	a5,8(sp)
    5b66:	fffc4603          	lbu	a2,-1(s8)
    5b6a:	47c2                	lw	a5,16(sp)
    5b6c:	02f60963          	beq	a2,a5,5b9e <__gethex+0x2a8>
    5b70:	02000793          	li	a5,32
    5b74:	00f89763          	bne	a7,a5,5b82 <__gethex+0x28c>
    5b78:	019d2023          	sw	s9,0(s10)
    5b7c:	4881                	li	a7,0
    5b7e:	0d11                	addi	s10,s10,4
    5b80:	4c81                	li	s9,0
    5b82:	fffc4503          	lbu	a0,-1(s8)
    5b86:	cc46                	sw	a7,24(sp)
    5b88:	d2fff0ef          	jal	ra,58b6 <__hexdig_fun>
    5b8c:	48e2                	lw	a7,24(sp)
    5b8e:	893d                	andi	a0,a0,15
    5b90:	4322                	lw	t1,8(sp)
    5b92:	01151533          	sll	a0,a0,a7
    5b96:	00acecb3          	or	s9,s9,a0
    5b9a:	0891                	addi	a7,a7,4
    5b9c:	a015                	j	5bc0 <__gethex+0x2ca>
    5b9e:	4752                	lw	a4,20(sp)
    5ba0:	fffc0793          	addi	a5,s8,-1
    5ba4:	00e78333          	add	t1,a5,a4
    5ba8:	fc9364e3          	bltu	t1,s1,5b70 <__gethex+0x27a>
    5bac:	851a                	mv	a0,t1
    5bae:	8652                	mv	a2,s4
    5bb0:	85de                	mv	a1,s7
    5bb2:	ce46                	sw	a7,28(sp)
    5bb4:	cc1a                	sw	t1,24(sp)
    5bb6:	179010ef          	jal	ra,752e <strncmp>
    5bba:	4362                	lw	t1,24(sp)
    5bbc:	48f2                	lw	a7,28(sp)
    5bbe:	f94d                	bnez	a0,5b70 <__gethex+0x27a>
    5bc0:	8c1a                	mv	s8,t1
    5bc2:	b731                	j	5ace <__gethex+0x1d8>
    5bc4:	4a01                	li	s4,0
    5bc6:	f774dde3          	bge	s1,s7,5b40 <__gethex+0x24a>
    5bca:	409b84b3          	sub	s1,s7,s1
    5bce:	85ee                	mv	a1,s11
    5bd0:	8626                	mv	a2,s1
    5bd2:	8556                	mv	a0,s5
    5bd4:	18f000ef          	jal	ra,6562 <__lshift>
    5bd8:	8daa                	mv	s11,a0
    5bda:	8c05                	sub	s0,s0,s1
    5bdc:	01450993          	addi	s3,a0,20
    5be0:	b785                	j	5b40 <__gethex+0x24a>
    5be2:	00492703          	lw	a4,4(s2)
    5be6:	0ee45563          	bge	s0,a4,5cd0 <__gethex+0x3da>
    5bea:	40870433          	sub	s0,a4,s0
    5bee:	07744563          	blt	s0,s7,5c58 <__gethex+0x362>
    5bf2:	00c92703          	lw	a4,12(s2)
    5bf6:	4689                	li	a3,2
    5bf8:	04d70a63          	beq	a4,a3,5c4c <__gethex+0x356>
    5bfc:	468d                	li	a3,3
    5bfe:	04d70a63          	beq	a4,a3,5c52 <__gethex+0x35c>
    5c02:	4685                	li	a3,1
    5c04:	02d71b63          	bne	a4,a3,5c3a <__gethex+0x344>
    5c08:	028b9963          	bne	s7,s0,5c3a <__gethex+0x344>
    5c0c:	02eb9163          	bne	s7,a4,5c2e <__gethex+0x338>
    5c10:	00492703          	lw	a4,4(s2)
    5c14:	47b2                	lw	a5,12(sp)
    5c16:	06200493          	li	s1,98
    5c1a:	c398                	sw	a4,0(a5)
    5c1c:	4705                	li	a4,1
    5c1e:	4792                	lw	a5,4(sp)
    5c20:	00eda823          	sw	a4,16(s11)
    5c24:	00e9a023          	sw	a4,0(s3)
    5c28:	01b7a023          	sw	s11,0(a5)
    5c2c:	bd05                	j	5a5c <__gethex+0x166>
    5c2e:	fffb8593          	addi	a1,s7,-1 # cfff <_data_lma+0x253>
    5c32:	856e                	mv	a0,s11
    5c34:	599000ef          	jal	ra,69cc <__any_on>
    5c38:	fd61                	bnez	a0,5c10 <__gethex+0x31a>
    5c3a:	85ee                	mv	a1,s11
    5c3c:	8556                	mv	a0,s5
    5c3e:	29d1                	jal	6112 <_Bfree>
    5c40:	4792                	lw	a5,4(sp)
    5c42:	05000493          	li	s1,80
    5c46:	0007a023          	sw	zero,0(a5)
    5c4a:	bd09                	j	5a5c <__gethex+0x166>
    5c4c:	fe0b17e3          	bnez	s6,5c3a <__gethex+0x344>
    5c50:	b7c1                	j	5c10 <__gethex+0x31a>
    5c52:	fa0b1fe3          	bnez	s6,5c10 <__gethex+0x31a>
    5c56:	b7d5                	j	5c3a <__gethex+0x344>
    5c58:	fff40493          	addi	s1,s0,-1
    5c5c:	060a1863          	bnez	s4,5ccc <__gethex+0x3d6>
    5c60:	c491                	beqz	s1,5c6c <__gethex+0x376>
    5c62:	85a6                	mv	a1,s1
    5c64:	856e                	mv	a0,s11
    5c66:	567000ef          	jal	ra,69cc <__any_on>
    5c6a:	8a2a                	mv	s4,a0
    5c6c:	4054d713          	srai	a4,s1,0x5
    5c70:	070a                	slli	a4,a4,0x2
    5c72:	974e                	add	a4,a4,s3
    5c74:	4318                	lw	a4,0(a4)
    5c76:	4585                	li	a1,1
    5c78:	009595b3          	sll	a1,a1,s1
    5c7c:	8df9                	and	a1,a1,a4
    5c7e:	c199                	beqz	a1,5c84 <__gethex+0x38e>
    5c80:	002a6a13          	ori	s4,s4,2
    5c84:	85a2                	mv	a1,s0
    5c86:	856e                	mv	a0,s11
    5c88:	408b8bb3          	sub	s7,s7,s0
    5c8c:	bb5ff0ef          	jal	ra,5840 <rshift>
    5c90:	00492403          	lw	s0,4(s2)
    5c94:	4489                	li	s1,2
    5c96:	080a0b63          	beqz	s4,5d2c <__gethex+0x436>
    5c9a:	00c92703          	lw	a4,12(s2)
    5c9e:	4689                	li	a3,2
    5ca0:	02d70a63          	beq	a4,a3,5cd4 <__gethex+0x3de>
    5ca4:	468d                	li	a3,3
    5ca6:	02d70a63          	beq	a4,a3,5cda <__gethex+0x3e4>
    5caa:	4685                	li	a3,1
    5cac:	00d71d63          	bne	a4,a3,5cc6 <__gethex+0x3d0>
    5cb0:	002a7713          	andi	a4,s4,2
    5cb4:	cb09                	beqz	a4,5cc6 <__gethex+0x3d0>
    5cb6:	0009a703          	lw	a4,0(s3)
    5cba:	00ea6a33          	or	s4,s4,a4
    5cbe:	001a7a13          	andi	s4,s4,1
    5cc2:	000a1e63          	bnez	s4,5cde <__gethex+0x3e8>
    5cc6:	0104e493          	ori	s1,s1,16
    5cca:	a08d                	j	5d2c <__gethex+0x436>
    5ccc:	4a05                	li	s4,1
    5cce:	bf79                	j	5c6c <__gethex+0x376>
    5cd0:	4485                	li	s1,1
    5cd2:	b7d1                	j	5c96 <__gethex+0x3a0>
    5cd4:	4705                	li	a4,1
    5cd6:	41670b33          	sub	s6,a4,s6
    5cda:	fe0b06e3          	beqz	s6,5cc6 <__gethex+0x3d0>
    5cde:	010da983          	lw	s3,16(s11)
    5ce2:	014d8713          	addi	a4,s11,20
    5ce6:	55fd                	li	a1,-1
    5ce8:	00299a13          	slli	s4,s3,0x2
    5cec:	01470633          	add	a2,a4,s4
    5cf0:	4314                	lw	a3,0(a4)
    5cf2:	04b68363          	beq	a3,a1,5d38 <__gethex+0x442>
    5cf6:	0685                	addi	a3,a3,1
    5cf8:	c314                	sw	a3,0(a4)
    5cfa:	4689                	li	a3,2
    5cfc:	014d8713          	addi	a4,s11,20
    5d00:	08d49463          	bne	s1,a3,5d88 <__gethex+0x492>
    5d04:	00092683          	lw	a3,0(s2)
    5d08:	16fd                	addi	a3,a3,-1
    5d0a:	01769f63          	bne	a3,s7,5d28 <__gethex+0x432>
    5d0e:	405bd693          	srai	a3,s7,0x5
    5d12:	068a                	slli	a3,a3,0x2
    5d14:	9736                	add	a4,a4,a3
    5d16:	4318                	lw	a4,0(a4)
    5d18:	4685                	li	a3,1
    5d1a:	01769bb3          	sll	s7,a3,s7
    5d1e:	00ebfbb3          	and	s7,s7,a4
    5d22:	000b8363          	beqz	s7,5d28 <__gethex+0x432>
    5d26:	4485                	li	s1,1
    5d28:	0204e493          	ori	s1,s1,32
    5d2c:	4792                	lw	a5,4(sp)
    5d2e:	01b7a023          	sw	s11,0(a5)
    5d32:	47b2                	lw	a5,12(sp)
    5d34:	c380                	sw	s0,0(a5)
    5d36:	b31d                	j	5a5c <__gethex+0x166>
    5d38:	0711                	addi	a4,a4,4
    5d3a:	fe072e23          	sw	zero,-4(a4)
    5d3e:	fac769e3          	bltu	a4,a2,5cf0 <__gethex+0x3fa>
    5d42:	008da703          	lw	a4,8(s11)
    5d46:	02e9c563          	blt	s3,a4,5d70 <__gethex+0x47a>
    5d4a:	004da583          	lw	a1,4(s11)
    5d4e:	8556                	mv	a0,s5
    5d50:	0585                	addi	a1,a1,1
    5d52:	2e15                	jal	6086 <_Balloc>
    5d54:	010da603          	lw	a2,16(s11)
    5d58:	00cd8593          	addi	a1,s11,12
    5d5c:	8b2a                	mv	s6,a0
    5d5e:	0609                	addi	a2,a2,2
    5d60:	060a                	slli	a2,a2,0x2
    5d62:	0531                	addi	a0,a0,12
    5d64:	aa6fe0ef          	jal	ra,400a <memcpy>
    5d68:	85ee                	mv	a1,s11
    5d6a:	8556                	mv	a0,s5
    5d6c:	265d                	jal	6112 <_Bfree>
    5d6e:	8dda                	mv	s11,s6
    5d70:	010da703          	lw	a4,16(s11)
    5d74:	00170693          	addi	a3,a4,1
    5d78:	0711                	addi	a4,a4,4
    5d7a:	070a                	slli	a4,a4,0x2
    5d7c:	00dda823          	sw	a3,16(s11)
    5d80:	976e                	add	a4,a4,s11
    5d82:	4685                	li	a3,1
    5d84:	c354                	sw	a3,4(a4)
    5d86:	bf95                	j	5cfa <__gethex+0x404>
    5d88:	010da683          	lw	a3,16(s11)
    5d8c:	00d9dc63          	bge	s3,a3,5da4 <__gethex+0x4ae>
    5d90:	4585                	li	a1,1
    5d92:	856e                	mv	a0,s11
    5d94:	aadff0ef          	jal	ra,5840 <rshift>
    5d98:	00892703          	lw	a4,8(s2)
    5d9c:	0405                	addi	s0,s0,1
    5d9e:	f88754e3          	bge	a4,s0,5d26 <__gethex+0x430>
    5da2:	b35d                	j	5b48 <__gethex+0x252>
    5da4:	01fbfb93          	andi	s7,s7,31
    5da8:	4485                	li	s1,1
    5daa:	f60b8fe3          	beqz	s7,5d28 <__gethex+0x432>
    5dae:	9752                	add	a4,a4,s4
    5db0:	ffc72503          	lw	a0,-4(a4)
    5db4:	21c5                	jal	6294 <__hi0bits>
    5db6:	02000713          	li	a4,32
    5dba:	41770bb3          	sub	s7,a4,s7
    5dbe:	fd7549e3          	blt	a0,s7,5d90 <__gethex+0x49a>
    5dc2:	b79d                	j	5d28 <__gethex+0x432>

00005dc4 <L_shift>:
    5dc4:	47a1                	li	a5,8
    5dc6:	40c78633          	sub	a2,a5,a2
    5dca:	060a                	slli	a2,a2,0x2
    5dcc:	02000693          	li	a3,32
    5dd0:	8e91                	sub	a3,a3,a2
    5dd2:	415c                	lw	a5,4(a0)
    5dd4:	4118                	lw	a4,0(a0)
    5dd6:	0511                	addi	a0,a0,4
    5dd8:	00d79833          	sll	a6,a5,a3
    5ddc:	01076733          	or	a4,a4,a6
    5de0:	00c7d7b3          	srl	a5,a5,a2
    5de4:	fee52e23          	sw	a4,-4(a0)
    5de8:	c11c                	sw	a5,0(a0)
    5dea:	feb564e3          	bltu	a0,a1,5dd2 <L_shift+0xe>
    5dee:	8082                	ret

00005df0 <__match>:
    5df0:	411c                	lw	a5,0(a0)
    5df2:	4865                	li	a6,25
    5df4:	0585                	addi	a1,a1,1
    5df6:	fff5c603          	lbu	a2,-1(a1)
    5dfa:	0785                	addi	a5,a5,1
    5dfc:	e601                	bnez	a2,5e04 <__match+0x14>
    5dfe:	c11c                	sw	a5,0(a0)
    5e00:	4505                	li	a0,1
    5e02:	8082                	ret
    5e04:	0007c703          	lbu	a4,0(a5)
    5e08:	fbf70693          	addi	a3,a4,-65
    5e0c:	0ff6f693          	andi	a3,a3,255
    5e10:	00d86463          	bltu	a6,a3,5e18 <__match+0x28>
    5e14:	02070713          	addi	a4,a4,32
    5e18:	fcc70ee3          	beq	a4,a2,5df4 <__match+0x4>
    5e1c:	4501                	li	a0,0
    5e1e:	8082                	ret

00005e20 <__hexnan>:
    5e20:	715d                	addi	sp,sp,-80
    5e22:	dc52                	sw	s4,56(sp)
    5e24:	0005aa03          	lw	s4,0(a1)
    5e28:	c2a6                	sw	s1,68(sp)
    5e2a:	de4e                	sw	s3,60(sp)
    5e2c:	405a5493          	srai	s1,s4,0x5
    5e30:	d85a                	sw	s6,48(sp)
    5e32:	048a                	slli	s1,s1,0x2
    5e34:	c686                	sw	ra,76(sp)
    5e36:	c4a2                	sw	s0,72(sp)
    5e38:	c0ca                	sw	s2,64(sp)
    5e3a:	da56                	sw	s5,52(sp)
    5e3c:	d65e                	sw	s7,44(sp)
    5e3e:	d462                	sw	s8,40(sp)
    5e40:	d266                	sw	s9,36(sp)
    5e42:	d06a                	sw	s10,32(sp)
    5e44:	ce6e                	sw	s11,28(sp)
    5e46:	01fa7a13          	andi	s4,s4,31
    5e4a:	8b2a                	mv	s6,a0
    5e4c:	89b2                	mv	s3,a2
    5e4e:	94b2                	add	s1,s1,a2
    5e50:	000a0363          	beqz	s4,5e56 <__hexnan+0x36>
    5e54:	0491                	addi	s1,s1,4
    5e56:	000b2783          	lw	a5,0(s6)
    5e5a:	ffc48913          	addi	s2,s1,-4
    5e5e:	fe04ae23          	sw	zero,-4(s1)
    5e62:	8dca                	mv	s11,s2
    5e64:	844a                	mv	s0,s2
    5e66:	4601                	li	a2,0
    5e68:	4a81                	li	s5,0
    5e6a:	4b81                	li	s7,0
    5e6c:	4c21                	li	s8,8
    5e6e:	02000c93          	li	s9,32
    5e72:	4d1d                	li	s10,7
    5e74:	0017c683          	lbu	a3,1(a5)
    5e78:	00178713          	addi	a4,a5,1
    5e7c:	c03a                	sw	a4,0(sp)
    5e7e:	cab1                	beqz	a3,5ed2 <__hexnan+0xb2>
    5e80:	8536                	mv	a0,a3
    5e82:	c632                	sw	a2,12(sp)
    5e84:	c43e                	sw	a5,8(sp)
    5e86:	c236                	sw	a3,4(sp)
    5e88:	a2fff0ef          	jal	ra,58b6 <__hexdig_fun>
    5e8c:	4632                	lw	a2,12(sp)
    5e8e:	e559                	bnez	a0,5f1c <__hexnan+0xfc>
    5e90:	4692                	lw	a3,4(sp)
    5e92:	47a2                	lw	a5,8(sp)
    5e94:	02dce863          	bltu	s9,a3,5ec4 <__hexnan+0xa4>
    5e98:	037ad463          	bge	s5,s7,5ec0 <__hexnan+0xa0>
    5e9c:	01b47863          	bgeu	s0,s11,5eac <__hexnan+0x8c>
    5ea0:	00cd4663          	blt	s10,a2,5eac <__hexnan+0x8c>
    5ea4:	85ee                	mv	a1,s11
    5ea6:	8522                	mv	a0,s0
    5ea8:	f1dff0ef          	jal	ra,5dc4 <L_shift>
    5eac:	4621                	li	a2,8
    5eae:	0089f963          	bgeu	s3,s0,5ec0 <__hexnan+0xa0>
    5eb2:	ffc40d93          	addi	s11,s0,-4
    5eb6:	fe042e23          	sw	zero,-4(s0)
    5eba:	8ade                	mv	s5,s7
    5ebc:	846e                	mv	s0,s11
    5ebe:	4601                	li	a2,0
    5ec0:	4782                	lw	a5,0(sp)
    5ec2:	bf4d                	j	5e74 <__hexnan+0x54>
    5ec4:	02900593          	li	a1,41
    5ec8:	08b69c63          	bne	a3,a1,5f60 <__hexnan+0x140>
    5ecc:	0789                	addi	a5,a5,2
    5ece:	00fb2023          	sw	a5,0(s6)
    5ed2:	080b8763          	beqz	s7,5f60 <__hexnan+0x140>
    5ed6:	01b47963          	bgeu	s0,s11,5ee8 <__hexnan+0xc8>
    5eda:	479d                	li	a5,7
    5edc:	00c7c663          	blt	a5,a2,5ee8 <__hexnan+0xc8>
    5ee0:	85ee                	mv	a1,s11
    5ee2:	8522                	mv	a0,s0
    5ee4:	ee1ff0ef          	jal	ra,5dc4 <L_shift>
    5ee8:	0489fa63          	bgeu	s3,s0,5f3c <__hexnan+0x11c>
    5eec:	87ce                	mv	a5,s3
    5eee:	0411                	addi	s0,s0,4
    5ef0:	ffc42703          	lw	a4,-4(s0)
    5ef4:	0791                	addi	a5,a5,4
    5ef6:	fee7ae23          	sw	a4,-4(a5)
    5efa:	fe897ae3          	bgeu	s2,s0,5eee <__hexnan+0xce>
    5efe:	0791                	addi	a5,a5,4
    5f00:	fe07ae23          	sw	zero,-4(a5)
    5f04:	fef97de3          	bgeu	s2,a5,5efe <__hexnan+0xde>
    5f08:	00092783          	lw	a5,0(s2)
    5f0c:	e791                	bnez	a5,5f18 <__hexnan+0xf8>
    5f0e:	05391763          	bne	s2,s3,5f5c <__hexnan+0x13c>
    5f12:	4785                	li	a5,1
    5f14:	00f92023          	sw	a5,0(s2)
    5f18:	4515                	li	a0,5
    5f1a:	a0a1                	j	5f62 <__hexnan+0x142>
    5f1c:	0605                	addi	a2,a2,1
    5f1e:	0b85                	addi	s7,s7,1
    5f20:	00cc5863          	bge	s8,a2,5f30 <__hexnan+0x110>
    5f24:	f889fee3          	bgeu	s3,s0,5ec0 <__hexnan+0xa0>
    5f28:	fe042e23          	sw	zero,-4(s0)
    5f2c:	4605                	li	a2,1
    5f2e:	1471                	addi	s0,s0,-4
    5f30:	401c                	lw	a5,0(s0)
    5f32:	893d                	andi	a0,a0,15
    5f34:	0792                	slli	a5,a5,0x4
    5f36:	8fc9                	or	a5,a5,a0
    5f38:	c01c                	sw	a5,0(s0)
    5f3a:	b759                	j	5ec0 <__hexnan+0xa0>
    5f3c:	fc0a06e3          	beqz	s4,5f08 <__hexnan+0xe8>
    5f40:	02000793          	li	a5,32
    5f44:	414787b3          	sub	a5,a5,s4
    5f48:	5a7d                	li	s4,-1
    5f4a:	00fa57b3          	srl	a5,s4,a5
    5f4e:	ffc4aa03          	lw	s4,-4(s1)
    5f52:	00fa7a33          	and	s4,s4,a5
    5f56:	ff44ae23          	sw	s4,-4(s1)
    5f5a:	b77d                	j	5f08 <__hexnan+0xe8>
    5f5c:	1971                	addi	s2,s2,-4
    5f5e:	b76d                	j	5f08 <__hexnan+0xe8>
    5f60:	4511                	li	a0,4
    5f62:	40b6                	lw	ra,76(sp)
    5f64:	4426                	lw	s0,72(sp)
    5f66:	4496                	lw	s1,68(sp)
    5f68:	4906                	lw	s2,64(sp)
    5f6a:	59f2                	lw	s3,60(sp)
    5f6c:	5a62                	lw	s4,56(sp)
    5f6e:	5ad2                	lw	s5,52(sp)
    5f70:	5b42                	lw	s6,48(sp)
    5f72:	5bb2                	lw	s7,44(sp)
    5f74:	5c22                	lw	s8,40(sp)
    5f76:	5c92                	lw	s9,36(sp)
    5f78:	5d02                	lw	s10,32(sp)
    5f7a:	4df2                	lw	s11,28(sp)
    5f7c:	6161                	addi	sp,sp,80
    5f7e:	8082                	ret

00005f80 <__localeconv_l>:
    5f80:	0f050513          	addi	a0,a0,240
    5f84:	8082                	ret

00005f86 <__swhatbuf_r>:
    5f86:	7119                	addi	sp,sp,-128
    5f88:	daa6                	sw	s1,116(sp)
    5f8a:	84ae                	mv	s1,a1
    5f8c:	00e59583          	lh	a1,14(a1)
    5f90:	dca2                	sw	s0,120(sp)
    5f92:	de86                	sw	ra,124(sp)
    5f94:	8432                	mv	s0,a2
    5f96:	0005dc63          	bgez	a1,5fae <__swhatbuf_r+0x28>
    5f9a:	00c4d783          	lhu	a5,12(s1)
    5f9e:	0006a023          	sw	zero,0(a3)
    5fa2:	0807f793          	andi	a5,a5,128
    5fa6:	e785                	bnez	a5,5fce <__swhatbuf_r+0x48>
    5fa8:	40000793          	li	a5,1024
    5fac:	a01d                	j	5fd2 <__swhatbuf_r+0x4c>
    5fae:	0830                	addi	a2,sp,24
    5fb0:	c636                	sw	a3,12(sp)
    5fb2:	600010ef          	jal	ra,75b2 <_fstat_r>
    5fb6:	46b2                	lw	a3,12(sp)
    5fb8:	fe0541e3          	bltz	a0,5f9a <__swhatbuf_r+0x14>
    5fbc:	4772                	lw	a4,28(sp)
    5fbe:	67bd                	lui	a5,0xf
    5fc0:	8ff9                	and	a5,a5,a4
    5fc2:	7779                	lui	a4,0xffffe
    5fc4:	97ba                	add	a5,a5,a4
    5fc6:	0017b793          	seqz	a5,a5
    5fca:	c29c                	sw	a5,0(a3)
    5fcc:	bff1                	j	5fa8 <__swhatbuf_r+0x22>
    5fce:	04000793          	li	a5,64
    5fd2:	c01c                	sw	a5,0(s0)
    5fd4:	50f6                	lw	ra,124(sp)
    5fd6:	5466                	lw	s0,120(sp)
    5fd8:	54d6                	lw	s1,116(sp)
    5fda:	4501                	li	a0,0
    5fdc:	6109                	addi	sp,sp,128
    5fde:	8082                	ret

00005fe0 <__smakebuf_r>:
    5fe0:	00c5d783          	lhu	a5,12(a1)
    5fe4:	1101                	addi	sp,sp,-32
    5fe6:	cc22                	sw	s0,24(sp)
    5fe8:	ce06                	sw	ra,28(sp)
    5fea:	ca26                	sw	s1,20(sp)
    5fec:	c84a                	sw	s2,16(sp)
    5fee:	8b89                	andi	a5,a5,2
    5ff0:	842e                	mv	s0,a1
    5ff2:	cf89                	beqz	a5,600c <__smakebuf_r+0x2c>
    5ff4:	04740793          	addi	a5,s0,71
    5ff8:	c01c                	sw	a5,0(s0)
    5ffa:	c81c                	sw	a5,16(s0)
    5ffc:	4785                	li	a5,1
    5ffe:	c85c                	sw	a5,20(s0)
    6000:	40f2                	lw	ra,28(sp)
    6002:	4462                	lw	s0,24(sp)
    6004:	44d2                	lw	s1,20(sp)
    6006:	4942                	lw	s2,16(sp)
    6008:	6105                	addi	sp,sp,32
    600a:	8082                	ret
    600c:	0074                	addi	a3,sp,12
    600e:	0030                	addi	a2,sp,8
    6010:	84aa                	mv	s1,a0
    6012:	f75ff0ef          	jal	ra,5f86 <__swhatbuf_r>
    6016:	45a2                	lw	a1,8(sp)
    6018:	892a                	mv	s2,a0
    601a:	8526                	mv	a0,s1
    601c:	94cfe0ef          	jal	ra,4168 <_malloc_r>
    6020:	ed01                	bnez	a0,6038 <__smakebuf_r+0x58>
    6022:	00c41783          	lh	a5,12(s0)
    6026:	2007f713          	andi	a4,a5,512
    602a:	fb79                	bnez	a4,6000 <__smakebuf_r+0x20>
    602c:	9bf1                	andi	a5,a5,-4
    602e:	0027e793          	ori	a5,a5,2
    6032:	00f41623          	sh	a5,12(s0)
    6036:	bf7d                	j	5ff4 <__smakebuf_r+0x14>
    6038:	fffff797          	auipc	a5,0xfffff
    603c:	63e78793          	addi	a5,a5,1598 # 5676 <_cleanup_r>
    6040:	d49c                	sw	a5,40(s1)
    6042:	00c45783          	lhu	a5,12(s0)
    6046:	c008                	sw	a0,0(s0)
    6048:	c808                	sw	a0,16(s0)
    604a:	0807e793          	ori	a5,a5,128
    604e:	00f41623          	sh	a5,12(s0)
    6052:	47a2                	lw	a5,8(sp)
    6054:	c85c                	sw	a5,20(s0)
    6056:	47b2                	lw	a5,12(sp)
    6058:	cf91                	beqz	a5,6074 <__smakebuf_r+0x94>
    605a:	00e41583          	lh	a1,14(s0)
    605e:	8526                	mv	a0,s1
    6060:	57e010ef          	jal	ra,75de <_isatty_r>
    6064:	c901                	beqz	a0,6074 <__smakebuf_r+0x94>
    6066:	00c45783          	lhu	a5,12(s0)
    606a:	9bf1                	andi	a5,a5,-4
    606c:	0017e793          	ori	a5,a5,1
    6070:	00f41623          	sh	a5,12(s0)
    6074:	00c45783          	lhu	a5,12(s0)
    6078:	00f96933          	or	s2,s2,a5
    607c:	01241623          	sh	s2,12(s0)
    6080:	b741                	j	6000 <__smakebuf_r+0x20>

00006082 <__malloc_lock>:
    6082:	8082                	ret

00006084 <__malloc_unlock>:
    6084:	8082                	ret

00006086 <_Balloc>:
    6086:	515c                	lw	a5,36(a0)
    6088:	1141                	addi	sp,sp,-16
    608a:	c422                	sw	s0,8(sp)
    608c:	c04a                	sw	s2,0(sp)
    608e:	c606                	sw	ra,12(sp)
    6090:	c226                	sw	s1,4(sp)
    6092:	842a                	mv	s0,a0
    6094:	892e                	mv	s2,a1
    6096:	ef89                	bnez	a5,60b0 <_Balloc+0x2a>
    6098:	4541                	li	a0,16
    609a:	f23fd0ef          	jal	ra,3fbc <malloc>
    609e:	d048                	sw	a0,36(s0)
    60a0:	00052223          	sw	zero,4(a0)
    60a4:	00052423          	sw	zero,8(a0)
    60a8:	00052023          	sw	zero,0(a0)
    60ac:	00052623          	sw	zero,12(a0)
    60b0:	5044                	lw	s1,36(s0)
    60b2:	44dc                	lw	a5,12(s1)
    60b4:	c79d                	beqz	a5,60e2 <_Balloc+0x5c>
    60b6:	5058                	lw	a4,36(s0)
    60b8:	00291793          	slli	a5,s2,0x2
    60bc:	4758                	lw	a4,12(a4)
    60be:	97ba                	add	a5,a5,a4
    60c0:	4388                	lw	a0,0(a5)
    60c2:	e129                	bnez	a0,6104 <_Balloc+0x7e>
    60c4:	4485                	li	s1,1
    60c6:	012494b3          	sll	s1,s1,s2
    60ca:	00548613          	addi	a2,s1,5
    60ce:	060a                	slli	a2,a2,0x2
    60d0:	4585                	li	a1,1
    60d2:	8522                	mv	a0,s0
    60d4:	13f000ef          	jal	ra,6a12 <_calloc_r>
    60d8:	cd19                	beqz	a0,60f6 <_Balloc+0x70>
    60da:	01252223          	sw	s2,4(a0)
    60de:	c504                	sw	s1,8(a0)
    60e0:	a025                	j	6108 <_Balloc+0x82>
    60e2:	02100613          	li	a2,33
    60e6:	4591                	li	a1,4
    60e8:	8522                	mv	a0,s0
    60ea:	129000ef          	jal	ra,6a12 <_calloc_r>
    60ee:	505c                	lw	a5,36(s0)
    60f0:	c4c8                	sw	a0,12(s1)
    60f2:	47dc                	lw	a5,12(a5)
    60f4:	f3e9                	bnez	a5,60b6 <_Balloc+0x30>
    60f6:	4501                	li	a0,0
    60f8:	40b2                	lw	ra,12(sp)
    60fa:	4422                	lw	s0,8(sp)
    60fc:	4492                	lw	s1,4(sp)
    60fe:	4902                	lw	s2,0(sp)
    6100:	0141                	addi	sp,sp,16
    6102:	8082                	ret
    6104:	4118                	lw	a4,0(a0)
    6106:	c398                	sw	a4,0(a5)
    6108:	00052823          	sw	zero,16(a0)
    610c:	00052623          	sw	zero,12(a0)
    6110:	b7e5                	j	60f8 <_Balloc+0x72>

00006112 <_Bfree>:
    6112:	515c                	lw	a5,36(a0)
    6114:	1101                	addi	sp,sp,-32
    6116:	cc22                	sw	s0,24(sp)
    6118:	ce06                	sw	ra,28(sp)
    611a:	842a                	mv	s0,a0
    611c:	ef99                	bnez	a5,613a <_Bfree+0x28>
    611e:	4541                	li	a0,16
    6120:	c62e                	sw	a1,12(sp)
    6122:	e9bfd0ef          	jal	ra,3fbc <malloc>
    6126:	45b2                	lw	a1,12(sp)
    6128:	d048                	sw	a0,36(s0)
    612a:	00052223          	sw	zero,4(a0)
    612e:	00052423          	sw	zero,8(a0)
    6132:	00052023          	sw	zero,0(a0)
    6136:	00052623          	sw	zero,12(a0)
    613a:	c991                	beqz	a1,614e <_Bfree+0x3c>
    613c:	5054                	lw	a3,36(s0)
    613e:	41dc                	lw	a5,4(a1)
    6140:	00279713          	slli	a4,a5,0x2
    6144:	46dc                	lw	a5,12(a3)
    6146:	97ba                	add	a5,a5,a4
    6148:	4398                	lw	a4,0(a5)
    614a:	c198                	sw	a4,0(a1)
    614c:	c38c                	sw	a1,0(a5)
    614e:	40f2                	lw	ra,28(sp)
    6150:	4462                	lw	s0,24(sp)
    6152:	6105                	addi	sp,sp,32
    6154:	8082                	ret

00006156 <__multadd>:
    6156:	7179                	addi	sp,sp,-48
    6158:	ce4e                	sw	s3,28(sp)
    615a:	89aa                	mv	s3,a0
    615c:	6541                	lui	a0,0x10
    615e:	d422                	sw	s0,40(sp)
    6160:	d226                	sw	s1,36(sp)
    6162:	842e                	mv	s0,a1
    6164:	4984                	lw	s1,16(a1)
    6166:	d606                	sw	ra,44(sp)
    6168:	d04a                	sw	s2,32(sp)
    616a:	05d1                	addi	a1,a1,20
    616c:	4801                	li	a6,0
    616e:	157d                	addi	a0,a0,-1
    6170:	419c                	lw	a5,0(a1)
    6172:	0591                	addi	a1,a1,4
    6174:	0805                	addi	a6,a6,1
    6176:	00a7f733          	and	a4,a5,a0
    617a:	02c70733          	mul	a4,a4,a2
    617e:	83c1                	srli	a5,a5,0x10
    6180:	02c787b3          	mul	a5,a5,a2
    6184:	9736                	add	a4,a4,a3
    6186:	01075693          	srli	a3,a4,0x10
    618a:	8f69                	and	a4,a4,a0
    618c:	97b6                	add	a5,a5,a3
    618e:	0107d693          	srli	a3,a5,0x10
    6192:	07c2                	slli	a5,a5,0x10
    6194:	97ba                	add	a5,a5,a4
    6196:	fef5ae23          	sw	a5,-4(a1)
    619a:	fc984be3          	blt	a6,s1,6170 <__multadd+0x1a>
    619e:	c2a1                	beqz	a3,61de <__multadd+0x88>
    61a0:	441c                	lw	a5,8(s0)
    61a2:	02f4c763          	blt	s1,a5,61d0 <__multadd+0x7a>
    61a6:	404c                	lw	a1,4(s0)
    61a8:	854e                	mv	a0,s3
    61aa:	c636                	sw	a3,12(sp)
    61ac:	0585                	addi	a1,a1,1
    61ae:	ed9ff0ef          	jal	ra,6086 <_Balloc>
    61b2:	4810                	lw	a2,16(s0)
    61b4:	00c40593          	addi	a1,s0,12
    61b8:	892a                	mv	s2,a0
    61ba:	0609                	addi	a2,a2,2
    61bc:	060a                	slli	a2,a2,0x2
    61be:	0531                	addi	a0,a0,12
    61c0:	e4bfd0ef          	jal	ra,400a <memcpy>
    61c4:	85a2                	mv	a1,s0
    61c6:	854e                	mv	a0,s3
    61c8:	f4bff0ef          	jal	ra,6112 <_Bfree>
    61cc:	46b2                	lw	a3,12(sp)
    61ce:	844a                	mv	s0,s2
    61d0:	00448793          	addi	a5,s1,4
    61d4:	078a                	slli	a5,a5,0x2
    61d6:	97a2                	add	a5,a5,s0
    61d8:	c3d4                	sw	a3,4(a5)
    61da:	0485                	addi	s1,s1,1
    61dc:	c804                	sw	s1,16(s0)
    61de:	8522                	mv	a0,s0
    61e0:	50b2                	lw	ra,44(sp)
    61e2:	5422                	lw	s0,40(sp)
    61e4:	5492                	lw	s1,36(sp)
    61e6:	5902                	lw	s2,32(sp)
    61e8:	49f2                	lw	s3,28(sp)
    61ea:	6145                	addi	sp,sp,48
    61ec:	8082                	ret

000061ee <__s2b>:
    61ee:	7179                	addi	sp,sp,-48
    61f0:	00868793          	addi	a5,a3,8
    61f4:	cc52                	sw	s4,24(sp)
    61f6:	8a36                	mv	s4,a3
    61f8:	46a5                	li	a3,9
    61fa:	d422                	sw	s0,40(sp)
    61fc:	d226                	sw	s1,36(sp)
    61fe:	ce4e                	sw	s3,28(sp)
    6200:	842e                	mv	s0,a1
    6202:	02d7c7b3          	div	a5,a5,a3
    6206:	d606                	sw	ra,44(sp)
    6208:	d04a                	sw	s2,32(sp)
    620a:	ca56                	sw	s5,20(sp)
    620c:	89aa                	mv	s3,a0
    620e:	84b2                	mv	s1,a2
    6210:	4685                	li	a3,1
    6212:	4581                	li	a1,0
    6214:	04f6cc63          	blt	a3,a5,626c <__s2b+0x7e>
    6218:	854e                	mv	a0,s3
    621a:	c63a                	sw	a4,12(sp)
    621c:	e6bff0ef          	jal	ra,6086 <_Balloc>
    6220:	4732                	lw	a4,12(sp)
    6222:	4785                	li	a5,1
    6224:	c91c                	sw	a5,16(a0)
    6226:	c958                	sw	a4,20(a0)
    6228:	47a5                	li	a5,9
    622a:	0497d463          	bge	a5,s1,6272 <__s2b+0x84>
    622e:	00940a93          	addi	s5,s0,9
    6232:	8956                	mv	s2,s5
    6234:	9426                	add	s0,s0,s1
    6236:	0905                	addi	s2,s2,1
    6238:	fff94683          	lbu	a3,-1(s2)
    623c:	85aa                	mv	a1,a0
    623e:	4629                	li	a2,10
    6240:	fd068693          	addi	a3,a3,-48
    6244:	854e                	mv	a0,s3
    6246:	f11ff0ef          	jal	ra,6156 <__multadd>
    624a:	fe8916e3          	bne	s2,s0,6236 <__s2b+0x48>
    624e:	ff848413          	addi	s0,s1,-8
    6252:	9456                	add	s0,s0,s5
    6254:	8926                	mv	s2,s1
    6256:	03494163          	blt	s2,s4,6278 <__s2b+0x8a>
    625a:	50b2                	lw	ra,44(sp)
    625c:	5422                	lw	s0,40(sp)
    625e:	5492                	lw	s1,36(sp)
    6260:	5902                	lw	s2,32(sp)
    6262:	49f2                	lw	s3,28(sp)
    6264:	4a62                	lw	s4,24(sp)
    6266:	4ad2                	lw	s5,20(sp)
    6268:	6145                	addi	sp,sp,48
    626a:	8082                	ret
    626c:	0686                	slli	a3,a3,0x1
    626e:	0585                	addi	a1,a1,1
    6270:	b755                	j	6214 <__s2b+0x26>
    6272:	0429                	addi	s0,s0,10
    6274:	44a5                	li	s1,9
    6276:	bff9                	j	6254 <__s2b+0x66>
    6278:	409907b3          	sub	a5,s2,s1
    627c:	97a2                	add	a5,a5,s0
    627e:	0007c683          	lbu	a3,0(a5)
    6282:	85aa                	mv	a1,a0
    6284:	4629                	li	a2,10
    6286:	fd068693          	addi	a3,a3,-48
    628a:	854e                	mv	a0,s3
    628c:	ecbff0ef          	jal	ra,6156 <__multadd>
    6290:	0905                	addi	s2,s2,1
    6292:	b7d1                	j	6256 <__s2b+0x68>

00006294 <__hi0bits>:
    6294:	7741                	lui	a4,0xffff0
    6296:	8f69                	and	a4,a4,a0
    6298:	87aa                	mv	a5,a0
    629a:	4501                	li	a0,0
    629c:	e319                	bnez	a4,62a2 <__hi0bits+0xe>
    629e:	07c2                	slli	a5,a5,0x10
    62a0:	4541                	li	a0,16
    62a2:	ff000737          	lui	a4,0xff000
    62a6:	8f7d                	and	a4,a4,a5
    62a8:	e319                	bnez	a4,62ae <__hi0bits+0x1a>
    62aa:	0521                	addi	a0,a0,8
    62ac:	07a2                	slli	a5,a5,0x8
    62ae:	f0000737          	lui	a4,0xf0000
    62b2:	8f7d                	and	a4,a4,a5
    62b4:	e319                	bnez	a4,62ba <__hi0bits+0x26>
    62b6:	0511                	addi	a0,a0,4
    62b8:	0792                	slli	a5,a5,0x4
    62ba:	c0000737          	lui	a4,0xc0000
    62be:	8f7d                	and	a4,a4,a5
    62c0:	e319                	bnez	a4,62c6 <__hi0bits+0x32>
    62c2:	0509                	addi	a0,a0,2
    62c4:	078a                	slli	a5,a5,0x2
    62c6:	0007c963          	bltz	a5,62d8 <__hi0bits+0x44>
    62ca:	00179713          	slli	a4,a5,0x1
    62ce:	0505                	addi	a0,a0,1
    62d0:	00074463          	bltz	a4,62d8 <__hi0bits+0x44>
    62d4:	02000513          	li	a0,32
    62d8:	8082                	ret

000062da <__lo0bits>:
    62da:	411c                	lw	a5,0(a0)
    62dc:	0077f713          	andi	a4,a5,7
    62e0:	c30d                	beqz	a4,6302 <__lo0bits+0x28>
    62e2:	0017f693          	andi	a3,a5,1
    62e6:	4701                	li	a4,0
    62e8:	e699                	bnez	a3,62f6 <__lo0bits+0x1c>
    62ea:	0027f713          	andi	a4,a5,2
    62ee:	c711                	beqz	a4,62fa <__lo0bits+0x20>
    62f0:	8385                	srli	a5,a5,0x1
    62f2:	c11c                	sw	a5,0(a0)
    62f4:	4705                	li	a4,1
    62f6:	853a                	mv	a0,a4
    62f8:	8082                	ret
    62fa:	8389                	srli	a5,a5,0x2
    62fc:	c11c                	sw	a5,0(a0)
    62fe:	4709                	li	a4,2
    6300:	bfdd                	j	62f6 <__lo0bits+0x1c>
    6302:	01079693          	slli	a3,a5,0x10
    6306:	82c1                	srli	a3,a3,0x10
    6308:	4701                	li	a4,0
    630a:	e299                	bnez	a3,6310 <__lo0bits+0x36>
    630c:	83c1                	srli	a5,a5,0x10
    630e:	4741                	li	a4,16
    6310:	0ff7f693          	andi	a3,a5,255
    6314:	e299                	bnez	a3,631a <__lo0bits+0x40>
    6316:	0721                	addi	a4,a4,8
    6318:	83a1                	srli	a5,a5,0x8
    631a:	00f7f693          	andi	a3,a5,15
    631e:	e299                	bnez	a3,6324 <__lo0bits+0x4a>
    6320:	0711                	addi	a4,a4,4
    6322:	8391                	srli	a5,a5,0x4
    6324:	0037f693          	andi	a3,a5,3
    6328:	e299                	bnez	a3,632e <__lo0bits+0x54>
    632a:	0709                	addi	a4,a4,2
    632c:	8389                	srli	a5,a5,0x2
    632e:	0017f693          	andi	a3,a5,1
    6332:	e681                	bnez	a3,633a <__lo0bits+0x60>
    6334:	8385                	srli	a5,a5,0x1
    6336:	0705                	addi	a4,a4,1
    6338:	c399                	beqz	a5,633e <__lo0bits+0x64>
    633a:	c11c                	sw	a5,0(a0)
    633c:	bf6d                	j	62f6 <__lo0bits+0x1c>
    633e:	02000713          	li	a4,32
    6342:	bf55                	j	62f6 <__lo0bits+0x1c>

00006344 <__i2b>:
    6344:	1141                	addi	sp,sp,-16
    6346:	c422                	sw	s0,8(sp)
    6348:	842e                	mv	s0,a1
    634a:	4585                	li	a1,1
    634c:	c606                	sw	ra,12(sp)
    634e:	d39ff0ef          	jal	ra,6086 <_Balloc>
    6352:	c940                	sw	s0,20(a0)
    6354:	40b2                	lw	ra,12(sp)
    6356:	4422                	lw	s0,8(sp)
    6358:	4705                	li	a4,1
    635a:	c918                	sw	a4,16(a0)
    635c:	0141                	addi	sp,sp,16
    635e:	8082                	ret

00006360 <__multiply>:
    6360:	4998                	lw	a4,16(a1)
    6362:	4a1c                	lw	a5,16(a2)
    6364:	7179                	addi	sp,sp,-48
    6366:	d226                	sw	s1,36(sp)
    6368:	d606                	sw	ra,44(sp)
    636a:	d422                	sw	s0,40(sp)
    636c:	d04a                	sw	s2,32(sp)
    636e:	ce4e                	sw	s3,28(sp)
    6370:	84ae                	mv	s1,a1
    6372:	00f75463          	bge	a4,a5,637a <__multiply+0x1a>
    6376:	84b2                	mv	s1,a2
    6378:	862e                	mv	a2,a1
    637a:	0104a983          	lw	s3,16(s1)
    637e:	01062903          	lw	s2,16(a2)
    6382:	449c                	lw	a5,8(s1)
    6384:	40cc                	lw	a1,4(s1)
    6386:	01298433          	add	s0,s3,s2
    638a:	0087d363          	bge	a5,s0,6390 <__multiply+0x30>
    638e:	0585                	addi	a1,a1,1
    6390:	c632                	sw	a2,12(sp)
    6392:	cf5ff0ef          	jal	ra,6086 <_Balloc>
    6396:	4632                	lw	a2,12(sp)
    6398:	01450813          	addi	a6,a0,20 # 10014 <_data_lma+0x3268>
    639c:	00241313          	slli	t1,s0,0x2
    63a0:	9342                	add	t1,t1,a6
    63a2:	87c2                	mv	a5,a6
    63a4:	0267ed63          	bltu	a5,t1,63de <__multiply+0x7e>
    63a8:	01448593          	addi	a1,s1,20
    63ac:	00299893          	slli	a7,s3,0x2
    63b0:	0651                	addi	a2,a2,20
    63b2:	00291e13          	slli	t3,s2,0x2
    63b6:	66c1                	lui	a3,0x10
    63b8:	98ae                	add	a7,a7,a1
    63ba:	9e32                	add	t3,t3,a2
    63bc:	16fd                	addi	a3,a3,-1
    63be:	03c66463          	bltu	a2,t3,63e6 <__multiply+0x86>
    63c2:	00805663          	blez	s0,63ce <__multiply+0x6e>
    63c6:	1371                	addi	t1,t1,-4
    63c8:	00032783          	lw	a5,0(t1)
    63cc:	cbf1                	beqz	a5,64a0 <__multiply+0x140>
    63ce:	c900                	sw	s0,16(a0)
    63d0:	50b2                	lw	ra,44(sp)
    63d2:	5422                	lw	s0,40(sp)
    63d4:	5492                	lw	s1,36(sp)
    63d6:	5902                	lw	s2,32(sp)
    63d8:	49f2                	lw	s3,28(sp)
    63da:	6145                	addi	sp,sp,48
    63dc:	8082                	ret
    63de:	0007a023          	sw	zero,0(a5)
    63e2:	0791                	addi	a5,a5,4
    63e4:	b7c1                	j	63a4 <__multiply+0x44>
    63e6:	00062f83          	lw	t6,0(a2)
    63ea:	00dfffb3          	and	t6,t6,a3
    63ee:	040f8a63          	beqz	t6,6442 <__multiply+0xe2>
    63f2:	8f42                	mv	t5,a6
    63f4:	82ae                	mv	t0,a1
    63f6:	4481                	li	s1,0
    63f8:	0002a703          	lw	a4,0(t0)
    63fc:	000f2383          	lw	t2,0(t5)
    6400:	0f11                	addi	t5,t5,4
    6402:	00d77eb3          	and	t4,a4,a3
    6406:	03fe8eb3          	mul	t4,t4,t6
    640a:	00d3f7b3          	and	a5,t2,a3
    640e:	0103d393          	srli	t2,t2,0x10
    6412:	0291                	addi	t0,t0,4
    6414:	9ebe                	add	t4,t4,a5
    6416:	01075793          	srli	a5,a4,0x10
    641a:	03f787b3          	mul	a5,a5,t6
    641e:	9ea6                	add	t4,t4,s1
    6420:	010ed713          	srli	a4,t4,0x10
    6424:	00defeb3          	and	t4,t4,a3
    6428:	979e                	add	a5,a5,t2
    642a:	97ba                	add	a5,a5,a4
    642c:	0107d493          	srli	s1,a5,0x10
    6430:	07c2                	slli	a5,a5,0x10
    6432:	01d7e7b3          	or	a5,a5,t4
    6436:	feff2e23          	sw	a5,-4(t5)
    643a:	fb12efe3          	bltu	t0,a7,63f8 <__multiply+0x98>
    643e:	009f2023          	sw	s1,0(t5)
    6442:	00265283          	lhu	t0,2(a2)
    6446:	04028a63          	beqz	t0,649a <__multiply+0x13a>
    644a:	00082783          	lw	a5,0(a6)
    644e:	8ec2                	mv	t4,a6
    6450:	8f2e                	mv	t5,a1
    6452:	4f81                	li	t6,0
    6454:	000f2703          	lw	a4,0(t5)
    6458:	002ed383          	lhu	t2,2(t4)
    645c:	8ff5                	and	a5,a5,a3
    645e:	8f75                	and	a4,a4,a3
    6460:	02570733          	mul	a4,a4,t0
    6464:	0e91                	addi	t4,t4,4
    6466:	0f11                	addi	t5,t5,4
    6468:	971e                	add	a4,a4,t2
    646a:	977e                	add	a4,a4,t6
    646c:	01071f93          	slli	t6,a4,0x10
    6470:	00ffe7b3          	or	a5,t6,a5
    6474:	fefeae23          	sw	a5,-4(t4)
    6478:	ffef5783          	lhu	a5,-2(t5)
    647c:	000eaf83          	lw	t6,0(t4)
    6480:	8341                	srli	a4,a4,0x10
    6482:	025787b3          	mul	a5,a5,t0
    6486:	00dfffb3          	and	t6,t6,a3
    648a:	97fe                	add	a5,a5,t6
    648c:	97ba                	add	a5,a5,a4
    648e:	0107df93          	srli	t6,a5,0x10
    6492:	fd1f61e3          	bltu	t5,a7,6454 <__multiply+0xf4>
    6496:	00fea023          	sw	a5,0(t4)
    649a:	0611                	addi	a2,a2,4
    649c:	0811                	addi	a6,a6,4
    649e:	b705                	j	63be <__multiply+0x5e>
    64a0:	147d                	addi	s0,s0,-1
    64a2:	b705                	j	63c2 <__multiply+0x62>

000064a4 <__pow5mult>:
    64a4:	1101                	addi	sp,sp,-32
    64a6:	ca26                	sw	s1,20(sp)
    64a8:	c84a                	sw	s2,16(sp)
    64aa:	c64e                	sw	s3,12(sp)
    64ac:	ce06                	sw	ra,28(sp)
    64ae:	cc22                	sw	s0,24(sp)
    64b0:	c452                	sw	s4,8(sp)
    64b2:	00367793          	andi	a5,a2,3
    64b6:	892a                	mv	s2,a0
    64b8:	84b2                	mv	s1,a2
    64ba:	89ae                	mv	s3,a1
    64bc:	cf89                	beqz	a5,64d6 <__pow5mult+0x32>
    64be:	17fd                	addi	a5,a5,-1
    64c0:	00006717          	auipc	a4,0x6
    64c4:	72070713          	addi	a4,a4,1824 # cbe0 <p05.3319>
    64c8:	078a                	slli	a5,a5,0x2
    64ca:	97ba                	add	a5,a5,a4
    64cc:	4390                	lw	a2,0(a5)
    64ce:	4681                	li	a3,0
    64d0:	c87ff0ef          	jal	ra,6156 <__multadd>
    64d4:	89aa                	mv	s3,a0
    64d6:	8489                	srai	s1,s1,0x2
    64d8:	cca5                	beqz	s1,6550 <__pow5mult+0xac>
    64da:	02492783          	lw	a5,36(s2)
    64de:	ef91                	bnez	a5,64fa <__pow5mult+0x56>
    64e0:	4541                	li	a0,16
    64e2:	adbfd0ef          	jal	ra,3fbc <malloc>
    64e6:	02a92223          	sw	a0,36(s2)
    64ea:	00052223          	sw	zero,4(a0)
    64ee:	00052423          	sw	zero,8(a0)
    64f2:	00052023          	sw	zero,0(a0)
    64f6:	00052623          	sw	zero,12(a0)
    64fa:	02492a03          	lw	s4,36(s2)
    64fe:	008a2403          	lw	s0,8(s4)
    6502:	e819                	bnez	s0,6518 <__pow5mult+0x74>
    6504:	27100593          	li	a1,625
    6508:	854a                	mv	a0,s2
    650a:	e3bff0ef          	jal	ra,6344 <__i2b>
    650e:	00aa2423          	sw	a0,8(s4)
    6512:	842a                	mv	s0,a0
    6514:	00052023          	sw	zero,0(a0)
    6518:	0014f793          	andi	a5,s1,1
    651c:	cf81                	beqz	a5,6534 <__pow5mult+0x90>
    651e:	85ce                	mv	a1,s3
    6520:	8622                	mv	a2,s0
    6522:	854a                	mv	a0,s2
    6524:	e3dff0ef          	jal	ra,6360 <__multiply>
    6528:	8a2a                	mv	s4,a0
    652a:	85ce                	mv	a1,s3
    652c:	854a                	mv	a0,s2
    652e:	be5ff0ef          	jal	ra,6112 <_Bfree>
    6532:	89d2                	mv	s3,s4
    6534:	8485                	srai	s1,s1,0x1
    6536:	cc89                	beqz	s1,6550 <__pow5mult+0xac>
    6538:	4008                	lw	a0,0(s0)
    653a:	e909                	bnez	a0,654c <__pow5mult+0xa8>
    653c:	8622                	mv	a2,s0
    653e:	85a2                	mv	a1,s0
    6540:	854a                	mv	a0,s2
    6542:	e1fff0ef          	jal	ra,6360 <__multiply>
    6546:	c008                	sw	a0,0(s0)
    6548:	00052023          	sw	zero,0(a0)
    654c:	842a                	mv	s0,a0
    654e:	b7e9                	j	6518 <__pow5mult+0x74>
    6550:	40f2                	lw	ra,28(sp)
    6552:	4462                	lw	s0,24(sp)
    6554:	854e                	mv	a0,s3
    6556:	44d2                	lw	s1,20(sp)
    6558:	4942                	lw	s2,16(sp)
    655a:	49b2                	lw	s3,12(sp)
    655c:	4a22                	lw	s4,8(sp)
    655e:	6105                	addi	sp,sp,32
    6560:	8082                	ret

00006562 <__lshift>:
    6562:	7179                	addi	sp,sp,-48
    6564:	d226                	sw	s1,36(sp)
    6566:	84ae                	mv	s1,a1
    6568:	ce4e                	sw	s3,28(sp)
    656a:	0104a983          	lw	s3,16(s1)
    656e:	d422                	sw	s0,40(sp)
    6570:	41cc                	lw	a1,4(a1)
    6572:	40565413          	srai	s0,a2,0x5
    6576:	449c                	lw	a5,8(s1)
    6578:	99a2                	add	s3,s3,s0
    657a:	d04a                	sw	s2,32(sp)
    657c:	ca56                	sw	s5,20(sp)
    657e:	d606                	sw	ra,44(sp)
    6580:	cc52                	sw	s4,24(sp)
    6582:	8aaa                	mv	s5,a0
    6584:	00198913          	addi	s2,s3,1
    6588:	0927c463          	blt	a5,s2,6610 <__lshift+0xae>
    658c:	8556                	mv	a0,s5
    658e:	c632                	sw	a2,12(sp)
    6590:	af7ff0ef          	jal	ra,6086 <_Balloc>
    6594:	4632                	lw	a2,12(sp)
    6596:	01450793          	addi	a5,a0,20
    659a:	8a2a                	mv	s4,a0
    659c:	86be                	mv	a3,a5
    659e:	4701                	li	a4,0
    65a0:	0691                	addi	a3,a3,4
    65a2:	06874a63          	blt	a4,s0,6616 <__lshift+0xb4>
    65a6:	00045363          	bgez	s0,65ac <__lshift+0x4a>
    65aa:	4401                	li	s0,0
    65ac:	4894                	lw	a3,16(s1)
    65ae:	040a                	slli	s0,s0,0x2
    65b0:	00878733          	add	a4,a5,s0
    65b4:	068a                	slli	a3,a3,0x2
    65b6:	01448793          	addi	a5,s1,20
    65ba:	8a7d                	andi	a2,a2,31
    65bc:	96be                	add	a3,a3,a5
    65be:	c225                	beqz	a2,661e <__lshift+0xbc>
    65c0:	02000813          	li	a6,32
    65c4:	40c80833          	sub	a6,a6,a2
    65c8:	4581                	li	a1,0
    65ca:	4388                	lw	a0,0(a5)
    65cc:	0711                	addi	a4,a4,4
    65ce:	0791                	addi	a5,a5,4
    65d0:	00c51533          	sll	a0,a0,a2
    65d4:	8dc9                	or	a1,a1,a0
    65d6:	feb72e23          	sw	a1,-4(a4)
    65da:	ffc7a583          	lw	a1,-4(a5)
    65de:	0105d5b3          	srl	a1,a1,a6
    65e2:	fed7e4e3          	bltu	a5,a3,65ca <__lshift+0x68>
    65e6:	c30c                	sw	a1,0(a4)
    65e8:	c199                	beqz	a1,65ee <__lshift+0x8c>
    65ea:	00298913          	addi	s2,s3,2
    65ee:	197d                	addi	s2,s2,-1
    65f0:	012a2823          	sw	s2,16(s4)
    65f4:	8556                	mv	a0,s5
    65f6:	85a6                	mv	a1,s1
    65f8:	b1bff0ef          	jal	ra,6112 <_Bfree>
    65fc:	50b2                	lw	ra,44(sp)
    65fe:	5422                	lw	s0,40(sp)
    6600:	8552                	mv	a0,s4
    6602:	5492                	lw	s1,36(sp)
    6604:	5902                	lw	s2,32(sp)
    6606:	49f2                	lw	s3,28(sp)
    6608:	4a62                	lw	s4,24(sp)
    660a:	4ad2                	lw	s5,20(sp)
    660c:	6145                	addi	sp,sp,48
    660e:	8082                	ret
    6610:	0585                	addi	a1,a1,1
    6612:	0786                	slli	a5,a5,0x1
    6614:	bf95                	j	6588 <__lshift+0x26>
    6616:	fe06ae23          	sw	zero,-4(a3) # fffc <_data_lma+0x3250>
    661a:	0705                	addi	a4,a4,1
    661c:	b751                	j	65a0 <__lshift+0x3e>
    661e:	0791                	addi	a5,a5,4
    6620:	ffc7a603          	lw	a2,-4(a5)
    6624:	0711                	addi	a4,a4,4
    6626:	fec72e23          	sw	a2,-4(a4)
    662a:	fed7eae3          	bltu	a5,a3,661e <__lshift+0xbc>
    662e:	b7c1                	j	65ee <__lshift+0x8c>

00006630 <__mcmp>:
    6630:	491c                	lw	a5,16(a0)
    6632:	4998                	lw	a4,16(a1)
    6634:	8f99                	sub	a5,a5,a4
    6636:	e38d                	bnez	a5,6658 <__mcmp+0x28>
    6638:	070a                	slli	a4,a4,0x2
    663a:	0551                	addi	a0,a0,20
    663c:	05d1                	addi	a1,a1,20
    663e:	00e506b3          	add	a3,a0,a4
    6642:	95ba                	add	a1,a1,a4
    6644:	16f1                	addi	a3,a3,-4
    6646:	15f1                	addi	a1,a1,-4
    6648:	4290                	lw	a2,0(a3)
    664a:	4198                	lw	a4,0(a1)
    664c:	00e60863          	beq	a2,a4,665c <__mcmp+0x2c>
    6650:	57fd                	li	a5,-1
    6652:	00e66363          	bltu	a2,a4,6658 <__mcmp+0x28>
    6656:	4785                	li	a5,1
    6658:	853e                	mv	a0,a5
    665a:	8082                	ret
    665c:	fed564e3          	bltu	a0,a3,6644 <__mcmp+0x14>
    6660:	bfe5                	j	6658 <__mcmp+0x28>

00006662 <__mdiff>:
    6662:	1101                	addi	sp,sp,-32
    6664:	ca26                	sw	s1,20(sp)
    6666:	84ae                	mv	s1,a1
    6668:	c64e                	sw	s3,12(sp)
    666a:	85b2                	mv	a1,a2
    666c:	89aa                	mv	s3,a0
    666e:	8526                	mv	a0,s1
    6670:	cc22                	sw	s0,24(sp)
    6672:	ce06                	sw	ra,28(sp)
    6674:	c84a                	sw	s2,16(sp)
    6676:	8432                	mv	s0,a2
    6678:	fb9ff0ef          	jal	ra,6630 <__mcmp>
    667c:	e105                	bnez	a0,669c <__mdiff+0x3a>
    667e:	4581                	li	a1,0
    6680:	854e                	mv	a0,s3
    6682:	a05ff0ef          	jal	ra,6086 <_Balloc>
    6686:	4785                	li	a5,1
    6688:	c91c                	sw	a5,16(a0)
    668a:	00052a23          	sw	zero,20(a0)
    668e:	40f2                	lw	ra,28(sp)
    6690:	4462                	lw	s0,24(sp)
    6692:	44d2                	lw	s1,20(sp)
    6694:	4942                	lw	s2,16(sp)
    6696:	49b2                	lw	s3,12(sp)
    6698:	6105                	addi	sp,sp,32
    669a:	8082                	ret
    669c:	4905                	li	s2,1
    669e:	00054663          	bltz	a0,66aa <__mdiff+0x48>
    66a2:	87a2                	mv	a5,s0
    66a4:	4901                	li	s2,0
    66a6:	8426                	mv	s0,s1
    66a8:	84be                	mv	s1,a5
    66aa:	404c                	lw	a1,4(s0)
    66ac:	854e                	mv	a0,s3
    66ae:	9d9ff0ef          	jal	ra,6086 <_Balloc>
    66b2:	01042303          	lw	t1,16(s0)
    66b6:	0104a883          	lw	a7,16(s1)
    66ba:	01440613          	addi	a2,s0,20
    66be:	00231e13          	slli	t3,t1,0x2
    66c2:	01448813          	addi	a6,s1,20
    66c6:	088a                	slli	a7,a7,0x2
    66c8:	6ec1                	lui	t4,0x10
    66ca:	01252623          	sw	s2,12(a0)
    66ce:	9e32                	add	t3,t3,a2
    66d0:	98c2                	add	a7,a7,a6
    66d2:	01450693          	addi	a3,a0,20
    66d6:	4f01                	li	t5,0
    66d8:	1efd                	addi	t4,t4,-1
    66da:	4218                	lw	a4,0(a2)
    66dc:	00082f83          	lw	t6,0(a6)
    66e0:	0691                	addi	a3,a3,4
    66e2:	01d775b3          	and	a1,a4,t4
    66e6:	01dff7b3          	and	a5,t6,t4
    66ea:	95fa                	add	a1,a1,t5
    66ec:	8d9d                	sub	a1,a1,a5
    66ee:	010fdf93          	srli	t6,t6,0x10
    66f2:	01075793          	srli	a5,a4,0x10
    66f6:	41f787b3          	sub	a5,a5,t6
    66fa:	4105d713          	srai	a4,a1,0x10
    66fe:	97ba                	add	a5,a5,a4
    6700:	4107df13          	srai	t5,a5,0x10
    6704:	01d5f5b3          	and	a1,a1,t4
    6708:	07c2                	slli	a5,a5,0x10
    670a:	8fcd                	or	a5,a5,a1
    670c:	0811                	addi	a6,a6,4
    670e:	fef6ae23          	sw	a5,-4(a3)
    6712:	0611                	addi	a2,a2,4
    6714:	fd1863e3          	bltu	a6,a7,66da <__mdiff+0x78>
    6718:	65c1                	lui	a1,0x10
    671a:	15fd                	addi	a1,a1,-1
    671c:	01c66863          	bltu	a2,t3,672c <__mdiff+0xca>
    6720:	16f1                	addi	a3,a3,-4
    6722:	429c                	lw	a5,0(a3)
    6724:	c795                	beqz	a5,6750 <__mdiff+0xee>
    6726:	00652823          	sw	t1,16(a0)
    672a:	b795                	j	668e <__mdiff+0x2c>
    672c:	421c                	lw	a5,0(a2)
    672e:	0691                	addi	a3,a3,4
    6730:	0611                	addi	a2,a2,4
    6732:	00b7f733          	and	a4,a5,a1
    6736:	977a                	add	a4,a4,t5
    6738:	41075813          	srai	a6,a4,0x10
    673c:	83c1                	srli	a5,a5,0x10
    673e:	97c2                	add	a5,a5,a6
    6740:	4107df13          	srai	t5,a5,0x10
    6744:	8f6d                	and	a4,a4,a1
    6746:	07c2                	slli	a5,a5,0x10
    6748:	8fd9                	or	a5,a5,a4
    674a:	fef6ae23          	sw	a5,-4(a3)
    674e:	b7f9                	j	671c <__mdiff+0xba>
    6750:	137d                	addi	t1,t1,-1
    6752:	b7f9                	j	6720 <__mdiff+0xbe>

00006754 <__ulp>:
    6754:	7ff007b7          	lui	a5,0x7ff00
    6758:	8dfd                	and	a1,a1,a5
    675a:	fcc007b7          	lui	a5,0xfcc00
    675e:	95be                	add	a1,a1,a5
    6760:	00b05563          	blez	a1,676a <__ulp+0x16>
    6764:	4781                	li	a5,0
    6766:	853e                	mv	a0,a5
    6768:	8082                	ret
    676a:	40b005b3          	neg	a1,a1
    676e:	4145d793          	srai	a5,a1,0x14
    6772:	474d                	li	a4,19
    6774:	00f74763          	blt	a4,a5,6782 <__ulp+0x2e>
    6778:	000805b7          	lui	a1,0x80
    677c:	40f5d5b3          	sra	a1,a1,a5
    6780:	b7d5                	j	6764 <__ulp+0x10>
    6782:	fec78713          	addi	a4,a5,-20 # fcbfffec <_eusrstack+0xdcbf7fec>
    6786:	46f9                	li	a3,30
    6788:	4581                	li	a1,0
    678a:	4785                	li	a5,1
    678c:	fce6cde3          	blt	a3,a4,6766 <__ulp+0x12>
    6790:	800007b7          	lui	a5,0x80000
    6794:	00e7d7b3          	srl	a5,a5,a4
    6798:	b7f9                	j	6766 <__ulp+0x12>

0000679a <__b2d>:
    679a:	7179                	addi	sp,sp,-48
    679c:	d226                	sw	s1,36(sp)
    679e:	4904                	lw	s1,16(a0)
    67a0:	ce4e                	sw	s3,28(sp)
    67a2:	01450993          	addi	s3,a0,20
    67a6:	048a                	slli	s1,s1,0x2
    67a8:	94ce                	add	s1,s1,s3
    67aa:	d422                	sw	s0,40(sp)
    67ac:	ffc4a403          	lw	s0,-4(s1)
    67b0:	d04a                	sw	s2,32(sp)
    67b2:	c62e                	sw	a1,12(sp)
    67b4:	8522                	mv	a0,s0
    67b6:	d606                	sw	ra,44(sp)
    67b8:	addff0ef          	jal	ra,6294 <__hi0bits>
    67bc:	45b2                	lw	a1,12(sp)
    67be:	02000793          	li	a5,32
    67c2:	8f89                	sub	a5,a5,a0
    67c4:	c19c                	sw	a5,0(a1)
    67c6:	47a9                	li	a5,10
    67c8:	ffc48913          	addi	s2,s1,-4
    67cc:	02a7cd63          	blt	a5,a0,6806 <__b2d+0x6c>
    67d0:	47ad                	li	a5,11
    67d2:	8f89                	sub	a5,a5,a0
    67d4:	3ff00737          	lui	a4,0x3ff00
    67d8:	00f456b3          	srl	a3,s0,a5
    67dc:	8ed9                	or	a3,a3,a4
    67de:	4701                	li	a4,0
    67e0:	0129f463          	bgeu	s3,s2,67e8 <__b2d+0x4e>
    67e4:	ff84a703          	lw	a4,-8(s1)
    67e8:	0555                	addi	a0,a0,21
    67ea:	00a41533          	sll	a0,s0,a0
    67ee:	00f757b3          	srl	a5,a4,a5
    67f2:	8fc9                	or	a5,a5,a0
    67f4:	50b2                	lw	ra,44(sp)
    67f6:	5422                	lw	s0,40(sp)
    67f8:	5492                	lw	s1,36(sp)
    67fa:	5902                	lw	s2,32(sp)
    67fc:	49f2                	lw	s3,28(sp)
    67fe:	853e                	mv	a0,a5
    6800:	85b6                	mv	a1,a3
    6802:	6145                	addi	sp,sp,48
    6804:	8082                	ret
    6806:	4781                	li	a5,0
    6808:	0129f663          	bgeu	s3,s2,6814 <__b2d+0x7a>
    680c:	ff84a783          	lw	a5,-8(s1)
    6810:	ff848913          	addi	s2,s1,-8
    6814:	1555                	addi	a0,a0,-11
    6816:	c905                	beqz	a0,6846 <__b2d+0xac>
    6818:	02000713          	li	a4,32
    681c:	40a70633          	sub	a2,a4,a0
    6820:	00c7d733          	srl	a4,a5,a2
    6824:	00a41433          	sll	s0,s0,a0
    6828:	8c59                	or	s0,s0,a4
    682a:	3ff006b7          	lui	a3,0x3ff00
    682e:	8ec1                	or	a3,a3,s0
    6830:	4701                	li	a4,0
    6832:	0129f463          	bgeu	s3,s2,683a <__b2d+0xa0>
    6836:	ffc92703          	lw	a4,-4(s2)
    683a:	00a797b3          	sll	a5,a5,a0
    683e:	00c75733          	srl	a4,a4,a2
    6842:	8fd9                	or	a5,a5,a4
    6844:	bf45                	j	67f4 <__b2d+0x5a>
    6846:	3ff006b7          	lui	a3,0x3ff00
    684a:	8ec1                	or	a3,a3,s0
    684c:	b765                	j	67f4 <__b2d+0x5a>

0000684e <__d2b>:
    684e:	7179                	addi	sp,sp,-48
    6850:	d422                	sw	s0,40(sp)
    6852:	842e                	mv	s0,a1
    6854:	4585                	li	a1,1
    6856:	d226                	sw	s1,36(sp)
    6858:	d04a                	sw	s2,32(sp)
    685a:	84b2                	mv	s1,a2
    685c:	ce4e                	sw	s3,28(sp)
    685e:	cc52                	sw	s4,24(sp)
    6860:	893a                	mv	s2,a4
    6862:	d606                	sw	ra,44(sp)
    6864:	8a36                	mv	s4,a3
    6866:	821ff0ef          	jal	ra,6086 <_Balloc>
    686a:	00100737          	lui	a4,0x100
    686e:	fff70793          	addi	a5,a4,-1 # fffff <_data_lma+0xf3253>
    6872:	8fe5                	and	a5,a5,s1
    6874:	80d1                	srli	s1,s1,0x14
    6876:	7ff4f493          	andi	s1,s1,2047
    687a:	89aa                	mv	s3,a0
    687c:	e0b5                	bnez	s1,68e0 <__d2b+0x92>
    687e:	c63e                	sw	a5,12(sp)
    6880:	c42d                	beqz	s0,68ea <__d2b+0x9c>
    6882:	0028                	addi	a0,sp,8
    6884:	c422                	sw	s0,8(sp)
    6886:	a55ff0ef          	jal	ra,62da <__lo0bits>
    688a:	46a2                	lw	a3,8(sp)
    688c:	cd21                	beqz	a0,68e4 <__d2b+0x96>
    688e:	4732                	lw	a4,12(sp)
    6890:	02000793          	li	a5,32
    6894:	8f89                	sub	a5,a5,a0
    6896:	00f717b3          	sll	a5,a4,a5
    689a:	8fd5                	or	a5,a5,a3
    689c:	00a75733          	srl	a4,a4,a0
    68a0:	00f9aa23          	sw	a5,20(s3)
    68a4:	c63a                	sw	a4,12(sp)
    68a6:	4432                	lw	s0,12(sp)
    68a8:	0089ac23          	sw	s0,24(s3)
    68ac:	00803433          	snez	s0,s0
    68b0:	0405                	addi	s0,s0,1
    68b2:	0089a823          	sw	s0,16(s3)
    68b6:	c4b9                	beqz	s1,6904 <__d2b+0xb6>
    68b8:	bcd48493          	addi	s1,s1,-1075
    68bc:	94aa                	add	s1,s1,a0
    68be:	03500793          	li	a5,53
    68c2:	009a2023          	sw	s1,0(s4)
    68c6:	40a78533          	sub	a0,a5,a0
    68ca:	00a92023          	sw	a0,0(s2)
    68ce:	50b2                	lw	ra,44(sp)
    68d0:	5422                	lw	s0,40(sp)
    68d2:	854e                	mv	a0,s3
    68d4:	5492                	lw	s1,36(sp)
    68d6:	5902                	lw	s2,32(sp)
    68d8:	49f2                	lw	s3,28(sp)
    68da:	4a62                	lw	s4,24(sp)
    68dc:	6145                	addi	sp,sp,48
    68de:	8082                	ret
    68e0:	8fd9                	or	a5,a5,a4
    68e2:	bf71                	j	687e <__d2b+0x30>
    68e4:	00d9aa23          	sw	a3,20(s3)
    68e8:	bf7d                	j	68a6 <__d2b+0x58>
    68ea:	0068                	addi	a0,sp,12
    68ec:	9efff0ef          	jal	ra,62da <__lo0bits>
    68f0:	47b2                	lw	a5,12(sp)
    68f2:	02050513          	addi	a0,a0,32
    68f6:	4405                	li	s0,1
    68f8:	00f9aa23          	sw	a5,20(s3)
    68fc:	4785                	li	a5,1
    68fe:	00f9a823          	sw	a5,16(s3)
    6902:	bf55                	j	68b6 <__d2b+0x68>
    6904:	00241793          	slli	a5,s0,0x2
    6908:	bce50513          	addi	a0,a0,-1074
    690c:	97ce                	add	a5,a5,s3
    690e:	00aa2023          	sw	a0,0(s4)
    6912:	4b88                	lw	a0,16(a5)
    6914:	0416                	slli	s0,s0,0x5
    6916:	97fff0ef          	jal	ra,6294 <__hi0bits>
    691a:	8c09                	sub	s0,s0,a0
    691c:	00892023          	sw	s0,0(s2)
    6920:	b77d                	j	68ce <__d2b+0x80>

00006922 <__ratio>:
    6922:	7179                	addi	sp,sp,-48
    6924:	d04a                	sw	s2,32(sp)
    6926:	892e                	mv	s2,a1
    6928:	002c                	addi	a1,sp,8
    692a:	d606                	sw	ra,44(sp)
    692c:	d422                	sw	s0,40(sp)
    692e:	d226                	sw	s1,36(sp)
    6930:	ce4e                	sw	s3,28(sp)
    6932:	cc52                	sw	s4,24(sp)
    6934:	8a2a                	mv	s4,a0
    6936:	e65ff0ef          	jal	ra,679a <__b2d>
    693a:	89aa                	mv	s3,a0
    693c:	84ae                	mv	s1,a1
    693e:	842e                	mv	s0,a1
    6940:	854a                	mv	a0,s2
    6942:	006c                	addi	a1,sp,12
    6944:	e57ff0ef          	jal	ra,679a <__b2d>
    6948:	01092783          	lw	a5,16(s2)
    694c:	010a2703          	lw	a4,16(s4)
    6950:	46a2                	lw	a3,8(sp)
    6952:	8f1d                	sub	a4,a4,a5
    6954:	47b2                	lw	a5,12(sp)
    6956:	0716                	slli	a4,a4,0x5
    6958:	8e9d                	sub	a3,a3,a5
    695a:	00d707b3          	add	a5,a4,a3
    695e:	02f05563          	blez	a5,6988 <__ratio+0x66>
    6962:	07d2                	slli	a5,a5,0x14
    6964:	862e                	mv	a2,a1
    6966:	00978433          	add	s0,a5,s1
    696a:	8732                	mv	a4,a2
    696c:	85a2                	mv	a1,s0
    696e:	862a                	mv	a2,a0
    6970:	86ba                	mv	a3,a4
    6972:	854e                	mv	a0,s3
    6974:	4f0010ef          	jal	ra,7e64 <__divdf3>
    6978:	50b2                	lw	ra,44(sp)
    697a:	5422                	lw	s0,40(sp)
    697c:	5492                	lw	s1,36(sp)
    697e:	5902                	lw	s2,32(sp)
    6980:	49f2                	lw	s3,28(sp)
    6982:	4a62                	lw	s4,24(sp)
    6984:	6145                	addi	sp,sp,48
    6986:	8082                	ret
    6988:	fff00737          	lui	a4,0xfff00
    698c:	02e787b3          	mul	a5,a5,a4
    6990:	00b78633          	add	a2,a5,a1
    6994:	bfd9                	j	696a <__ratio+0x48>

00006996 <__copybits>:
    6996:	fff58793          	addi	a5,a1,-1 # 7ffff <_data_lma+0x73253>
    699a:	4a18                	lw	a4,16(a2)
    699c:	8795                	srai	a5,a5,0x5
    699e:	0785                	addi	a5,a5,1
    69a0:	078a                	slli	a5,a5,0x2
    69a2:	01460693          	addi	a3,a2,20
    69a6:	070a                	slli	a4,a4,0x2
    69a8:	97aa                	add	a5,a5,a0
    69aa:	9736                	add	a4,a4,a3
    69ac:	00e6e563          	bltu	a3,a4,69b6 <__copybits+0x20>
    69b0:	00f56a63          	bltu	a0,a5,69c4 <__copybits+0x2e>
    69b4:	8082                	ret
    69b6:	0691                	addi	a3,a3,4
    69b8:	ffc6a603          	lw	a2,-4(a3) # 3feffffc <_eusrstack+0x1fef7ffc>
    69bc:	0511                	addi	a0,a0,4
    69be:	fec52e23          	sw	a2,-4(a0)
    69c2:	b7ed                	j	69ac <__copybits+0x16>
    69c4:	0511                	addi	a0,a0,4
    69c6:	fe052e23          	sw	zero,-4(a0)
    69ca:	b7dd                	j	69b0 <__copybits+0x1a>

000069cc <__any_on>:
    69cc:	4914                	lw	a3,16(a0)
    69ce:	4055d793          	srai	a5,a1,0x5
    69d2:	01450713          	addi	a4,a0,20
    69d6:	02f6c763          	blt	a3,a5,6a04 <__any_on+0x38>
    69da:	00d7df63          	bge	a5,a3,69f8 <__any_on+0x2c>
    69de:	89fd                	andi	a1,a1,31
    69e0:	cd81                	beqz	a1,69f8 <__any_on+0x2c>
    69e2:	00279693          	slli	a3,a5,0x2
    69e6:	96ba                	add	a3,a3,a4
    69e8:	4290                	lw	a2,0(a3)
    69ea:	4505                	li	a0,1
    69ec:	00b656b3          	srl	a3,a2,a1
    69f0:	00b695b3          	sll	a1,a3,a1
    69f4:	00b61e63          	bne	a2,a1,6a10 <__any_on+0x44>
    69f8:	078a                	slli	a5,a5,0x2
    69fa:	97ba                	add	a5,a5,a4
    69fc:	00f76663          	bltu	a4,a5,6a08 <__any_on+0x3c>
    6a00:	4501                	li	a0,0
    6a02:	8082                	ret
    6a04:	87b6                	mv	a5,a3
    6a06:	bfcd                	j	69f8 <__any_on+0x2c>
    6a08:	17f1                	addi	a5,a5,-4
    6a0a:	4394                	lw	a3,0(a5)
    6a0c:	dae5                	beqz	a3,69fc <__any_on+0x30>
    6a0e:	4505                	li	a0,1
    6a10:	8082                	ret

00006a12 <_calloc_r>:
    6a12:	02c58633          	mul	a2,a1,a2
    6a16:	1101                	addi	sp,sp,-32
    6a18:	cc22                	sw	s0,24(sp)
    6a1a:	ce06                	sw	ra,28(sp)
    6a1c:	85b2                	mv	a1,a2
    6a1e:	c632                	sw	a2,12(sp)
    6a20:	f48fd0ef          	jal	ra,4168 <_malloc_r>
    6a24:	842a                	mv	s0,a0
    6a26:	c509                	beqz	a0,6a30 <_calloc_r+0x1e>
    6a28:	4632                	lw	a2,12(sp)
    6a2a:	4581                	li	a1,0
    6a2c:	fd4f90ef          	jal	ra,200 <memset>
    6a30:	8522                	mv	a0,s0
    6a32:	40f2                	lw	ra,28(sp)
    6a34:	4462                	lw	s0,24(sp)
    6a36:	6105                	addi	sp,sp,32
    6a38:	8082                	ret

00006a3a <__ssputs_r>:
    6a3a:	1101                	addi	sp,sp,-32
    6a3c:	c84a                	sw	s2,16(sp)
    6a3e:	0085a903          	lw	s2,8(a1)
    6a42:	cc22                	sw	s0,24(sp)
    6a44:	c452                	sw	s4,8(sp)
    6a46:	c05a                	sw	s6,0(sp)
    6a48:	ce06                	sw	ra,28(sp)
    6a4a:	ca26                	sw	s1,20(sp)
    6a4c:	c64e                	sw	s3,12(sp)
    6a4e:	c256                	sw	s5,4(sp)
    6a50:	842e                	mv	s0,a1
    6a52:	8b32                	mv	s6,a2
    6a54:	8a36                	mv	s4,a3
    6a56:	0926ee63          	bltu	a3,s2,6af2 <__ssputs_r+0xb8>
    6a5a:	00c5d783          	lhu	a5,12(a1)
    6a5e:	4807f713          	andi	a4,a5,1152
    6a62:	c751                	beqz	a4,6aee <__ssputs_r+0xb4>
    6a64:	4004                	lw	s1,0(s0)
    6a66:	498c                	lw	a1,16(a1)
    6a68:	4858                	lw	a4,20(s0)
    6a6a:	8aaa                	mv	s5,a0
    6a6c:	40b489b3          	sub	s3,s1,a1
    6a70:	448d                	li	s1,3
    6a72:	02e484b3          	mul	s1,s1,a4
    6a76:	4709                	li	a4,2
    6a78:	02e4c4b3          	div	s1,s1,a4
    6a7c:	00168713          	addi	a4,a3,1
    6a80:	974e                	add	a4,a4,s3
    6a82:	00e4f363          	bgeu	s1,a4,6a88 <__ssputs_r+0x4e>
    6a86:	84ba                	mv	s1,a4
    6a88:	4007f793          	andi	a5,a5,1024
    6a8c:	c3d9                	beqz	a5,6b12 <__ssputs_r+0xd8>
    6a8e:	85a6                	mv	a1,s1
    6a90:	8556                	mv	a0,s5
    6a92:	ed6fd0ef          	jal	ra,4168 <_malloc_r>
    6a96:	892a                	mv	s2,a0
    6a98:	e50d                	bnez	a0,6ac2 <__ssputs_r+0x88>
    6a9a:	47b1                	li	a5,12
    6a9c:	00faa023          	sw	a5,0(s5)
    6aa0:	00c45783          	lhu	a5,12(s0)
    6aa4:	557d                	li	a0,-1
    6aa6:	0407e793          	ori	a5,a5,64
    6aaa:	00f41623          	sh	a5,12(s0)
    6aae:	40f2                	lw	ra,28(sp)
    6ab0:	4462                	lw	s0,24(sp)
    6ab2:	44d2                	lw	s1,20(sp)
    6ab4:	4942                	lw	s2,16(sp)
    6ab6:	49b2                	lw	s3,12(sp)
    6ab8:	4a22                	lw	s4,8(sp)
    6aba:	4a92                	lw	s5,4(sp)
    6abc:	4b02                	lw	s6,0(sp)
    6abe:	6105                	addi	sp,sp,32
    6ac0:	8082                	ret
    6ac2:	480c                	lw	a1,16(s0)
    6ac4:	864e                	mv	a2,s3
    6ac6:	d44fd0ef          	jal	ra,400a <memcpy>
    6aca:	00c45783          	lhu	a5,12(s0)
    6ace:	b7f7f793          	andi	a5,a5,-1153
    6ad2:	0807e793          	ori	a5,a5,128
    6ad6:	00f41623          	sh	a5,12(s0)
    6ada:	01242823          	sw	s2,16(s0)
    6ade:	c844                	sw	s1,20(s0)
    6ae0:	994e                	add	s2,s2,s3
    6ae2:	413484b3          	sub	s1,s1,s3
    6ae6:	01242023          	sw	s2,0(s0)
    6aea:	c404                	sw	s1,8(s0)
    6aec:	8952                	mv	s2,s4
    6aee:	012a7363          	bgeu	s4,s2,6af4 <__ssputs_r+0xba>
    6af2:	8952                	mv	s2,s4
    6af4:	4008                	lw	a0,0(s0)
    6af6:	864a                	mv	a2,s2
    6af8:	85da                	mv	a1,s6
    6afa:	357000ef          	jal	ra,7650 <memmove>
    6afe:	441c                	lw	a5,8(s0)
    6b00:	4501                	li	a0,0
    6b02:	412787b3          	sub	a5,a5,s2
    6b06:	c41c                	sw	a5,8(s0)
    6b08:	401c                	lw	a5,0(s0)
    6b0a:	993e                	add	s2,s2,a5
    6b0c:	01242023          	sw	s2,0(s0)
    6b10:	bf79                	j	6aae <__ssputs_r+0x74>
    6b12:	8626                	mv	a2,s1
    6b14:	8556                	mv	a0,s5
    6b16:	385000ef          	jal	ra,769a <_realloc_r>
    6b1a:	892a                	mv	s2,a0
    6b1c:	fd5d                	bnez	a0,6ada <__ssputs_r+0xa0>
    6b1e:	480c                	lw	a1,16(s0)
    6b20:	8556                	mv	a0,s5
    6b22:	d9efd0ef          	jal	ra,40c0 <_free_r>
    6b26:	bf95                	j	6a9a <__ssputs_r+0x60>

00006b28 <_svfiprintf_r>:
    6b28:	00c5d783          	lhu	a5,12(a1)
    6b2c:	7171                	addi	sp,sp,-176
    6b2e:	d326                	sw	s1,164(sp)
    6b30:	d14a                	sw	s2,160(sp)
    6b32:	cf4e                	sw	s3,156(sp)
    6b34:	d706                	sw	ra,172(sp)
    6b36:	d522                	sw	s0,168(sp)
    6b38:	cd52                	sw	s4,152(sp)
    6b3a:	cb56                	sw	s5,148(sp)
    6b3c:	c95a                	sw	s6,144(sp)
    6b3e:	c75e                	sw	s7,140(sp)
    6b40:	c562                	sw	s8,136(sp)
    6b42:	c366                	sw	s9,132(sp)
    6b44:	0807f793          	andi	a5,a5,128
    6b48:	89aa                	mv	s3,a0
    6b4a:	892e                	mv	s2,a1
    6b4c:	84b2                	mv	s1,a2
    6b4e:	c3b9                	beqz	a5,6b94 <_svfiprintf_r+0x6c>
    6b50:	499c                	lw	a5,16(a1)
    6b52:	e3a9                	bnez	a5,6b94 <_svfiprintf_r+0x6c>
    6b54:	04000593          	li	a1,64
    6b58:	c636                	sw	a3,12(sp)
    6b5a:	e0efd0ef          	jal	ra,4168 <_malloc_r>
    6b5e:	00a92023          	sw	a0,0(s2)
    6b62:	00a92823          	sw	a0,16(s2)
    6b66:	46b2                	lw	a3,12(sp)
    6b68:	e115                	bnez	a0,6b8c <_svfiprintf_r+0x64>
    6b6a:	47b1                	li	a5,12
    6b6c:	00f9a023          	sw	a5,0(s3)
    6b70:	557d                	li	a0,-1
    6b72:	50ba                	lw	ra,172(sp)
    6b74:	542a                	lw	s0,168(sp)
    6b76:	549a                	lw	s1,164(sp)
    6b78:	590a                	lw	s2,160(sp)
    6b7a:	49fa                	lw	s3,156(sp)
    6b7c:	4a6a                	lw	s4,152(sp)
    6b7e:	4ada                	lw	s5,148(sp)
    6b80:	4b4a                	lw	s6,144(sp)
    6b82:	4bba                	lw	s7,140(sp)
    6b84:	4c2a                	lw	s8,136(sp)
    6b86:	4c9a                	lw	s9,132(sp)
    6b88:	614d                	addi	sp,sp,176
    6b8a:	8082                	ret
    6b8c:	04000793          	li	a5,64
    6b90:	00f92a23          	sw	a5,20(s2)
    6b94:	02000793          	li	a5,32
    6b98:	02f10ca3          	sb	a5,57(sp)
    6b9c:	03000793          	li	a5,48
    6ba0:	da02                	sw	zero,52(sp)
    6ba2:	02f10d23          	sb	a5,58(sp)
    6ba6:	ce36                	sw	a3,28(sp)
    6ba8:	02500b93          	li	s7,37
    6bac:	00006a97          	auipc	s5,0x6
    6bb0:	040a8a93          	addi	s5,s5,64 # cbec <p05.3319+0xc>
    6bb4:	4c05                	li	s8,1
    6bb6:	4b29                	li	s6,10
    6bb8:	8426                	mv	s0,s1
    6bba:	00044783          	lbu	a5,0(s0)
    6bbe:	c399                	beqz	a5,6bc4 <_svfiprintf_r+0x9c>
    6bc0:	09779d63          	bne	a5,s7,6c5a <_svfiprintf_r+0x132>
    6bc4:	40940cb3          	sub	s9,s0,s1
    6bc8:	000c8e63          	beqz	s9,6be4 <_svfiprintf_r+0xbc>
    6bcc:	86e6                	mv	a3,s9
    6bce:	8626                	mv	a2,s1
    6bd0:	85ca                	mv	a1,s2
    6bd2:	854e                	mv	a0,s3
    6bd4:	e67ff0ef          	jal	ra,6a3a <__ssputs_r>
    6bd8:	57fd                	li	a5,-1
    6bda:	1af50463          	beq	a0,a5,6d82 <_svfiprintf_r+0x25a>
    6bde:	56d2                	lw	a3,52(sp)
    6be0:	96e6                	add	a3,a3,s9
    6be2:	da36                	sw	a3,52(sp)
    6be4:	00044783          	lbu	a5,0(s0)
    6be8:	18078d63          	beqz	a5,6d82 <_svfiprintf_r+0x25a>
    6bec:	57fd                	li	a5,-1
    6bee:	00140493          	addi	s1,s0,1
    6bf2:	d002                	sw	zero,32(sp)
    6bf4:	d602                	sw	zero,44(sp)
    6bf6:	d23e                	sw	a5,36(sp)
    6bf8:	d402                	sw	zero,40(sp)
    6bfa:	060101a3          	sb	zero,99(sp)
    6bfe:	dc82                	sw	zero,120(sp)
    6c00:	0004c583          	lbu	a1,0(s1)
    6c04:	4615                	li	a2,5
    6c06:	8556                	mv	a0,s5
    6c08:	22f000ef          	jal	ra,7636 <memchr>
    6c0c:	00148413          	addi	s0,s1,1
    6c10:	5782                	lw	a5,32(sp)
    6c12:	e531                	bnez	a0,6c5e <_svfiprintf_r+0x136>
    6c14:	0107f713          	andi	a4,a5,16
    6c18:	c709                	beqz	a4,6c22 <_svfiprintf_r+0xfa>
    6c1a:	02000713          	li	a4,32
    6c1e:	06e101a3          	sb	a4,99(sp)
    6c22:	0087f713          	andi	a4,a5,8
    6c26:	c709                	beqz	a4,6c30 <_svfiprintf_r+0x108>
    6c28:	02b00713          	li	a4,43
    6c2c:	06e101a3          	sb	a4,99(sp)
    6c30:	0004c683          	lbu	a3,0(s1)
    6c34:	02a00713          	li	a4,42
    6c38:	02e68b63          	beq	a3,a4,6c6e <_svfiprintf_r+0x146>
    6c3c:	57b2                	lw	a5,44(sp)
    6c3e:	8426                	mv	s0,s1
    6c40:	4681                	li	a3,0
    6c42:	4625                	li	a2,9
    6c44:	00044703          	lbu	a4,0(s0)
    6c48:	00140593          	addi	a1,s0,1
    6c4c:	fd070713          	addi	a4,a4,-48 # ffefffd0 <_eusrstack+0xdfef7fd0>
    6c50:	06e67463          	bgeu	a2,a4,6cb8 <_svfiprintf_r+0x190>
    6c54:	c68d                	beqz	a3,6c7e <_svfiprintf_r+0x156>
    6c56:	d63e                	sw	a5,44(sp)
    6c58:	a01d                	j	6c7e <_svfiprintf_r+0x156>
    6c5a:	0405                	addi	s0,s0,1
    6c5c:	bfb9                	j	6bba <_svfiprintf_r+0x92>
    6c5e:	41550533          	sub	a0,a0,s5
    6c62:	00ac1533          	sll	a0,s8,a0
    6c66:	8fc9                	or	a5,a5,a0
    6c68:	d03e                	sw	a5,32(sp)
    6c6a:	84a2                	mv	s1,s0
    6c6c:	bf51                	j	6c00 <_svfiprintf_r+0xd8>
    6c6e:	4772                	lw	a4,28(sp)
    6c70:	00470693          	addi	a3,a4,4
    6c74:	4318                	lw	a4,0(a4)
    6c76:	ce36                	sw	a3,28(sp)
    6c78:	02074963          	bltz	a4,6caa <_svfiprintf_r+0x182>
    6c7c:	d63a                	sw	a4,44(sp)
    6c7e:	00044703          	lbu	a4,0(s0)
    6c82:	02e00793          	li	a5,46
    6c86:	04f71f63          	bne	a4,a5,6ce4 <_svfiprintf_r+0x1bc>
    6c8a:	00144703          	lbu	a4,1(s0)
    6c8e:	02a00793          	li	a5,42
    6c92:	02f71b63          	bne	a4,a5,6cc8 <_svfiprintf_r+0x1a0>
    6c96:	47f2                	lw	a5,28(sp)
    6c98:	0409                	addi	s0,s0,2
    6c9a:	00478713          	addi	a4,a5,4 # 80000004 <_eusrstack+0x5fff8004>
    6c9e:	439c                	lw	a5,0(a5)
    6ca0:	ce3a                	sw	a4,28(sp)
    6ca2:	0207c163          	bltz	a5,6cc4 <_svfiprintf_r+0x19c>
    6ca6:	d23e                	sw	a5,36(sp)
    6ca8:	a835                	j	6ce4 <_svfiprintf_r+0x1bc>
    6caa:	40e00733          	neg	a4,a4
    6cae:	0027e793          	ori	a5,a5,2
    6cb2:	d63a                	sw	a4,44(sp)
    6cb4:	d03e                	sw	a5,32(sp)
    6cb6:	b7e1                	j	6c7e <_svfiprintf_r+0x156>
    6cb8:	036787b3          	mul	a5,a5,s6
    6cbc:	4685                	li	a3,1
    6cbe:	842e                	mv	s0,a1
    6cc0:	97ba                	add	a5,a5,a4
    6cc2:	b749                	j	6c44 <_svfiprintf_r+0x11c>
    6cc4:	57fd                	li	a5,-1
    6cc6:	b7c5                	j	6ca6 <_svfiprintf_r+0x17e>
    6cc8:	0405                	addi	s0,s0,1
    6cca:	d202                	sw	zero,36(sp)
    6ccc:	4681                	li	a3,0
    6cce:	4781                	li	a5,0
    6cd0:	4625                	li	a2,9
    6cd2:	00044703          	lbu	a4,0(s0)
    6cd6:	00140593          	addi	a1,s0,1
    6cda:	fd070713          	addi	a4,a4,-48
    6cde:	06e67863          	bgeu	a2,a4,6d4e <_svfiprintf_r+0x226>
    6ce2:	f2f1                	bnez	a3,6ca6 <_svfiprintf_r+0x17e>
    6ce4:	00044583          	lbu	a1,0(s0)
    6ce8:	460d                	li	a2,3
    6cea:	00006517          	auipc	a0,0x6
    6cee:	f0a50513          	addi	a0,a0,-246 # cbf4 <p05.3319+0x14>
    6cf2:	145000ef          	jal	ra,7636 <memchr>
    6cf6:	cd11                	beqz	a0,6d12 <_svfiprintf_r+0x1ea>
    6cf8:	00006797          	auipc	a5,0x6
    6cfc:	efc78793          	addi	a5,a5,-260 # cbf4 <p05.3319+0x14>
    6d00:	8d1d                	sub	a0,a0,a5
    6d02:	04000793          	li	a5,64
    6d06:	00a797b3          	sll	a5,a5,a0
    6d0a:	5502                	lw	a0,32(sp)
    6d0c:	0405                	addi	s0,s0,1
    6d0e:	8d5d                	or	a0,a0,a5
    6d10:	d02a                	sw	a0,32(sp)
    6d12:	00044583          	lbu	a1,0(s0)
    6d16:	4619                	li	a2,6
    6d18:	00006517          	auipc	a0,0x6
    6d1c:	ee050513          	addi	a0,a0,-288 # cbf8 <p05.3319+0x18>
    6d20:	00140493          	addi	s1,s0,1
    6d24:	02b10c23          	sb	a1,56(sp)
    6d28:	10f000ef          	jal	ra,7636 <memchr>
    6d2c:	c525                	beqz	a0,6d94 <_svfiprintf_r+0x26c>
    6d2e:	ffff9797          	auipc	a5,0xffff9
    6d32:	2d278793          	addi	a5,a5,722 # 0 <_sinit>
    6d36:	e795                	bnez	a5,6d62 <_svfiprintf_r+0x23a>
    6d38:	5702                	lw	a4,32(sp)
    6d3a:	47f2                	lw	a5,28(sp)
    6d3c:	10077713          	andi	a4,a4,256
    6d40:	cf09                	beqz	a4,6d5a <_svfiprintf_r+0x232>
    6d42:	0791                	addi	a5,a5,4
    6d44:	ce3e                	sw	a5,28(sp)
    6d46:	57d2                	lw	a5,52(sp)
    6d48:	97d2                	add	a5,a5,s4
    6d4a:	da3e                	sw	a5,52(sp)
    6d4c:	b5b5                	j	6bb8 <_svfiprintf_r+0x90>
    6d4e:	036787b3          	mul	a5,a5,s6
    6d52:	4685                	li	a3,1
    6d54:	842e                	mv	s0,a1
    6d56:	97ba                	add	a5,a5,a4
    6d58:	bfad                	j	6cd2 <_svfiprintf_r+0x1aa>
    6d5a:	079d                	addi	a5,a5,7
    6d5c:	9be1                	andi	a5,a5,-8
    6d5e:	07a1                	addi	a5,a5,8
    6d60:	b7d5                	j	6d44 <_svfiprintf_r+0x21c>
    6d62:	0878                	addi	a4,sp,28
    6d64:	00000697          	auipc	a3,0x0
    6d68:	cd668693          	addi	a3,a3,-810 # 6a3a <__ssputs_r>
    6d6c:	864a                	mv	a2,s2
    6d6e:	100c                	addi	a1,sp,32
    6d70:	854e                	mv	a0,s3
    6d72:	00000097          	auipc	ra,0x0
    6d76:	000000e7          	jalr	zero # 0 <_sinit>
    6d7a:	57fd                	li	a5,-1
    6d7c:	8a2a                	mv	s4,a0
    6d7e:	fcf514e3          	bne	a0,a5,6d46 <_svfiprintf_r+0x21e>
    6d82:	00c95783          	lhu	a5,12(s2)
    6d86:	557d                	li	a0,-1
    6d88:	0407f793          	andi	a5,a5,64
    6d8c:	de0793e3          	bnez	a5,6b72 <_svfiprintf_r+0x4a>
    6d90:	5552                	lw	a0,52(sp)
    6d92:	b3c5                	j	6b72 <_svfiprintf_r+0x4a>
    6d94:	0878                	addi	a4,sp,28
    6d96:	00000697          	auipc	a3,0x0
    6d9a:	ca468693          	addi	a3,a3,-860 # 6a3a <__ssputs_r>
    6d9e:	864a                	mv	a2,s2
    6da0:	100c                	addi	a1,sp,32
    6da2:	854e                	mv	a0,s3
    6da4:	2929                	jal	71be <_printf_i>
    6da6:	bfd1                	j	6d7a <_svfiprintf_r+0x252>

00006da8 <__sfputc_r>:
    6da8:	461c                	lw	a5,8(a2)
    6daa:	17fd                	addi	a5,a5,-1
    6dac:	c61c                	sw	a5,8(a2)
    6dae:	0007da63          	bgez	a5,6dc2 <__sfputc_r+0x1a>
    6db2:	4e18                	lw	a4,24(a2)
    6db4:	00e7c563          	blt	a5,a4,6dbe <__sfputc_r+0x16>
    6db8:	47a9                	li	a5,10
    6dba:	00f59463          	bne	a1,a5,6dc2 <__sfputc_r+0x1a>
    6dbe:	cbafe06f          	j	5278 <__swbuf_r>
    6dc2:	421c                	lw	a5,0(a2)
    6dc4:	852e                	mv	a0,a1
    6dc6:	00178713          	addi	a4,a5,1
    6dca:	c218                	sw	a4,0(a2)
    6dcc:	00b78023          	sb	a1,0(a5)
    6dd0:	8082                	ret

00006dd2 <__sfputs_r>:
    6dd2:	1101                	addi	sp,sp,-32
    6dd4:	cc22                	sw	s0,24(sp)
    6dd6:	ca26                	sw	s1,20(sp)
    6dd8:	c84a                	sw	s2,16(sp)
    6dda:	c64e                	sw	s3,12(sp)
    6ddc:	c452                	sw	s4,8(sp)
    6dde:	ce06                	sw	ra,28(sp)
    6de0:	892a                	mv	s2,a0
    6de2:	89ae                	mv	s3,a1
    6de4:	8432                	mv	s0,a2
    6de6:	00d604b3          	add	s1,a2,a3
    6dea:	5a7d                	li	s4,-1
    6dec:	00941463          	bne	s0,s1,6df4 <__sfputs_r+0x22>
    6df0:	4501                	li	a0,0
    6df2:	a811                	j	6e06 <__sfputs_r+0x34>
    6df4:	00044583          	lbu	a1,0(s0)
    6df8:	864e                	mv	a2,s3
    6dfa:	854a                	mv	a0,s2
    6dfc:	fadff0ef          	jal	ra,6da8 <__sfputc_r>
    6e00:	0405                	addi	s0,s0,1
    6e02:	ff4515e3          	bne	a0,s4,6dec <__sfputs_r+0x1a>
    6e06:	40f2                	lw	ra,28(sp)
    6e08:	4462                	lw	s0,24(sp)
    6e0a:	44d2                	lw	s1,20(sp)
    6e0c:	4942                	lw	s2,16(sp)
    6e0e:	49b2                	lw	s3,12(sp)
    6e10:	4a22                	lw	s4,8(sp)
    6e12:	6105                	addi	sp,sp,32
    6e14:	8082                	ret

00006e16 <_vfiprintf_r>:
    6e16:	7135                	addi	sp,sp,-160
    6e18:	cd22                	sw	s0,152(sp)
    6e1a:	cb26                	sw	s1,148(sp)
    6e1c:	c94a                	sw	s2,144(sp)
    6e1e:	c74e                	sw	s3,140(sp)
    6e20:	cf06                	sw	ra,156(sp)
    6e22:	c552                	sw	s4,136(sp)
    6e24:	c356                	sw	s5,132(sp)
    6e26:	c15a                	sw	s6,128(sp)
    6e28:	dede                	sw	s7,124(sp)
    6e2a:	dce2                	sw	s8,120(sp)
    6e2c:	dae6                	sw	s9,116(sp)
    6e2e:	89aa                	mv	s3,a0
    6e30:	84ae                	mv	s1,a1
    6e32:	8932                	mv	s2,a2
    6e34:	8436                	mv	s0,a3
    6e36:	c509                	beqz	a0,6e40 <_vfiprintf_r+0x2a>
    6e38:	4d1c                	lw	a5,24(a0)
    6e3a:	e399                	bnez	a5,6e40 <_vfiprintf_r+0x2a>
    6e3c:	88dfe0ef          	jal	ra,56c8 <__sinit>
    6e40:	00006797          	auipc	a5,0x6
    6e44:	c6c78793          	addi	a5,a5,-916 # caac <__sf_fake_stdin>
    6e48:	0cf49c63          	bne	s1,a5,6f20 <_vfiprintf_r+0x10a>
    6e4c:	0049a483          	lw	s1,4(s3)
    6e50:	00c4d783          	lhu	a5,12(s1)
    6e54:	8ba1                	andi	a5,a5,8
    6e56:	c7fd                	beqz	a5,6f44 <_vfiprintf_r+0x12e>
    6e58:	489c                	lw	a5,16(s1)
    6e5a:	c7ed                	beqz	a5,6f44 <_vfiprintf_r+0x12e>
    6e5c:	02000793          	li	a5,32
    6e60:	02f104a3          	sb	a5,41(sp)
    6e64:	03000793          	li	a5,48
    6e68:	d202                	sw	zero,36(sp)
    6e6a:	02f10523          	sb	a5,42(sp)
    6e6e:	c622                	sw	s0,12(sp)
    6e70:	02500b93          	li	s7,37
    6e74:	00006a97          	auipc	s5,0x6
    6e78:	d78a8a93          	addi	s5,s5,-648 # cbec <p05.3319+0xc>
    6e7c:	4c05                	li	s8,1
    6e7e:	4b29                	li	s6,10
    6e80:	844a                	mv	s0,s2
    6e82:	00044783          	lbu	a5,0(s0)
    6e86:	c399                	beqz	a5,6e8c <_vfiprintf_r+0x76>
    6e88:	0f779163          	bne	a5,s7,6f6a <_vfiprintf_r+0x154>
    6e8c:	41240cb3          	sub	s9,s0,s2
    6e90:	000c8e63          	beqz	s9,6eac <_vfiprintf_r+0x96>
    6e94:	86e6                	mv	a3,s9
    6e96:	864a                	mv	a2,s2
    6e98:	85a6                	mv	a1,s1
    6e9a:	854e                	mv	a0,s3
    6e9c:	f37ff0ef          	jal	ra,6dd2 <__sfputs_r>
    6ea0:	57fd                	li	a5,-1
    6ea2:	1ef50663          	beq	a0,a5,708e <_vfiprintf_r+0x278>
    6ea6:	5692                	lw	a3,36(sp)
    6ea8:	96e6                	add	a3,a3,s9
    6eaa:	d236                	sw	a3,36(sp)
    6eac:	00044783          	lbu	a5,0(s0)
    6eb0:	1c078f63          	beqz	a5,708e <_vfiprintf_r+0x278>
    6eb4:	57fd                	li	a5,-1
    6eb6:	00140913          	addi	s2,s0,1
    6eba:	c802                	sw	zero,16(sp)
    6ebc:	ce02                	sw	zero,28(sp)
    6ebe:	ca3e                	sw	a5,20(sp)
    6ec0:	cc02                	sw	zero,24(sp)
    6ec2:	040109a3          	sb	zero,83(sp)
    6ec6:	d482                	sw	zero,104(sp)
    6ec8:	00094583          	lbu	a1,0(s2)
    6ecc:	4615                	li	a2,5
    6ece:	8556                	mv	a0,s5
    6ed0:	279d                	jal	7636 <memchr>
    6ed2:	00190413          	addi	s0,s2,1
    6ed6:	47c2                	lw	a5,16(sp)
    6ed8:	e959                	bnez	a0,6f6e <_vfiprintf_r+0x158>
    6eda:	0107f713          	andi	a4,a5,16
    6ede:	c709                	beqz	a4,6ee8 <_vfiprintf_r+0xd2>
    6ee0:	02000713          	li	a4,32
    6ee4:	04e109a3          	sb	a4,83(sp)
    6ee8:	0087f713          	andi	a4,a5,8
    6eec:	c709                	beqz	a4,6ef6 <_vfiprintf_r+0xe0>
    6eee:	02b00713          	li	a4,43
    6ef2:	04e109a3          	sb	a4,83(sp)
    6ef6:	00094683          	lbu	a3,0(s2)
    6efa:	02a00713          	li	a4,42
    6efe:	08e68063          	beq	a3,a4,6f7e <_vfiprintf_r+0x168>
    6f02:	47f2                	lw	a5,28(sp)
    6f04:	844a                	mv	s0,s2
    6f06:	4681                	li	a3,0
    6f08:	4625                	li	a2,9
    6f0a:	00044703          	lbu	a4,0(s0)
    6f0e:	00140593          	addi	a1,s0,1
    6f12:	fd070713          	addi	a4,a4,-48
    6f16:	0ae67963          	bgeu	a2,a4,6fc8 <_vfiprintf_r+0x1b2>
    6f1a:	cab5                	beqz	a3,6f8e <_vfiprintf_r+0x178>
    6f1c:	ce3e                	sw	a5,28(sp)
    6f1e:	a885                	j	6f8e <_vfiprintf_r+0x178>
    6f20:	00006797          	auipc	a5,0x6
    6f24:	bac78793          	addi	a5,a5,-1108 # cacc <__sf_fake_stdout>
    6f28:	00f49563          	bne	s1,a5,6f32 <_vfiprintf_r+0x11c>
    6f2c:	0089a483          	lw	s1,8(s3)
    6f30:	b705                	j	6e50 <_vfiprintf_r+0x3a>
    6f32:	00006797          	auipc	a5,0x6
    6f36:	b5a78793          	addi	a5,a5,-1190 # ca8c <__sf_fake_stderr>
    6f3a:	f0f49be3          	bne	s1,a5,6e50 <_vfiprintf_r+0x3a>
    6f3e:	00c9a483          	lw	s1,12(s3)
    6f42:	b739                	j	6e50 <_vfiprintf_r+0x3a>
    6f44:	85a6                	mv	a1,s1
    6f46:	854e                	mv	a0,s3
    6f48:	c10fe0ef          	jal	ra,5358 <__swsetup_r>
    6f4c:	d901                	beqz	a0,6e5c <_vfiprintf_r+0x46>
    6f4e:	557d                	li	a0,-1
    6f50:	40fa                	lw	ra,156(sp)
    6f52:	446a                	lw	s0,152(sp)
    6f54:	44da                	lw	s1,148(sp)
    6f56:	494a                	lw	s2,144(sp)
    6f58:	49ba                	lw	s3,140(sp)
    6f5a:	4a2a                	lw	s4,136(sp)
    6f5c:	4a9a                	lw	s5,132(sp)
    6f5e:	4b0a                	lw	s6,128(sp)
    6f60:	5bf6                	lw	s7,124(sp)
    6f62:	5c66                	lw	s8,120(sp)
    6f64:	5cd6                	lw	s9,116(sp)
    6f66:	610d                	addi	sp,sp,160
    6f68:	8082                	ret
    6f6a:	0405                	addi	s0,s0,1
    6f6c:	bf19                	j	6e82 <_vfiprintf_r+0x6c>
    6f6e:	41550533          	sub	a0,a0,s5
    6f72:	00ac1533          	sll	a0,s8,a0
    6f76:	8fc9                	or	a5,a5,a0
    6f78:	c83e                	sw	a5,16(sp)
    6f7a:	8922                	mv	s2,s0
    6f7c:	b7b1                	j	6ec8 <_vfiprintf_r+0xb2>
    6f7e:	4732                	lw	a4,12(sp)
    6f80:	00470693          	addi	a3,a4,4
    6f84:	4318                	lw	a4,0(a4)
    6f86:	c636                	sw	a3,12(sp)
    6f88:	02074963          	bltz	a4,6fba <_vfiprintf_r+0x1a4>
    6f8c:	ce3a                	sw	a4,28(sp)
    6f8e:	00044703          	lbu	a4,0(s0)
    6f92:	02e00793          	li	a5,46
    6f96:	04f71f63          	bne	a4,a5,6ff4 <_vfiprintf_r+0x1de>
    6f9a:	00144703          	lbu	a4,1(s0)
    6f9e:	02a00793          	li	a5,42
    6fa2:	02f71b63          	bne	a4,a5,6fd8 <_vfiprintf_r+0x1c2>
    6fa6:	47b2                	lw	a5,12(sp)
    6fa8:	0409                	addi	s0,s0,2
    6faa:	00478713          	addi	a4,a5,4
    6fae:	439c                	lw	a5,0(a5)
    6fb0:	c63a                	sw	a4,12(sp)
    6fb2:	0207c163          	bltz	a5,6fd4 <_vfiprintf_r+0x1be>
    6fb6:	ca3e                	sw	a5,20(sp)
    6fb8:	a835                	j	6ff4 <_vfiprintf_r+0x1de>
    6fba:	40e00733          	neg	a4,a4
    6fbe:	0027e793          	ori	a5,a5,2
    6fc2:	ce3a                	sw	a4,28(sp)
    6fc4:	c83e                	sw	a5,16(sp)
    6fc6:	b7e1                	j	6f8e <_vfiprintf_r+0x178>
    6fc8:	036787b3          	mul	a5,a5,s6
    6fcc:	4685                	li	a3,1
    6fce:	842e                	mv	s0,a1
    6fd0:	97ba                	add	a5,a5,a4
    6fd2:	bf25                	j	6f0a <_vfiprintf_r+0xf4>
    6fd4:	57fd                	li	a5,-1
    6fd6:	b7c5                	j	6fb6 <_vfiprintf_r+0x1a0>
    6fd8:	0405                	addi	s0,s0,1
    6fda:	ca02                	sw	zero,20(sp)
    6fdc:	4681                	li	a3,0
    6fde:	4781                	li	a5,0
    6fe0:	4625                	li	a2,9
    6fe2:	00044703          	lbu	a4,0(s0)
    6fe6:	00140593          	addi	a1,s0,1
    6fea:	fd070713          	addi	a4,a4,-48
    6fee:	06e67663          	bgeu	a2,a4,705a <_vfiprintf_r+0x244>
    6ff2:	f2f1                	bnez	a3,6fb6 <_vfiprintf_r+0x1a0>
    6ff4:	00044583          	lbu	a1,0(s0)
    6ff8:	460d                	li	a2,3
    6ffa:	00006517          	auipc	a0,0x6
    6ffe:	bfa50513          	addi	a0,a0,-1030 # cbf4 <p05.3319+0x14>
    7002:	2d15                	jal	7636 <memchr>
    7004:	cd11                	beqz	a0,7020 <_vfiprintf_r+0x20a>
    7006:	00006797          	auipc	a5,0x6
    700a:	bee78793          	addi	a5,a5,-1042 # cbf4 <p05.3319+0x14>
    700e:	8d1d                	sub	a0,a0,a5
    7010:	04000793          	li	a5,64
    7014:	00a797b3          	sll	a5,a5,a0
    7018:	4542                	lw	a0,16(sp)
    701a:	0405                	addi	s0,s0,1
    701c:	8d5d                	or	a0,a0,a5
    701e:	c82a                	sw	a0,16(sp)
    7020:	00044583          	lbu	a1,0(s0)
    7024:	4619                	li	a2,6
    7026:	00006517          	auipc	a0,0x6
    702a:	bd250513          	addi	a0,a0,-1070 # cbf8 <p05.3319+0x18>
    702e:	00140913          	addi	s2,s0,1
    7032:	02b10423          	sb	a1,40(sp)
    7036:	2501                	jal	7636 <memchr>
    7038:	c13d                	beqz	a0,709e <_vfiprintf_r+0x288>
    703a:	ffff9797          	auipc	a5,0xffff9
    703e:	fc678793          	addi	a5,a5,-58 # 0 <_sinit>
    7042:	e795                	bnez	a5,706e <_vfiprintf_r+0x258>
    7044:	4742                	lw	a4,16(sp)
    7046:	47b2                	lw	a5,12(sp)
    7048:	10077713          	andi	a4,a4,256
    704c:	cf09                	beqz	a4,7066 <_vfiprintf_r+0x250>
    704e:	0791                	addi	a5,a5,4
    7050:	c63e                	sw	a5,12(sp)
    7052:	5792                	lw	a5,36(sp)
    7054:	97d2                	add	a5,a5,s4
    7056:	d23e                	sw	a5,36(sp)
    7058:	b525                	j	6e80 <_vfiprintf_r+0x6a>
    705a:	036787b3          	mul	a5,a5,s6
    705e:	4685                	li	a3,1
    7060:	842e                	mv	s0,a1
    7062:	97ba                	add	a5,a5,a4
    7064:	bfbd                	j	6fe2 <_vfiprintf_r+0x1cc>
    7066:	079d                	addi	a5,a5,7
    7068:	9be1                	andi	a5,a5,-8
    706a:	07a1                	addi	a5,a5,8
    706c:	b7d5                	j	7050 <_vfiprintf_r+0x23a>
    706e:	0078                	addi	a4,sp,12
    7070:	00000697          	auipc	a3,0x0
    7074:	d6268693          	addi	a3,a3,-670 # 6dd2 <__sfputs_r>
    7078:	8626                	mv	a2,s1
    707a:	080c                	addi	a1,sp,16
    707c:	854e                	mv	a0,s3
    707e:	00000097          	auipc	ra,0x0
    7082:	000000e7          	jalr	zero # 0 <_sinit>
    7086:	57fd                	li	a5,-1
    7088:	8a2a                	mv	s4,a0
    708a:	fcf514e3          	bne	a0,a5,7052 <_vfiprintf_r+0x23c>
    708e:	00c4d783          	lhu	a5,12(s1)
    7092:	0407f793          	andi	a5,a5,64
    7096:	ea079ce3          	bnez	a5,6f4e <_vfiprintf_r+0x138>
    709a:	5512                	lw	a0,36(sp)
    709c:	bd55                	j	6f50 <_vfiprintf_r+0x13a>
    709e:	0078                	addi	a4,sp,12
    70a0:	00000697          	auipc	a3,0x0
    70a4:	d3268693          	addi	a3,a3,-718 # 6dd2 <__sfputs_r>
    70a8:	8626                	mv	a2,s1
    70aa:	080c                	addi	a1,sp,16
    70ac:	854e                	mv	a0,s3
    70ae:	2a01                	jal	71be <_printf_i>
    70b0:	bfd9                	j	7086 <_vfiprintf_r+0x270>

000070b2 <_printf_common>:
    70b2:	7179                	addi	sp,sp,-48
    70b4:	ca56                	sw	s5,20(sp)
    70b6:	499c                	lw	a5,16(a1)
    70b8:	8aba                	mv	s5,a4
    70ba:	4598                	lw	a4,8(a1)
    70bc:	d422                	sw	s0,40(sp)
    70be:	d226                	sw	s1,36(sp)
    70c0:	ce4e                	sw	s3,28(sp)
    70c2:	cc52                	sw	s4,24(sp)
    70c4:	d606                	sw	ra,44(sp)
    70c6:	d04a                	sw	s2,32(sp)
    70c8:	c85a                	sw	s6,16(sp)
    70ca:	c65e                	sw	s7,12(sp)
    70cc:	89aa                	mv	s3,a0
    70ce:	842e                	mv	s0,a1
    70d0:	84b2                	mv	s1,a2
    70d2:	8a36                	mv	s4,a3
    70d4:	00e7d363          	bge	a5,a4,70da <_printf_common+0x28>
    70d8:	87ba                	mv	a5,a4
    70da:	c09c                	sw	a5,0(s1)
    70dc:	04344703          	lbu	a4,67(s0)
    70e0:	c319                	beqz	a4,70e6 <_printf_common+0x34>
    70e2:	0785                	addi	a5,a5,1
    70e4:	c09c                	sw	a5,0(s1)
    70e6:	401c                	lw	a5,0(s0)
    70e8:	0207f793          	andi	a5,a5,32
    70ec:	c781                	beqz	a5,70f4 <_printf_common+0x42>
    70ee:	409c                	lw	a5,0(s1)
    70f0:	0789                	addi	a5,a5,2
    70f2:	c09c                	sw	a5,0(s1)
    70f4:	00042903          	lw	s2,0(s0)
    70f8:	00697913          	andi	s2,s2,6
    70fc:	00091a63          	bnez	s2,7110 <_printf_common+0x5e>
    7100:	01940b13          	addi	s6,s0,25
    7104:	5bfd                	li	s7,-1
    7106:	445c                	lw	a5,12(s0)
    7108:	4098                	lw	a4,0(s1)
    710a:	8f99                	sub	a5,a5,a4
    710c:	04f94c63          	blt	s2,a5,7164 <_printf_common+0xb2>
    7110:	401c                	lw	a5,0(s0)
    7112:	04344683          	lbu	a3,67(s0)
    7116:	0207f793          	andi	a5,a5,32
    711a:	00d036b3          	snez	a3,a3
    711e:	eba5                	bnez	a5,718e <_printf_common+0xdc>
    7120:	04340613          	addi	a2,s0,67
    7124:	85d2                	mv	a1,s4
    7126:	854e                	mv	a0,s3
    7128:	9a82                	jalr	s5
    712a:	57fd                	li	a5,-1
    712c:	04f50363          	beq	a0,a5,7172 <_printf_common+0xc0>
    7130:	401c                	lw	a5,0(s0)
    7132:	4611                	li	a2,4
    7134:	4098                	lw	a4,0(s1)
    7136:	8b99                	andi	a5,a5,6
    7138:	4454                	lw	a3,12(s0)
    713a:	4481                	li	s1,0
    713c:	00c79763          	bne	a5,a2,714a <_printf_common+0x98>
    7140:	40e684b3          	sub	s1,a3,a4
    7144:	0004d363          	bgez	s1,714a <_printf_common+0x98>
    7148:	4481                	li	s1,0
    714a:	441c                	lw	a5,8(s0)
    714c:	4818                	lw	a4,16(s0)
    714e:	00f75463          	bge	a4,a5,7156 <_printf_common+0xa4>
    7152:	8f99                	sub	a5,a5,a4
    7154:	94be                	add	s1,s1,a5
    7156:	4901                	li	s2,0
    7158:	0469                	addi	s0,s0,26
    715a:	5b7d                	li	s6,-1
    715c:	05249863          	bne	s1,s2,71ac <_printf_common+0xfa>
    7160:	4501                	li	a0,0
    7162:	a809                	j	7174 <_printf_common+0xc2>
    7164:	4685                	li	a3,1
    7166:	865a                	mv	a2,s6
    7168:	85d2                	mv	a1,s4
    716a:	854e                	mv	a0,s3
    716c:	9a82                	jalr	s5
    716e:	01751e63          	bne	a0,s7,718a <_printf_common+0xd8>
    7172:	557d                	li	a0,-1
    7174:	50b2                	lw	ra,44(sp)
    7176:	5422                	lw	s0,40(sp)
    7178:	5492                	lw	s1,36(sp)
    717a:	5902                	lw	s2,32(sp)
    717c:	49f2                	lw	s3,28(sp)
    717e:	4a62                	lw	s4,24(sp)
    7180:	4ad2                	lw	s5,20(sp)
    7182:	4b42                	lw	s6,16(sp)
    7184:	4bb2                	lw	s7,12(sp)
    7186:	6145                	addi	sp,sp,48
    7188:	8082                	ret
    718a:	0905                	addi	s2,s2,1
    718c:	bfad                	j	7106 <_printf_common+0x54>
    718e:	00d40733          	add	a4,s0,a3
    7192:	03000613          	li	a2,48
    7196:	04c701a3          	sb	a2,67(a4)
    719a:	04544703          	lbu	a4,69(s0)
    719e:	00168793          	addi	a5,a3,1
    71a2:	97a2                	add	a5,a5,s0
    71a4:	0689                	addi	a3,a3,2
    71a6:	04e781a3          	sb	a4,67(a5)
    71aa:	bf9d                	j	7120 <_printf_common+0x6e>
    71ac:	4685                	li	a3,1
    71ae:	8622                	mv	a2,s0
    71b0:	85d2                	mv	a1,s4
    71b2:	854e                	mv	a0,s3
    71b4:	9a82                	jalr	s5
    71b6:	fb650ee3          	beq	a0,s6,7172 <_printf_common+0xc0>
    71ba:	0905                	addi	s2,s2,1
    71bc:	b745                	j	715c <_printf_common+0xaa>

000071be <_printf_i>:
    71be:	7179                	addi	sp,sp,-48
    71c0:	d422                	sw	s0,40(sp)
    71c2:	d226                	sw	s1,36(sp)
    71c4:	d04a                	sw	s2,32(sp)
    71c6:	ce4e                	sw	s3,28(sp)
    71c8:	d606                	sw	ra,44(sp)
    71ca:	cc52                	sw	s4,24(sp)
    71cc:	ca56                	sw	s5,20(sp)
    71ce:	c85a                	sw	s6,16(sp)
    71d0:	89b6                	mv	s3,a3
    71d2:	0185c683          	lbu	a3,24(a1)
    71d6:	06900793          	li	a5,105
    71da:	8932                	mv	s2,a2
    71dc:	84aa                	mv	s1,a0
    71de:	842e                	mv	s0,a1
    71e0:	04358613          	addi	a2,a1,67
    71e4:	02f68d63          	beq	a3,a5,721e <_printf_i+0x60>
    71e8:	06d7e263          	bltu	a5,a3,724c <_printf_i+0x8e>
    71ec:	05800793          	li	a5,88
    71f0:	18f68863          	beq	a3,a5,7380 <_printf_i+0x1c2>
    71f4:	00d7ed63          	bltu	a5,a3,720e <_printf_i+0x50>
    71f8:	22068163          	beqz	a3,741a <_printf_i+0x25c>
    71fc:	04300793          	li	a5,67
    7200:	0af68e63          	beq	a3,a5,72bc <_printf_i+0xfe>
    7204:	04240a93          	addi	s5,s0,66
    7208:	04d40123          	sb	a3,66(s0)
    720c:	a0c9                	j	72ce <_printf_i+0x110>
    720e:	06300793          	li	a5,99
    7212:	0af68563          	beq	a3,a5,72bc <_printf_i+0xfe>
    7216:	06400793          	li	a5,100
    721a:	fef695e3          	bne	a3,a5,7204 <_printf_i+0x46>
    721e:	401c                	lw	a5,0(s0)
    7220:	4308                	lw	a0,0(a4)
    7222:	0807f693          	andi	a3,a5,128
    7226:	00450593          	addi	a1,a0,4
    722a:	c6c5                	beqz	a3,72d2 <_printf_i+0x114>
    722c:	411c                	lw	a5,0(a0)
    722e:	c30c                	sw	a1,0(a4)
    7230:	0007d863          	bgez	a5,7240 <_printf_i+0x82>
    7234:	02d00713          	li	a4,45
    7238:	40f007b3          	neg	a5,a5
    723c:	04e401a3          	sb	a4,67(s0)
    7240:	00006697          	auipc	a3,0x6
    7244:	9c068693          	addi	a3,a3,-1600 # cc00 <p05.3319+0x20>
    7248:	4729                	li	a4,10
    724a:	a86d                	j	7304 <_printf_i+0x146>
    724c:	07000793          	li	a5,112
    7250:	16f68463          	beq	a3,a5,73b8 <_printf_i+0x1fa>
    7254:	02d7e563          	bltu	a5,a3,727e <_printf_i+0xc0>
    7258:	06e00793          	li	a5,110
    725c:	18f68b63          	beq	a3,a5,73f2 <_printf_i+0x234>
    7260:	06f00793          	li	a5,111
    7264:	faf690e3          	bne	a3,a5,7204 <_printf_i+0x46>
    7268:	400c                	lw	a1,0(s0)
    726a:	431c                	lw	a5,0(a4)
    726c:	0805f813          	andi	a6,a1,128
    7270:	00478513          	addi	a0,a5,4
    7274:	06080763          	beqz	a6,72e2 <_printf_i+0x124>
    7278:	c308                	sw	a0,0(a4)
    727a:	439c                	lw	a5,0(a5)
    727c:	a88d                	j	72ee <_printf_i+0x130>
    727e:	07500793          	li	a5,117
    7282:	fef683e3          	beq	a3,a5,7268 <_printf_i+0xaa>
    7286:	07800793          	li	a5,120
    728a:	12f68b63          	beq	a3,a5,73c0 <_printf_i+0x202>
    728e:	07300793          	li	a5,115
    7292:	f6f699e3          	bne	a3,a5,7204 <_printf_i+0x46>
    7296:	431c                	lw	a5,0(a4)
    7298:	41d0                	lw	a2,4(a1)
    729a:	4581                	li	a1,0
    729c:	00478693          	addi	a3,a5,4
    72a0:	c314                	sw	a3,0(a4)
    72a2:	0007aa83          	lw	s5,0(a5)
    72a6:	8556                	mv	a0,s5
    72a8:	2679                	jal	7636 <memchr>
    72aa:	c501                	beqz	a0,72b2 <_printf_i+0xf4>
    72ac:	41550533          	sub	a0,a0,s5
    72b0:	c048                	sw	a0,4(s0)
    72b2:	405c                	lw	a5,4(s0)
    72b4:	c81c                	sw	a5,16(s0)
    72b6:	040401a3          	sb	zero,67(s0)
    72ba:	a871                	j	7356 <_printf_i+0x198>
    72bc:	431c                	lw	a5,0(a4)
    72be:	04240a93          	addi	s5,s0,66
    72c2:	00478693          	addi	a3,a5,4
    72c6:	439c                	lw	a5,0(a5)
    72c8:	c314                	sw	a3,0(a4)
    72ca:	04f40123          	sb	a5,66(s0)
    72ce:	4785                	li	a5,1
    72d0:	b7d5                	j	72b4 <_printf_i+0xf6>
    72d2:	0407f693          	andi	a3,a5,64
    72d6:	411c                	lw	a5,0(a0)
    72d8:	c30c                	sw	a1,0(a4)
    72da:	dab9                	beqz	a3,7230 <_printf_i+0x72>
    72dc:	07c2                	slli	a5,a5,0x10
    72de:	87c1                	srai	a5,a5,0x10
    72e0:	bf81                	j	7230 <_printf_i+0x72>
    72e2:	0405f593          	andi	a1,a1,64
    72e6:	c308                	sw	a0,0(a4)
    72e8:	d9c9                	beqz	a1,727a <_printf_i+0xbc>
    72ea:	0007d783          	lhu	a5,0(a5)
    72ee:	06f00713          	li	a4,111
    72f2:	0ee68863          	beq	a3,a4,73e2 <_printf_i+0x224>
    72f6:	00006697          	auipc	a3,0x6
    72fa:	90a68693          	addi	a3,a3,-1782 # cc00 <p05.3319+0x20>
    72fe:	4729                	li	a4,10
    7300:	040401a3          	sb	zero,67(s0)
    7304:	404c                	lw	a1,4(s0)
    7306:	c40c                	sw	a1,8(s0)
    7308:	0005c563          	bltz	a1,7312 <_printf_i+0x154>
    730c:	4008                	lw	a0,0(s0)
    730e:	996d                	andi	a0,a0,-5
    7310:	c008                	sw	a0,0(s0)
    7312:	e399                	bnez	a5,7318 <_printf_i+0x15a>
    7314:	8ab2                	mv	s5,a2
    7316:	cd91                	beqz	a1,7332 <_printf_i+0x174>
    7318:	8ab2                	mv	s5,a2
    731a:	02e7f5b3          	remu	a1,a5,a4
    731e:	1afd                	addi	s5,s5,-1
    7320:	95b6                	add	a1,a1,a3
    7322:	0005c583          	lbu	a1,0(a1)
    7326:	00ba8023          	sb	a1,0(s5)
    732a:	02e7d5b3          	divu	a1,a5,a4
    732e:	0ce7f063          	bgeu	a5,a4,73ee <_printf_i+0x230>
    7332:	47a1                	li	a5,8
    7334:	00f71e63          	bne	a4,a5,7350 <_printf_i+0x192>
    7338:	401c                	lw	a5,0(s0)
    733a:	8b85                	andi	a5,a5,1
    733c:	cb91                	beqz	a5,7350 <_printf_i+0x192>
    733e:	4058                	lw	a4,4(s0)
    7340:	481c                	lw	a5,16(s0)
    7342:	00e7c763          	blt	a5,a4,7350 <_printf_i+0x192>
    7346:	03000793          	li	a5,48
    734a:	fefa8fa3          	sb	a5,-1(s5)
    734e:	1afd                	addi	s5,s5,-1
    7350:	41560633          	sub	a2,a2,s5
    7354:	c810                	sw	a2,16(s0)
    7356:	874e                	mv	a4,s3
    7358:	86ca                	mv	a3,s2
    735a:	0070                	addi	a2,sp,12
    735c:	85a2                	mv	a1,s0
    735e:	8526                	mv	a0,s1
    7360:	d53ff0ef          	jal	ra,70b2 <_printf_common>
    7364:	5a7d                	li	s4,-1
    7366:	0b451e63          	bne	a0,s4,7422 <_printf_i+0x264>
    736a:	557d                	li	a0,-1
    736c:	50b2                	lw	ra,44(sp)
    736e:	5422                	lw	s0,40(sp)
    7370:	5492                	lw	s1,36(sp)
    7372:	5902                	lw	s2,32(sp)
    7374:	49f2                	lw	s3,28(sp)
    7376:	4a62                	lw	s4,24(sp)
    7378:	4ad2                	lw	s5,20(sp)
    737a:	4b42                	lw	s6,16(sp)
    737c:	6145                	addi	sp,sp,48
    737e:	8082                	ret
    7380:	04d582a3          	sb	a3,69(a1)
    7384:	00006697          	auipc	a3,0x6
    7388:	87c68693          	addi	a3,a3,-1924 # cc00 <p05.3319+0x20>
    738c:	400c                	lw	a1,0(s0)
    738e:	4308                	lw	a0,0(a4)
    7390:	0805f813          	andi	a6,a1,128
    7394:	411c                	lw	a5,0(a0)
    7396:	0511                	addi	a0,a0,4
    7398:	02080d63          	beqz	a6,73d2 <_printf_i+0x214>
    739c:	c308                	sw	a0,0(a4)
    739e:	0015f713          	andi	a4,a1,1
    73a2:	c701                	beqz	a4,73aa <_printf_i+0x1ec>
    73a4:	0205e593          	ori	a1,a1,32
    73a8:	c00c                	sw	a1,0(s0)
    73aa:	4741                	li	a4,16
    73ac:	fbb1                	bnez	a5,7300 <_printf_i+0x142>
    73ae:	400c                	lw	a1,0(s0)
    73b0:	fdf5f593          	andi	a1,a1,-33
    73b4:	c00c                	sw	a1,0(s0)
    73b6:	b7a9                	j	7300 <_printf_i+0x142>
    73b8:	419c                	lw	a5,0(a1)
    73ba:	0207e793          	ori	a5,a5,32
    73be:	c19c                	sw	a5,0(a1)
    73c0:	07800793          	li	a5,120
    73c4:	04f402a3          	sb	a5,69(s0)
    73c8:	00006697          	auipc	a3,0x6
    73cc:	84c68693          	addi	a3,a3,-1972 # cc14 <p05.3319+0x34>
    73d0:	bf75                	j	738c <_printf_i+0x1ce>
    73d2:	0405f813          	andi	a6,a1,64
    73d6:	c308                	sw	a0,0(a4)
    73d8:	fc0803e3          	beqz	a6,739e <_printf_i+0x1e0>
    73dc:	07c2                	slli	a5,a5,0x10
    73de:	83c1                	srli	a5,a5,0x10
    73e0:	bf7d                	j	739e <_printf_i+0x1e0>
    73e2:	00006697          	auipc	a3,0x6
    73e6:	81e68693          	addi	a3,a3,-2018 # cc00 <p05.3319+0x20>
    73ea:	4721                	li	a4,8
    73ec:	bf11                	j	7300 <_printf_i+0x142>
    73ee:	87ae                	mv	a5,a1
    73f0:	b72d                	j	731a <_printf_i+0x15c>
    73f2:	4194                	lw	a3,0(a1)
    73f4:	431c                	lw	a5,0(a4)
    73f6:	49cc                	lw	a1,20(a1)
    73f8:	0806f813          	andi	a6,a3,128
    73fc:	00478513          	addi	a0,a5,4
    7400:	00080663          	beqz	a6,740c <_printf_i+0x24e>
    7404:	c308                	sw	a0,0(a4)
    7406:	439c                	lw	a5,0(a5)
    7408:	c38c                	sw	a1,0(a5)
    740a:	a801                	j	741a <_printf_i+0x25c>
    740c:	c308                	sw	a0,0(a4)
    740e:	0406f693          	andi	a3,a3,64
    7412:	439c                	lw	a5,0(a5)
    7414:	daf5                	beqz	a3,7408 <_printf_i+0x24a>
    7416:	00b79023          	sh	a1,0(a5)
    741a:	00042823          	sw	zero,16(s0)
    741e:	8ab2                	mv	s5,a2
    7420:	bf1d                	j	7356 <_printf_i+0x198>
    7422:	4814                	lw	a3,16(s0)
    7424:	8656                	mv	a2,s5
    7426:	85ca                	mv	a1,s2
    7428:	8526                	mv	a0,s1
    742a:	9982                	jalr	s3
    742c:	f3450fe3          	beq	a0,s4,736a <_printf_i+0x1ac>
    7430:	401c                	lw	a5,0(s0)
    7432:	8b89                	andi	a5,a5,2
    7434:	e78d                	bnez	a5,745e <_printf_i+0x2a0>
    7436:	47b2                	lw	a5,12(sp)
    7438:	4448                	lw	a0,12(s0)
    743a:	f2f559e3          	bge	a0,a5,736c <_printf_i+0x1ae>
    743e:	853e                	mv	a0,a5
    7440:	b735                	j	736c <_printf_i+0x1ae>
    7442:	4685                	li	a3,1
    7444:	8656                	mv	a2,s5
    7446:	85ca                	mv	a1,s2
    7448:	8526                	mv	a0,s1
    744a:	9982                	jalr	s3
    744c:	f1650fe3          	beq	a0,s6,736a <_printf_i+0x1ac>
    7450:	0a05                	addi	s4,s4,1
    7452:	445c                	lw	a5,12(s0)
    7454:	4732                	lw	a4,12(sp)
    7456:	8f99                	sub	a5,a5,a4
    7458:	fefa45e3          	blt	s4,a5,7442 <_printf_i+0x284>
    745c:	bfe9                	j	7436 <_printf_i+0x278>
    745e:	4a01                	li	s4,0
    7460:	01940a93          	addi	s5,s0,25
    7464:	5b7d                	li	s6,-1
    7466:	b7f5                	j	7452 <_printf_i+0x294>

00007468 <nanf>:
    7468:	00005797          	auipc	a5,0x5
    746c:	7c078793          	addi	a5,a5,1984 # cc28 <p05.3319+0x48>
    7470:	4388                	lw	a0,0(a5)
    7472:	8082                	ret

00007474 <__sread>:
    7474:	1141                	addi	sp,sp,-16
    7476:	c422                	sw	s0,8(sp)
    7478:	842e                	mv	s0,a1
    747a:	00e59583          	lh	a1,14(a1)
    747e:	c606                	sw	ra,12(sp)
    7480:	2c8d                	jal	76f2 <_read_r>
    7482:	00054963          	bltz	a0,7494 <__sread+0x20>
    7486:	487c                	lw	a5,84(s0)
    7488:	97aa                	add	a5,a5,a0
    748a:	c87c                	sw	a5,84(s0)
    748c:	40b2                	lw	ra,12(sp)
    748e:	4422                	lw	s0,8(sp)
    7490:	0141                	addi	sp,sp,16
    7492:	8082                	ret
    7494:	00c45783          	lhu	a5,12(s0)
    7498:	777d                	lui	a4,0xfffff
    749a:	177d                	addi	a4,a4,-1
    749c:	8ff9                	and	a5,a5,a4
    749e:	00f41623          	sh	a5,12(s0)
    74a2:	b7ed                	j	748c <__sread+0x18>

000074a4 <__swrite>:
    74a4:	00c5d783          	lhu	a5,12(a1)
    74a8:	1101                	addi	sp,sp,-32
    74aa:	cc22                	sw	s0,24(sp)
    74ac:	ca26                	sw	s1,20(sp)
    74ae:	c84a                	sw	s2,16(sp)
    74b0:	c64e                	sw	s3,12(sp)
    74b2:	ce06                	sw	ra,28(sp)
    74b4:	1007f793          	andi	a5,a5,256
    74b8:	84aa                	mv	s1,a0
    74ba:	842e                	mv	s0,a1
    74bc:	8932                	mv	s2,a2
    74be:	89b6                	mv	s3,a3
    74c0:	c791                	beqz	a5,74cc <__swrite+0x28>
    74c2:	00e59583          	lh	a1,14(a1)
    74c6:	4689                	li	a3,2
    74c8:	4601                	li	a2,0
    74ca:	2a3d                	jal	7608 <_lseek_r>
    74cc:	00c45783          	lhu	a5,12(s0)
    74d0:	777d                	lui	a4,0xfffff
    74d2:	177d                	addi	a4,a4,-1
    74d4:	8ff9                	and	a5,a5,a4
    74d6:	00f41623          	sh	a5,12(s0)
    74da:	00e41583          	lh	a1,14(s0)
    74de:	4462                	lw	s0,24(sp)
    74e0:	40f2                	lw	ra,28(sp)
    74e2:	86ce                	mv	a3,s3
    74e4:	864a                	mv	a2,s2
    74e6:	49b2                	lw	s3,12(sp)
    74e8:	4942                	lw	s2,16(sp)
    74ea:	8526                	mv	a0,s1
    74ec:	44d2                	lw	s1,20(sp)
    74ee:	6105                	addi	sp,sp,32
    74f0:	a0ad                	j	755a <_write_r>

000074f2 <__sseek>:
    74f2:	1141                	addi	sp,sp,-16
    74f4:	c422                	sw	s0,8(sp)
    74f6:	842e                	mv	s0,a1
    74f8:	00e59583          	lh	a1,14(a1)
    74fc:	c606                	sw	ra,12(sp)
    74fe:	2229                	jal	7608 <_lseek_r>
    7500:	57fd                	li	a5,-1
    7502:	00c45703          	lhu	a4,12(s0)
    7506:	00f51b63          	bne	a0,a5,751c <__sseek+0x2a>
    750a:	77fd                	lui	a5,0xfffff
    750c:	17fd                	addi	a5,a5,-1
    750e:	8ff9                	and	a5,a5,a4
    7510:	00f41623          	sh	a5,12(s0)
    7514:	40b2                	lw	ra,12(sp)
    7516:	4422                	lw	s0,8(sp)
    7518:	0141                	addi	sp,sp,16
    751a:	8082                	ret
    751c:	6785                	lui	a5,0x1
    751e:	8fd9                	or	a5,a5,a4
    7520:	00f41623          	sh	a5,12(s0)
    7524:	c868                	sw	a0,84(s0)
    7526:	b7fd                	j	7514 <__sseek+0x22>

00007528 <__sclose>:
    7528:	00e59583          	lh	a1,14(a1)
    752c:	a8b1                	j	7588 <_close_r>

0000752e <strncmp>:
    752e:	c605                	beqz	a2,7556 <strncmp+0x28>
    7530:	167d                	addi	a2,a2,-1
    7532:	4701                	li	a4,0
    7534:	00e507b3          	add	a5,a0,a4
    7538:	00e586b3          	add	a3,a1,a4
    753c:	0007c783          	lbu	a5,0(a5) # 1000 <LCD_Init+0x470>
    7540:	0006c683          	lbu	a3,0(a3)
    7544:	00d79663          	bne	a5,a3,7550 <strncmp+0x22>
    7548:	00c70463          	beq	a4,a2,7550 <strncmp+0x22>
    754c:	0705                	addi	a4,a4,1
    754e:	f3fd                	bnez	a5,7534 <strncmp+0x6>
    7550:	40d78533          	sub	a0,a5,a3
    7554:	8082                	ret
    7556:	4501                	li	a0,0
    7558:	8082                	ret

0000755a <_write_r>:
    755a:	1141                	addi	sp,sp,-16
    755c:	c422                	sw	s0,8(sp)
    755e:	842a                	mv	s0,a0
    7560:	852e                	mv	a0,a1
    7562:	85b2                	mv	a1,a2
    7564:	8636                	mv	a2,a3
    7566:	e801a223          	sw	zero,-380(gp) # 20000874 <errno>
    756a:	c606                	sw	ra,12(sp)
    756c:	879fc0ef          	jal	ra,3de4 <_write>
    7570:	57fd                	li	a5,-1
    7572:	00f51763          	bne	a0,a5,7580 <_write_r+0x26>
    7576:	e8418793          	addi	a5,gp,-380 # 20000874 <errno>
    757a:	439c                	lw	a5,0(a5)
    757c:	c391                	beqz	a5,7580 <_write_r+0x26>
    757e:	c01c                	sw	a5,0(s0)
    7580:	40b2                	lw	ra,12(sp)
    7582:	4422                	lw	s0,8(sp)
    7584:	0141                	addi	sp,sp,16
    7586:	8082                	ret

00007588 <_close_r>:
    7588:	1141                	addi	sp,sp,-16
    758a:	c422                	sw	s0,8(sp)
    758c:	842a                	mv	s0,a0
    758e:	852e                	mv	a0,a1
    7590:	e801a223          	sw	zero,-380(gp) # 20000874 <errno>
    7594:	c606                	sw	ra,12(sp)
    7596:	0c2020ef          	jal	ra,9658 <_close>
    759a:	57fd                	li	a5,-1
    759c:	00f51763          	bne	a0,a5,75aa <_close_r+0x22>
    75a0:	e8418793          	addi	a5,gp,-380 # 20000874 <errno>
    75a4:	439c                	lw	a5,0(a5)
    75a6:	c391                	beqz	a5,75aa <_close_r+0x22>
    75a8:	c01c                	sw	a5,0(s0)
    75aa:	40b2                	lw	ra,12(sp)
    75ac:	4422                	lw	s0,8(sp)
    75ae:	0141                	addi	sp,sp,16
    75b0:	8082                	ret

000075b2 <_fstat_r>:
    75b2:	1141                	addi	sp,sp,-16
    75b4:	c422                	sw	s0,8(sp)
    75b6:	842a                	mv	s0,a0
    75b8:	852e                	mv	a0,a1
    75ba:	85b2                	mv	a1,a2
    75bc:	e801a223          	sw	zero,-380(gp) # 20000874 <errno>
    75c0:	c606                	sw	ra,12(sp)
    75c2:	0a2020ef          	jal	ra,9664 <_fstat>
    75c6:	57fd                	li	a5,-1
    75c8:	00f51763          	bne	a0,a5,75d6 <_fstat_r+0x24>
    75cc:	e8418793          	addi	a5,gp,-380 # 20000874 <errno>
    75d0:	439c                	lw	a5,0(a5)
    75d2:	c391                	beqz	a5,75d6 <_fstat_r+0x24>
    75d4:	c01c                	sw	a5,0(s0)
    75d6:	40b2                	lw	ra,12(sp)
    75d8:	4422                	lw	s0,8(sp)
    75da:	0141                	addi	sp,sp,16
    75dc:	8082                	ret

000075de <_isatty_r>:
    75de:	1141                	addi	sp,sp,-16
    75e0:	c422                	sw	s0,8(sp)
    75e2:	842a                	mv	s0,a0
    75e4:	852e                	mv	a0,a1
    75e6:	e801a223          	sw	zero,-380(gp) # 20000874 <errno>
    75ea:	c606                	sw	ra,12(sp)
    75ec:	084020ef          	jal	ra,9670 <_isatty>
    75f0:	57fd                	li	a5,-1
    75f2:	00f51763          	bne	a0,a5,7600 <_isatty_r+0x22>
    75f6:	e8418793          	addi	a5,gp,-380 # 20000874 <errno>
    75fa:	439c                	lw	a5,0(a5)
    75fc:	c391                	beqz	a5,7600 <_isatty_r+0x22>
    75fe:	c01c                	sw	a5,0(s0)
    7600:	40b2                	lw	ra,12(sp)
    7602:	4422                	lw	s0,8(sp)
    7604:	0141                	addi	sp,sp,16
    7606:	8082                	ret

00007608 <_lseek_r>:
    7608:	1141                	addi	sp,sp,-16
    760a:	c422                	sw	s0,8(sp)
    760c:	842a                	mv	s0,a0
    760e:	852e                	mv	a0,a1
    7610:	85b2                	mv	a1,a2
    7612:	8636                	mv	a2,a3
    7614:	e801a223          	sw	zero,-380(gp) # 20000874 <errno>
    7618:	c606                	sw	ra,12(sp)
    761a:	062020ef          	jal	ra,967c <_lseek>
    761e:	57fd                	li	a5,-1
    7620:	00f51763          	bne	a0,a5,762e <_lseek_r+0x26>
    7624:	e8418793          	addi	a5,gp,-380 # 20000874 <errno>
    7628:	439c                	lw	a5,0(a5)
    762a:	c391                	beqz	a5,762e <_lseek_r+0x26>
    762c:	c01c                	sw	a5,0(s0)
    762e:	40b2                	lw	ra,12(sp)
    7630:	4422                	lw	s0,8(sp)
    7632:	0141                	addi	sp,sp,16
    7634:	8082                	ret

00007636 <memchr>:
    7636:	0ff5f593          	andi	a1,a1,255
    763a:	962a                	add	a2,a2,a0
    763c:	00c51463          	bne	a0,a2,7644 <memchr+0xe>
    7640:	4501                	li	a0,0
    7642:	8082                	ret
    7644:	00054783          	lbu	a5,0(a0)
    7648:	feb78de3          	beq	a5,a1,7642 <memchr+0xc>
    764c:	0505                	addi	a0,a0,1
    764e:	b7fd                	j	763c <memchr+0x6>

00007650 <memmove>:
    7650:	04a5f363          	bgeu	a1,a0,7696 <memmove+0x46>
    7654:	00c586b3          	add	a3,a1,a2
    7658:	02d57f63          	bgeu	a0,a3,7696 <memmove+0x46>
    765c:	fff64593          	not	a1,a2
    7660:	4781                	li	a5,0
    7662:	17fd                	addi	a5,a5,-1
    7664:	00f59363          	bne	a1,a5,766a <memmove+0x1a>
    7668:	8082                	ret
    766a:	00f68733          	add	a4,a3,a5
    766e:	00074803          	lbu	a6,0(a4) # fffff000 <_eusrstack+0xdfff7000>
    7672:	00c78733          	add	a4,a5,a2
    7676:	972a                	add	a4,a4,a0
    7678:	01070023          	sb	a6,0(a4)
    767c:	b7dd                	j	7662 <memmove+0x12>
    767e:	00f58733          	add	a4,a1,a5
    7682:	00074683          	lbu	a3,0(a4)
    7686:	00f50733          	add	a4,a0,a5
    768a:	0785                	addi	a5,a5,1
    768c:	00d70023          	sb	a3,0(a4)
    7690:	fef617e3          	bne	a2,a5,767e <memmove+0x2e>
    7694:	8082                	ret
    7696:	4781                	li	a5,0
    7698:	bfe5                	j	7690 <memmove+0x40>

0000769a <_realloc_r>:
    769a:	e581                	bnez	a1,76a2 <_realloc_r+0x8>
    769c:	85b2                	mv	a1,a2
    769e:	acbfc06f          	j	4168 <_malloc_r>
    76a2:	1101                	addi	sp,sp,-32
    76a4:	cc22                	sw	s0,24(sp)
    76a6:	ce06                	sw	ra,28(sp)
    76a8:	ca26                	sw	s1,20(sp)
    76aa:	c84a                	sw	s2,16(sp)
    76ac:	c64e                	sw	s3,12(sp)
    76ae:	8432                	mv	s0,a2
    76b0:	ee01                	bnez	a2,76c8 <_realloc_r+0x2e>
    76b2:	a0ffc0ef          	jal	ra,40c0 <_free_r>
    76b6:	4901                	li	s2,0
    76b8:	40f2                	lw	ra,28(sp)
    76ba:	4462                	lw	s0,24(sp)
    76bc:	854a                	mv	a0,s2
    76be:	44d2                	lw	s1,20(sp)
    76c0:	4942                	lw	s2,16(sp)
    76c2:	49b2                	lw	s3,12(sp)
    76c4:	6105                	addi	sp,sp,32
    76c6:	8082                	ret
    76c8:	84ae                	mv	s1,a1
    76ca:	89aa                	mv	s3,a0
    76cc:	2891                	jal	7720 <_malloc_usable_size_r>
    76ce:	8926                	mv	s2,s1
    76d0:	fe8574e3          	bgeu	a0,s0,76b8 <_realloc_r+0x1e>
    76d4:	85a2                	mv	a1,s0
    76d6:	854e                	mv	a0,s3
    76d8:	a91fc0ef          	jal	ra,4168 <_malloc_r>
    76dc:	892a                	mv	s2,a0
    76de:	dd69                	beqz	a0,76b8 <_realloc_r+0x1e>
    76e0:	85a6                	mv	a1,s1
    76e2:	8622                	mv	a2,s0
    76e4:	927fc0ef          	jal	ra,400a <memcpy>
    76e8:	85a6                	mv	a1,s1
    76ea:	854e                	mv	a0,s3
    76ec:	9d5fc0ef          	jal	ra,40c0 <_free_r>
    76f0:	b7e1                	j	76b8 <_realloc_r+0x1e>

000076f2 <_read_r>:
    76f2:	1141                	addi	sp,sp,-16
    76f4:	c422                	sw	s0,8(sp)
    76f6:	842a                	mv	s0,a0
    76f8:	852e                	mv	a0,a1
    76fa:	85b2                	mv	a1,a2
    76fc:	8636                	mv	a2,a3
    76fe:	e801a223          	sw	zero,-380(gp) # 20000874 <errno>
    7702:	c606                	sw	ra,12(sp)
    7704:	785010ef          	jal	ra,9688 <_read>
    7708:	57fd                	li	a5,-1
    770a:	00f51763          	bne	a0,a5,7718 <_read_r+0x26>
    770e:	e8418793          	addi	a5,gp,-380 # 20000874 <errno>
    7712:	439c                	lw	a5,0(a5)
    7714:	c391                	beqz	a5,7718 <_read_r+0x26>
    7716:	c01c                	sw	a5,0(s0)
    7718:	40b2                	lw	ra,12(sp)
    771a:	4422                	lw	s0,8(sp)
    771c:	0141                	addi	sp,sp,16
    771e:	8082                	ret

00007720 <_malloc_usable_size_r>:
    7720:	ffc5a783          	lw	a5,-4(a1)
    7724:	ffc78513          	addi	a0,a5,-4
    7728:	0007d563          	bgez	a5,7732 <_malloc_usable_size_r+0x12>
    772c:	95aa                	add	a1,a1,a0
    772e:	419c                	lw	a5,0(a1)
    7730:	953e                	add	a0,a0,a5
    7732:	8082                	ret

00007734 <__adddf3>:
    7734:	00100837          	lui	a6,0x100
    7738:	1101                	addi	sp,sp,-32
    773a:	187d                	addi	a6,a6,-1
    773c:	00b87733          	and	a4,a6,a1
    7740:	ca26                	sw	s1,20(sp)
    7742:	00d87833          	and	a6,a6,a3
    7746:	0145d493          	srli	s1,a1,0x14
    774a:	0146d313          	srli	t1,a3,0x14
    774e:	00371e13          	slli	t3,a4,0x3
    7752:	c64e                	sw	s3,12(sp)
    7754:	01d55713          	srli	a4,a0,0x1d
    7758:	080e                	slli	a6,a6,0x3
    775a:	01d65793          	srli	a5,a2,0x1d
    775e:	7ff4f493          	andi	s1,s1,2047
    7762:	7ff37313          	andi	t1,t1,2047
    7766:	ce06                	sw	ra,28(sp)
    7768:	cc22                	sw	s0,24(sp)
    776a:	c84a                	sw	s2,16(sp)
    776c:	01f5d993          	srli	s3,a1,0x1f
    7770:	01f6de93          	srli	t4,a3,0x1f
    7774:	01c76733          	or	a4,a4,t3
    7778:	00351f13          	slli	t5,a0,0x3
    777c:	0107e833          	or	a6,a5,a6
    7780:	00361f93          	slli	t6,a2,0x3
    7784:	40648e33          	sub	t3,s1,t1
    7788:	19d98063          	beq	s3,t4,7908 <__adddf3+0x1d4>
    778c:	13c05663          	blez	t3,78b8 <__adddf3+0x184>
    7790:	1c030463          	beqz	t1,7958 <__adddf3+0x224>
    7794:	008006b7          	lui	a3,0x800
    7798:	7ff00793          	li	a5,2047
    779c:	00d86833          	or	a6,a6,a3
    77a0:	36f48f63          	beq	s1,a5,7b1e <__adddf3+0x3ea>
    77a4:	03800793          	li	a5,56
    77a8:	35c7c063          	blt	a5,t3,7ae8 <__adddf3+0x3b4>
    77ac:	47fd                	li	a5,31
    77ae:	47c7cd63          	blt	a5,t3,7c28 <__adddf3+0x4f4>
    77b2:	02000513          	li	a0,32
    77b6:	41c50533          	sub	a0,a0,t3
    77ba:	01cfd7b3          	srl	a5,t6,t3
    77be:	00a816b3          	sll	a3,a6,a0
    77c2:	00af9933          	sll	s2,t6,a0
    77c6:	8edd                	or	a3,a3,a5
    77c8:	01203933          	snez	s2,s2
    77cc:	01c857b3          	srl	a5,a6,t3
    77d0:	0126e933          	or	s2,a3,s2
    77d4:	8f1d                	sub	a4,a4,a5
    77d6:	412f0933          	sub	s2,t5,s2
    77da:	012f37b3          	sltu	a5,t5,s2
    77de:	40f70633          	sub	a2,a4,a5
    77e2:	00861793          	slli	a5,a2,0x8
    77e6:	2407d463          	bgez	a5,7a2e <__adddf3+0x2fa>
    77ea:	00800737          	lui	a4,0x800
    77ee:	177d                	addi	a4,a4,-1
    77f0:	00e67433          	and	s0,a2,a4
    77f4:	2c040c63          	beqz	s0,7acc <__adddf3+0x398>
    77f8:	8522                	mv	a0,s0
    77fa:	5e9010ef          	jal	ra,95e2 <__clzsi2>
    77fe:	ff850713          	addi	a4,a0,-8
    7802:	02000793          	li	a5,32
    7806:	8f99                	sub	a5,a5,a4
    7808:	00f957b3          	srl	a5,s2,a5
    780c:	00e41633          	sll	a2,s0,a4
    7810:	8fd1                	or	a5,a5,a2
    7812:	00e91933          	sll	s2,s2,a4
    7816:	2a974163          	blt	a4,s1,7ab8 <__adddf3+0x384>
    781a:	40970533          	sub	a0,a4,s1
    781e:	00150613          	addi	a2,a0,1
    7822:	477d                	li	a4,31
    7824:	38c74d63          	blt	a4,a2,7bbe <__adddf3+0x48a>
    7828:	02000713          	li	a4,32
    782c:	8f11                	sub	a4,a4,a2
    782e:	00c956b3          	srl	a3,s2,a2
    7832:	00e91933          	sll	s2,s2,a4
    7836:	00e79733          	sll	a4,a5,a4
    783a:	8f55                	or	a4,a4,a3
    783c:	01203933          	snez	s2,s2
    7840:	01276933          	or	s2,a4,s2
    7844:	00c7d633          	srl	a2,a5,a2
    7848:	4481                	li	s1,0
    784a:	00797793          	andi	a5,s2,7
    784e:	cf81                	beqz	a5,7866 <__adddf3+0x132>
    7850:	00f97713          	andi	a4,s2,15
    7854:	4791                	li	a5,4
    7856:	00f70863          	beq	a4,a5,7866 <__adddf3+0x132>
    785a:	00490713          	addi	a4,s2,4
    785e:	01273933          	sltu	s2,a4,s2
    7862:	964a                	add	a2,a2,s2
    7864:	893a                	mv	s2,a4
    7866:	00861793          	slli	a5,a2,0x8
    786a:	1c07d663          	bgez	a5,7a36 <__adddf3+0x302>
    786e:	00148513          	addi	a0,s1,1
    7872:	7ff00793          	li	a5,2047
    7876:	85ce                	mv	a1,s3
    7878:	20f50463          	beq	a0,a5,7a80 <__adddf3+0x34c>
    787c:	ff8007b7          	lui	a5,0xff800
    7880:	17fd                	addi	a5,a5,-1
    7882:	8ff1                	and	a5,a5,a2
    7884:	01d79893          	slli	a7,a5,0x1d
    7888:	00395913          	srli	s2,s2,0x3
    788c:	07a6                	slli	a5,a5,0x9
    788e:	0128e8b3          	or	a7,a7,s2
    7892:	83b1                	srli	a5,a5,0xc
    7894:	7ff57513          	andi	a0,a0,2047
    7898:	00c79693          	slli	a3,a5,0xc
    789c:	0552                	slli	a0,a0,0x14
    789e:	40f2                	lw	ra,28(sp)
    78a0:	4462                	lw	s0,24(sp)
    78a2:	82b1                	srli	a3,a3,0xc
    78a4:	05fe                	slli	a1,a1,0x1f
    78a6:	8ec9                	or	a3,a3,a0
    78a8:	8ecd                	or	a3,a3,a1
    78aa:	44d2                	lw	s1,20(sp)
    78ac:	4942                	lw	s2,16(sp)
    78ae:	49b2                	lw	s3,12(sp)
    78b0:	8546                	mv	a0,a7
    78b2:	85b6                	mv	a1,a3
    78b4:	6105                	addi	sp,sp,32
    78b6:	8082                	ret
    78b8:	0a0e1e63          	bnez	t3,7974 <__adddf3+0x240>
    78bc:	00148313          	addi	t1,s1,1
    78c0:	7fe37313          	andi	t1,t1,2046
    78c4:	22031763          	bnez	t1,7af2 <__adddf3+0x3be>
    78c8:	01e767b3          	or	a5,a4,t5
    78cc:	01f868b3          	or	a7,a6,t6
    78d0:	1a049d63          	bnez	s1,7a8a <__adddf3+0x356>
    78d4:	40078763          	beqz	a5,7ce2 <__adddf3+0x5ae>
    78d8:	44088663          	beqz	a7,7d24 <__adddf3+0x5f0>
    78dc:	41ff0933          	sub	s2,t5,t6
    78e0:	410707b3          	sub	a5,a4,a6
    78e4:	012f3633          	sltu	a2,t5,s2
    78e8:	40c78633          	sub	a2,a5,a2
    78ec:	00861793          	slli	a5,a2,0x8
    78f0:	4c07d663          	bgez	a5,7dbc <__adddf3+0x688>
    78f4:	41ef8933          	sub	s2,t6,t5
    78f8:	40e807b3          	sub	a5,a6,a4
    78fc:	012fb633          	sltu	a2,t6,s2
    7900:	40c78633          	sub	a2,a5,a2
    7904:	89f6                	mv	s3,t4
    7906:	b791                	j	784a <__adddf3+0x116>
    7908:	0fc05063          	blez	t3,79e8 <__adddf3+0x2b4>
    790c:	0c030063          	beqz	t1,79cc <__adddf3+0x298>
    7910:	008006b7          	lui	a3,0x800
    7914:	7ff00793          	li	a5,2047
    7918:	00d86833          	or	a6,a6,a3
    791c:	3af48a63          	beq	s1,a5,7cd0 <__adddf3+0x59c>
    7920:	03800793          	li	a5,56
    7924:	13c7cb63          	blt	a5,t3,7a5a <__adddf3+0x326>
    7928:	47fd                	li	a5,31
    792a:	35c7df63          	bge	a5,t3,7c88 <__adddf3+0x554>
    792e:	fe0e0913          	addi	s2,t3,-32
    7932:	02000793          	li	a5,32
    7936:	012856b3          	srl	a3,a6,s2
    793a:	00fe0a63          	beq	t3,a5,794e <__adddf3+0x21a>
    793e:	04000913          	li	s2,64
    7942:	41c90933          	sub	s2,s2,t3
    7946:	01281933          	sll	s2,a6,s2
    794a:	012fefb3          	or	t6,t6,s2
    794e:	01f03933          	snez	s2,t6
    7952:	00d96933          	or	s2,s2,a3
    7956:	a231                	j	7a62 <__adddf3+0x32e>
    7958:	01f867b3          	or	a5,a6,t6
    795c:	1c078a63          	beqz	a5,7b30 <__adddf3+0x3fc>
    7960:	fffe0793          	addi	a5,t3,-1
    7964:	38078c63          	beqz	a5,7cfc <__adddf3+0x5c8>
    7968:	7ff00693          	li	a3,2047
    796c:	1ade0963          	beq	t3,a3,7b1e <__adddf3+0x3ea>
    7970:	8e3e                	mv	t3,a5
    7972:	bd0d                	j	77a4 <__adddf3+0x70>
    7974:	409305b3          	sub	a1,t1,s1
    7978:	22049163          	bnez	s1,7b9a <__adddf3+0x466>
    797c:	01e767b3          	or	a5,a4,t5
    7980:	32078763          	beqz	a5,7cae <__adddf3+0x57a>
    7984:	fff58793          	addi	a5,a1,-1
    7988:	44078163          	beqz	a5,7dca <__adddf3+0x696>
    798c:	7ff00693          	li	a3,2047
    7990:	20d58c63          	beq	a1,a3,7ba8 <__adddf3+0x474>
    7994:	85be                	mv	a1,a5
    7996:	03800793          	li	a5,56
    799a:	2ab7cc63          	blt	a5,a1,7c52 <__adddf3+0x51e>
    799e:	47fd                	li	a5,31
    79a0:	3cb7cf63          	blt	a5,a1,7d7e <__adddf3+0x64a>
    79a4:	02000793          	li	a5,32
    79a8:	8f8d                	sub	a5,a5,a1
    79aa:	00f71933          	sll	s2,a4,a5
    79ae:	00bf56b3          	srl	a3,t5,a1
    79b2:	00ff17b3          	sll	a5,t5,a5
    79b6:	00d96933          	or	s2,s2,a3
    79ba:	00f037b3          	snez	a5,a5
    79be:	00b75733          	srl	a4,a4,a1
    79c2:	00f96933          	or	s2,s2,a5
    79c6:	40e80833          	sub	a6,a6,a4
    79ca:	ac41                	j	7c5a <__adddf3+0x526>
    79cc:	01f867b3          	or	a5,a6,t6
    79d0:	34078063          	beqz	a5,7d10 <__adddf3+0x5dc>
    79d4:	fffe0793          	addi	a5,t3,-1
    79d8:	20078a63          	beqz	a5,7bec <__adddf3+0x4b8>
    79dc:	7ff00693          	li	a3,2047
    79e0:	2ede0863          	beq	t3,a3,7cd0 <__adddf3+0x59c>
    79e4:	8e3e                	mv	t3,a5
    79e6:	bf2d                	j	7920 <__adddf3+0x1ec>
    79e8:	140e1e63          	bnez	t3,7b44 <__adddf3+0x410>
    79ec:	00148693          	addi	a3,s1,1
    79f0:	7fe6f793          	andi	a5,a3,2046
    79f4:	34079163          	bnez	a5,7d36 <__adddf3+0x602>
    79f8:	01e767b3          	or	a5,a4,t5
    79fc:	2c049563          	bnez	s1,7cc6 <__adddf3+0x592>
    7a00:	3e078063          	beqz	a5,7de0 <__adddf3+0x6ac>
    7a04:	01f867b3          	or	a5,a6,t6
    7a08:	30078e63          	beqz	a5,7d24 <__adddf3+0x5f0>
    7a0c:	01ff0933          	add	s2,t5,t6
    7a10:	010707b3          	add	a5,a4,a6
    7a14:	01e93f33          	sltu	t5,s2,t5
    7a18:	01e78633          	add	a2,a5,t5
    7a1c:	00861793          	slli	a5,a2,0x8
    7a20:	0007d763          	bgez	a5,7a2e <__adddf3+0x2fa>
    7a24:	ff8007b7          	lui	a5,0xff800
    7a28:	17fd                	addi	a5,a5,-1
    7a2a:	8e7d                	and	a2,a2,a5
    7a2c:	4485                	li	s1,1
    7a2e:	00797793          	andi	a5,s2,7
    7a32:	e0079fe3          	bnez	a5,7850 <__adddf3+0x11c>
    7a36:	01d61793          	slli	a5,a2,0x1d
    7a3a:	00395893          	srli	a7,s2,0x3
    7a3e:	00f8e8b3          	or	a7,a7,a5
    7a42:	00365793          	srli	a5,a2,0x3
    7a46:	7ff00713          	li	a4,2047
    7a4a:	04e48d63          	beq	s1,a4,7aa4 <__adddf3+0x370>
    7a4e:	07b2                	slli	a5,a5,0xc
    7a50:	83b1                	srli	a5,a5,0xc
    7a52:	7ff4f513          	andi	a0,s1,2047
    7a56:	85ce                	mv	a1,s3
    7a58:	b581                	j	7898 <__adddf3+0x164>
    7a5a:	01f86933          	or	s2,a6,t6
    7a5e:	01203933          	snez	s2,s2
    7a62:	997a                	add	s2,s2,t5
    7a64:	01e937b3          	sltu	a5,s2,t5
    7a68:	00e78633          	add	a2,a5,a4
    7a6c:	00861793          	slli	a5,a2,0x8
    7a70:	fa07dfe3          	bgez	a5,7a2e <__adddf3+0x2fa>
    7a74:	0485                	addi	s1,s1,1
    7a76:	7ff00793          	li	a5,2047
    7a7a:	18f49663          	bne	s1,a5,7c06 <__adddf3+0x4d2>
    7a7e:	85ce                	mv	a1,s3
    7a80:	7ff00513          	li	a0,2047
    7a84:	4781                	li	a5,0
    7a86:	4881                	li	a7,0
    7a88:	bd01                	j	7898 <__adddf3+0x164>
    7a8a:	ebc1                	bnez	a5,7b1a <__adddf3+0x3e6>
    7a8c:	3a088463          	beqz	a7,7e34 <__adddf3+0x700>
    7a90:	00361693          	slli	a3,a2,0x3
    7a94:	01d81793          	slli	a5,a6,0x1d
    7a98:	828d                	srli	a3,a3,0x3
    7a9a:	00d7e8b3          	or	a7,a5,a3
    7a9e:	89f6                	mv	s3,t4
    7aa0:	00385793          	srli	a5,a6,0x3
    7aa4:	00f8e7b3          	or	a5,a7,a5
    7aa8:	dbf9                	beqz	a5,7a7e <__adddf3+0x34a>
    7aaa:	4581                	li	a1,0
    7aac:	7ff00513          	li	a0,2047
    7ab0:	000807b7          	lui	a5,0x80
    7ab4:	4881                	li	a7,0
    7ab6:	b3cd                	j	7898 <__adddf3+0x164>
    7ab8:	ff800637          	lui	a2,0xff800
    7abc:	167d                	addi	a2,a2,-1
    7abe:	8e7d                	and	a2,a2,a5
    7ac0:	00797793          	andi	a5,s2,7
    7ac4:	8c99                	sub	s1,s1,a4
    7ac6:	d80795e3          	bnez	a5,7850 <__adddf3+0x11c>
    7aca:	b7b5                	j	7a36 <__adddf3+0x302>
    7acc:	854a                	mv	a0,s2
    7ace:	315010ef          	jal	ra,95e2 <__clzsi2>
    7ad2:	01850713          	addi	a4,a0,24
    7ad6:	47fd                	li	a5,31
    7ad8:	d2e7d5e3          	bge	a5,a4,7802 <__adddf3+0xce>
    7adc:	ff850613          	addi	a2,a0,-8
    7ae0:	00c917b3          	sll	a5,s2,a2
    7ae4:	4901                	li	s2,0
    7ae6:	bb05                	j	7816 <__adddf3+0xe2>
    7ae8:	01f86933          	or	s2,a6,t6
    7aec:	01203933          	snez	s2,s2
    7af0:	b1dd                	j	77d6 <__adddf3+0xa2>
    7af2:	41ff0933          	sub	s2,t5,t6
    7af6:	41070633          	sub	a2,a4,a6
    7afa:	012f3433          	sltu	s0,t5,s2
    7afe:	40860433          	sub	s0,a2,s0
    7b02:	00841793          	slli	a5,s0,0x8
    7b06:	2407cd63          	bltz	a5,7d60 <__adddf3+0x62c>
    7b0a:	008968b3          	or	a7,s2,s0
    7b0e:	ce0893e3          	bnez	a7,77f4 <__adddf3+0xc0>
    7b12:	4781                	li	a5,0
    7b14:	4981                	li	s3,0
    7b16:	4481                	li	s1,0
    7b18:	bf1d                	j	7a4e <__adddf3+0x31a>
    7b1a:	f80898e3          	bnez	a7,7aaa <__adddf3+0x376>
    7b1e:	050e                	slli	a0,a0,0x3
    7b20:	01d71793          	slli	a5,a4,0x1d
    7b24:	810d                	srli	a0,a0,0x3
    7b26:	00a7e8b3          	or	a7,a5,a0
    7b2a:	00375793          	srli	a5,a4,0x3
    7b2e:	bf9d                	j	7aa4 <__adddf3+0x370>
    7b30:	050e                	slli	a0,a0,0x3
    7b32:	01d71793          	slli	a5,a4,0x1d
    7b36:	810d                	srli	a0,a0,0x3
    7b38:	00a7e8b3          	or	a7,a5,a0
    7b3c:	84f2                	mv	s1,t3
    7b3e:	00375793          	srli	a5,a4,0x3
    7b42:	b711                	j	7a46 <__adddf3+0x312>
    7b44:	40930533          	sub	a0,t1,s1
    7b48:	12048263          	beqz	s1,7c6c <__adddf3+0x538>
    7b4c:	008006b7          	lui	a3,0x800
    7b50:	7ff00793          	li	a5,2047
    7b54:	8f55                	or	a4,a4,a3
    7b56:	2ef30d63          	beq	t1,a5,7e50 <__adddf3+0x71c>
    7b5a:	03800793          	li	a5,56
    7b5e:	20a7cb63          	blt	a5,a0,7d74 <__adddf3+0x640>
    7b62:	47fd                	li	a5,31
    7b64:	2aa7c363          	blt	a5,a0,7e0a <__adddf3+0x6d6>
    7b68:	02000793          	li	a5,32
    7b6c:	8f89                	sub	a5,a5,a0
    7b6e:	00f71933          	sll	s2,a4,a5
    7b72:	00af56b3          	srl	a3,t5,a0
    7b76:	00ff17b3          	sll	a5,t5,a5
    7b7a:	00d96933          	or	s2,s2,a3
    7b7e:	00f037b3          	snez	a5,a5
    7b82:	00a75733          	srl	a4,a4,a0
    7b86:	00f96933          	or	s2,s2,a5
    7b8a:	983a                	add	a6,a6,a4
    7b8c:	997e                	add	s2,s2,t6
    7b8e:	01f937b3          	sltu	a5,s2,t6
    7b92:	01078633          	add	a2,a5,a6
    7b96:	849a                	mv	s1,t1
    7b98:	bdd1                	j	7a6c <__adddf3+0x338>
    7b9a:	008006b7          	lui	a3,0x800
    7b9e:	7ff00793          	li	a5,2047
    7ba2:	8f55                	or	a4,a4,a3
    7ba4:	def319e3          	bne	t1,a5,7996 <__adddf3+0x262>
    7ba8:	00361793          	slli	a5,a2,0x3
    7bac:	838d                	srli	a5,a5,0x3
    7bae:	01d81893          	slli	a7,a6,0x1d
    7bb2:	0117e8b3          	or	a7,a5,a7
    7bb6:	89f6                	mv	s3,t4
    7bb8:	00385793          	srli	a5,a6,0x3
    7bbc:	b5e5                	j	7aa4 <__adddf3+0x370>
    7bbe:	fe150713          	addi	a4,a0,-31
    7bc2:	02000693          	li	a3,32
    7bc6:	00e7d733          	srl	a4,a5,a4
    7bca:	00d60a63          	beq	a2,a3,7bde <__adddf3+0x4aa>
    7bce:	04000693          	li	a3,64
    7bd2:	40c68633          	sub	a2,a3,a2
    7bd6:	00c79633          	sll	a2,a5,a2
    7bda:	00c96933          	or	s2,s2,a2
    7bde:	01203933          	snez	s2,s2
    7be2:	00e96933          	or	s2,s2,a4
    7be6:	4601                	li	a2,0
    7be8:	4481                	li	s1,0
    7bea:	b591                	j	7a2e <__adddf3+0x2fa>
    7bec:	01ff0933          	add	s2,t5,t6
    7bf0:	010707b3          	add	a5,a4,a6
    7bf4:	01e93633          	sltu	a2,s2,t5
    7bf8:	963e                	add	a2,a2,a5
    7bfa:	00861793          	slli	a5,a2,0x8
    7bfe:	4485                	li	s1,1
    7c00:	e207d7e3          	bgez	a5,7a2e <__adddf3+0x2fa>
    7c04:	4489                	li	s1,2
    7c06:	ff8007b7          	lui	a5,0xff800
    7c0a:	17fd                	addi	a5,a5,-1
    7c0c:	8ff1                	and	a5,a5,a2
    7c0e:	00195713          	srli	a4,s2,0x1
    7c12:	00197913          	andi	s2,s2,1
    7c16:	01276933          	or	s2,a4,s2
    7c1a:	01f79893          	slli	a7,a5,0x1f
    7c1e:	0128e933          	or	s2,a7,s2
    7c22:	0017d613          	srli	a2,a5,0x1
    7c26:	b115                	j	784a <__adddf3+0x116>
    7c28:	fe0e0913          	addi	s2,t3,-32
    7c2c:	02000793          	li	a5,32
    7c30:	012856b3          	srl	a3,a6,s2
    7c34:	00fe0a63          	beq	t3,a5,7c48 <__adddf3+0x514>
    7c38:	04000913          	li	s2,64
    7c3c:	41c90933          	sub	s2,s2,t3
    7c40:	01281933          	sll	s2,a6,s2
    7c44:	012fefb3          	or	t6,t6,s2
    7c48:	01f03933          	snez	s2,t6
    7c4c:	00d96933          	or	s2,s2,a3
    7c50:	b659                	j	77d6 <__adddf3+0xa2>
    7c52:	01e76933          	or	s2,a4,t5
    7c56:	01203933          	snez	s2,s2
    7c5a:	412f8933          	sub	s2,t6,s2
    7c5e:	012fb7b3          	sltu	a5,t6,s2
    7c62:	40f80633          	sub	a2,a6,a5
    7c66:	849a                	mv	s1,t1
    7c68:	89f6                	mv	s3,t4
    7c6a:	bea5                	j	77e2 <__adddf3+0xae>
    7c6c:	01e767b3          	or	a5,a4,t5
    7c70:	18078263          	beqz	a5,7df4 <__adddf3+0x6c0>
    7c74:	fff50793          	addi	a5,a0,-1
    7c78:	1c078463          	beqz	a5,7e40 <__adddf3+0x70c>
    7c7c:	7ff00693          	li	a3,2047
    7c80:	12d50463          	beq	a0,a3,7da8 <__adddf3+0x674>
    7c84:	853e                	mv	a0,a5
    7c86:	bdd1                	j	7b5a <__adddf3+0x426>
    7c88:	02000793          	li	a5,32
    7c8c:	41c787b3          	sub	a5,a5,t3
    7c90:	00f816b3          	sll	a3,a6,a5
    7c94:	00ff9933          	sll	s2,t6,a5
    7c98:	01cfd633          	srl	a2,t6,t3
    7c9c:	8ed1                	or	a3,a3,a2
    7c9e:	01203933          	snez	s2,s2
    7ca2:	01c857b3          	srl	a5,a6,t3
    7ca6:	0126e933          	or	s2,a3,s2
    7caa:	973e                	add	a4,a4,a5
    7cac:	bb5d                	j	7a62 <__adddf3+0x32e>
    7cae:	00361793          	slli	a5,a2,0x3
    7cb2:	838d                	srli	a5,a5,0x3
    7cb4:	01d81893          	slli	a7,a6,0x1d
    7cb8:	0117e8b3          	or	a7,a5,a7
    7cbc:	84ae                	mv	s1,a1
    7cbe:	00385793          	srli	a5,a6,0x3
    7cc2:	89f6                	mv	s3,t4
    7cc4:	b349                	j	7a46 <__adddf3+0x312>
    7cc6:	c3ed                	beqz	a5,7da8 <__adddf3+0x674>
    7cc8:	01f86933          	or	s2,a6,t6
    7ccc:	dc091fe3          	bnez	s2,7aaa <__adddf3+0x376>
    7cd0:	050e                	slli	a0,a0,0x3
    7cd2:	01d71793          	slli	a5,a4,0x1d
    7cd6:	810d                	srli	a0,a0,0x3
    7cd8:	00f568b3          	or	a7,a0,a5
    7cdc:	00375793          	srli	a5,a4,0x3
    7ce0:	b3d1                	j	7aa4 <__adddf3+0x370>
    7ce2:	0e088163          	beqz	a7,7dc4 <__adddf3+0x690>
    7ce6:	00361693          	slli	a3,a2,0x3
    7cea:	01d81793          	slli	a5,a6,0x1d
    7cee:	828d                	srli	a3,a3,0x3
    7cf0:	00d7e8b3          	or	a7,a5,a3
    7cf4:	89f6                	mv	s3,t4
    7cf6:	00385793          	srli	a5,a6,0x3
    7cfa:	bb91                	j	7a4e <__adddf3+0x31a>
    7cfc:	41ff0933          	sub	s2,t5,t6
    7d00:	410707b3          	sub	a5,a4,a6
    7d04:	012f3f33          	sltu	t5,t5,s2
    7d08:	41e78633          	sub	a2,a5,t5
    7d0c:	4485                	li	s1,1
    7d0e:	bcd1                	j	77e2 <__adddf3+0xae>
    7d10:	050e                	slli	a0,a0,0x3
    7d12:	01d71793          	slli	a5,a4,0x1d
    7d16:	810d                	srli	a0,a0,0x3
    7d18:	00f568b3          	or	a7,a0,a5
    7d1c:	84f2                	mv	s1,t3
    7d1e:	00375793          	srli	a5,a4,0x3
    7d22:	b315                	j	7a46 <__adddf3+0x312>
    7d24:	050e                	slli	a0,a0,0x3
    7d26:	01d71793          	slli	a5,a4,0x1d
    7d2a:	810d                	srli	a0,a0,0x3
    7d2c:	00a7e8b3          	or	a7,a5,a0
    7d30:	00375793          	srli	a5,a4,0x3
    7d34:	bb29                	j	7a4e <__adddf3+0x31a>
    7d36:	7ff00793          	li	a5,2047
    7d3a:	d4f682e3          	beq	a3,a5,7a7e <__adddf3+0x34a>
    7d3e:	01ff0933          	add	s2,t5,t6
    7d42:	01e93633          	sltu	a2,s2,t5
    7d46:	010707b3          	add	a5,a4,a6
    7d4a:	97b2                	add	a5,a5,a2
    7d4c:	01f79893          	slli	a7,a5,0x1f
    7d50:	00195913          	srli	s2,s2,0x1
    7d54:	0128e933          	or	s2,a7,s2
    7d58:	0017d613          	srli	a2,a5,0x1
    7d5c:	84b6                	mv	s1,a3
    7d5e:	b9c1                	j	7a2e <__adddf3+0x2fa>
    7d60:	41ef8933          	sub	s2,t6,t5
    7d64:	40e80733          	sub	a4,a6,a4
    7d68:	012fb633          	sltu	a2,t6,s2
    7d6c:	40c70433          	sub	s0,a4,a2
    7d70:	89f6                	mv	s3,t4
    7d72:	b449                	j	77f4 <__adddf3+0xc0>
    7d74:	01e76933          	or	s2,a4,t5
    7d78:	01203933          	snez	s2,s2
    7d7c:	bd01                	j	7b8c <__adddf3+0x458>
    7d7e:	fe058793          	addi	a5,a1,-32
    7d82:	02000693          	li	a3,32
    7d86:	00f757b3          	srl	a5,a4,a5
    7d8a:	00d58a63          	beq	a1,a3,7d9e <__adddf3+0x66a>
    7d8e:	04000693          	li	a3,64
    7d92:	40b685b3          	sub	a1,a3,a1
    7d96:	00b71733          	sll	a4,a4,a1
    7d9a:	00ef6f33          	or	t5,t5,a4
    7d9e:	01e03933          	snez	s2,t5
    7da2:	00f96933          	or	s2,s2,a5
    7da6:	bd55                	j	7c5a <__adddf3+0x526>
    7da8:	00361793          	slli	a5,a2,0x3
    7dac:	838d                	srli	a5,a5,0x3
    7dae:	01d81893          	slli	a7,a6,0x1d
    7db2:	0117e8b3          	or	a7,a5,a7
    7db6:	00385793          	srli	a5,a6,0x3
    7dba:	b1ed                	j	7aa4 <__adddf3+0x370>
    7dbc:	00c968b3          	or	a7,s2,a2
    7dc0:	c60897e3          	bnez	a7,7a2e <__adddf3+0x2fa>
    7dc4:	4781                	li	a5,0
    7dc6:	4981                	li	s3,0
    7dc8:	b159                	j	7a4e <__adddf3+0x31a>
    7dca:	41ef8933          	sub	s2,t6,t5
    7dce:	40e807b3          	sub	a5,a6,a4
    7dd2:	012fb633          	sltu	a2,t6,s2
    7dd6:	40c78633          	sub	a2,a5,a2
    7dda:	89f6                	mv	s3,t4
    7ddc:	4485                	li	s1,1
    7dde:	b411                	j	77e2 <__adddf3+0xae>
    7de0:	00361693          	slli	a3,a2,0x3
    7de4:	01d81793          	slli	a5,a6,0x1d
    7de8:	828d                	srli	a3,a3,0x3
    7dea:	00d7e8b3          	or	a7,a5,a3
    7dee:	00385793          	srli	a5,a6,0x3
    7df2:	b9b1                	j	7a4e <__adddf3+0x31a>
    7df4:	00361693          	slli	a3,a2,0x3
    7df8:	01d81793          	slli	a5,a6,0x1d
    7dfc:	828d                	srli	a3,a3,0x3
    7dfe:	00d7e8b3          	or	a7,a5,a3
    7e02:	84aa                	mv	s1,a0
    7e04:	00385793          	srli	a5,a6,0x3
    7e08:	b93d                	j	7a46 <__adddf3+0x312>
    7e0a:	fe050793          	addi	a5,a0,-32
    7e0e:	02000693          	li	a3,32
    7e12:	00f757b3          	srl	a5,a4,a5
    7e16:	00d50a63          	beq	a0,a3,7e2a <__adddf3+0x6f6>
    7e1a:	04000693          	li	a3,64
    7e1e:	40a68533          	sub	a0,a3,a0
    7e22:	00a71733          	sll	a4,a4,a0
    7e26:	00ef6f33          	or	t5,t5,a4
    7e2a:	01e03933          	snez	s2,t5
    7e2e:	00f96933          	or	s2,s2,a5
    7e32:	bba9                	j	7b8c <__adddf3+0x458>
    7e34:	4581                	li	a1,0
    7e36:	7ff00513          	li	a0,2047
    7e3a:	000807b7          	lui	a5,0x80
    7e3e:	bca9                	j	7898 <__adddf3+0x164>
    7e40:	01ff0933          	add	s2,t5,t6
    7e44:	010707b3          	add	a5,a4,a6
    7e48:	01f93633          	sltu	a2,s2,t6
    7e4c:	963e                	add	a2,a2,a5
    7e4e:	b375                	j	7bfa <__adddf3+0x4c6>
    7e50:	00361693          	slli	a3,a2,0x3
    7e54:	01d81793          	slli	a5,a6,0x1d
    7e58:	828d                	srli	a3,a3,0x3
    7e5a:	00d7e8b3          	or	a7,a5,a3
    7e5e:	00385793          	srli	a5,a6,0x3
    7e62:	b189                	j	7aa4 <__adddf3+0x370>

00007e64 <__divdf3>:
    7e64:	7139                	addi	sp,sp,-64
    7e66:	0145d793          	srli	a5,a1,0x14
    7e6a:	dc22                	sw	s0,56(sp)
    7e6c:	d84a                	sw	s2,48(sp)
    7e6e:	d256                	sw	s5,36(sp)
    7e70:	892a                	mv	s2,a0
    7e72:	00c59413          	slli	s0,a1,0xc
    7e76:	de06                	sw	ra,60(sp)
    7e78:	da26                	sw	s1,52(sp)
    7e7a:	d64e                	sw	s3,44(sp)
    7e7c:	d452                	sw	s4,40(sp)
    7e7e:	d05a                	sw	s6,32(sp)
    7e80:	ce5e                	sw	s7,28(sp)
    7e82:	7ff7f513          	andi	a0,a5,2047
    7e86:	8031                	srli	s0,s0,0xc
    7e88:	01f5da93          	srli	s5,a1,0x1f
    7e8c:	10050b63          	beqz	a0,7fa2 <__divdf3+0x13e>
    7e90:	7ff00793          	li	a5,2047
    7e94:	14f50b63          	beq	a0,a5,7fea <__divdf3+0x186>
    7e98:	01d95a13          	srli	s4,s2,0x1d
    7e9c:	040e                	slli	s0,s0,0x3
    7e9e:	008a6433          	or	s0,s4,s0
    7ea2:	00800a37          	lui	s4,0x800
    7ea6:	01446a33          	or	s4,s0,s4
    7eaa:	00391b13          	slli	s6,s2,0x3
    7eae:	c0150493          	addi	s1,a0,-1023
    7eb2:	4401                	li	s0,0
    7eb4:	4b81                	li	s7,0
    7eb6:	0146d813          	srli	a6,a3,0x14
    7eba:	00c69913          	slli	s2,a3,0xc
    7ebe:	7ff87813          	andi	a6,a6,2047
    7ec2:	88b2                	mv	a7,a2
    7ec4:	00c95913          	srli	s2,s2,0xc
    7ec8:	01f6d993          	srli	s3,a3,0x1f
    7ecc:	08080e63          	beqz	a6,7f68 <__divdf3+0x104>
    7ed0:	7ff00793          	li	a5,2047
    7ed4:	04f80063          	beq	a6,a5,7f14 <__divdf3+0xb0>
    7ed8:	01d65713          	srli	a4,a2,0x1d
    7edc:	090e                	slli	s2,s2,0x3
    7ede:	01276933          	or	s2,a4,s2
    7ee2:	c0180813          	addi	a6,a6,-1023 # ffc01 <_data_lma+0xf2e55>
    7ee6:	008007b7          	lui	a5,0x800
    7eea:	00f96733          	or	a4,s2,a5
    7eee:	00361893          	slli	a7,a2,0x3
    7ef2:	410484b3          	sub	s1,s1,a6
    7ef6:	4581                	li	a1,0
    7ef8:	47bd                	li	a5,15
    7efa:	013ac833          	xor	a6,s5,s3
    7efe:	1a87e463          	bltu	a5,s0,80a6 <__divdf3+0x242>
    7f02:	00005797          	auipc	a5,0x5
    7f06:	d2a78793          	addi	a5,a5,-726 # cc2c <p05.3319+0x4c>
    7f0a:	040a                	slli	s0,s0,0x2
    7f0c:	943e                	add	s0,s0,a5
    7f0e:	4010                	lw	a2,0(s0)
    7f10:	963e                	add	a2,a2,a5
    7f12:	8602                	jr	a2
    7f14:	00c96733          	or	a4,s2,a2
    7f18:	80148493          	addi	s1,s1,-2047
    7f1c:	10071263          	bnez	a4,8020 <__divdf3+0x1bc>
    7f20:	00246413          	ori	s0,s0,2
    7f24:	4881                	li	a7,0
    7f26:	4589                	li	a1,2
    7f28:	bfc1                	j	7ef8 <__divdf3+0x94>
    7f2a:	7ff00613          	li	a2,2047
    7f2e:	4781                	li	a5,0
    7f30:	4701                	li	a4,0
    7f32:	07b2                	slli	a5,a5,0xc
    7f34:	50f2                	lw	ra,60(sp)
    7f36:	5462                	lw	s0,56(sp)
    7f38:	0652                	slli	a2,a2,0x14
    7f3a:	83b1                	srli	a5,a5,0xc
    7f3c:	087e                	slli	a6,a6,0x1f
    7f3e:	8fd1                	or	a5,a5,a2
    7f40:	0107e7b3          	or	a5,a5,a6
    7f44:	54d2                	lw	s1,52(sp)
    7f46:	5942                	lw	s2,48(sp)
    7f48:	59b2                	lw	s3,44(sp)
    7f4a:	5a22                	lw	s4,40(sp)
    7f4c:	5a92                	lw	s5,36(sp)
    7f4e:	5b02                	lw	s6,32(sp)
    7f50:	4bf2                	lw	s7,28(sp)
    7f52:	853a                	mv	a0,a4
    7f54:	85be                	mv	a1,a5
    7f56:	6121                	addi	sp,sp,64
    7f58:	8082                	ret
    7f5a:	4801                	li	a6,0
    7f5c:	7ff00613          	li	a2,2047
    7f60:	000807b7          	lui	a5,0x80
    7f64:	4701                	li	a4,0
    7f66:	b7f1                	j	7f32 <__divdf3+0xce>
    7f68:	00c96733          	or	a4,s2,a2
    7f6c:	c74d                	beqz	a4,8016 <__divdf3+0x1b2>
    7f6e:	30090863          	beqz	s2,827e <__divdf3+0x41a>
    7f72:	854a                	mv	a0,s2
    7f74:	c432                	sw	a2,8(sp)
    7f76:	66c010ef          	jal	ra,95e2 <__clzsi2>
    7f7a:	4622                	lw	a2,8(sp)
    7f7c:	ff550713          	addi	a4,a0,-11
    7f80:	47f5                	li	a5,29
    7f82:	ff850693          	addi	a3,a0,-8
    7f86:	8f99                	sub	a5,a5,a4
    7f88:	00d91933          	sll	s2,s2,a3
    7f8c:	00f657b3          	srl	a5,a2,a5
    7f90:	0127e733          	or	a4,a5,s2
    7f94:	00d618b3          	sll	a7,a2,a3
    7f98:	9526                	add	a0,a0,s1
    7f9a:	3f350493          	addi	s1,a0,1011
    7f9e:	4581                	li	a1,0
    7fa0:	bfa1                	j	7ef8 <__divdf3+0x94>
    7fa2:	01246a33          	or	s4,s0,s2
    7fa6:	060a0363          	beqz	s4,800c <__divdf3+0x1a8>
    7faa:	c636                	sw	a3,12(sp)
    7fac:	c432                	sw	a2,8(sp)
    7fae:	2a040663          	beqz	s0,825a <__divdf3+0x3f6>
    7fb2:	8522                	mv	a0,s0
    7fb4:	62e010ef          	jal	ra,95e2 <__clzsi2>
    7fb8:	4622                	lw	a2,8(sp)
    7fba:	46b2                	lw	a3,12(sp)
    7fbc:	84aa                	mv	s1,a0
    7fbe:	ff550713          	addi	a4,a0,-11
    7fc2:	4a75                	li	s4,29
    7fc4:	ff848b13          	addi	s6,s1,-8
    7fc8:	40ea0a33          	sub	s4,s4,a4
    7fcc:	01641433          	sll	s0,s0,s6
    7fd0:	01495a33          	srl	s4,s2,s4
    7fd4:	008a6a33          	or	s4,s4,s0
    7fd8:	01691b33          	sll	s6,s2,s6
    7fdc:	c0d00513          	li	a0,-1011
    7fe0:	409504b3          	sub	s1,a0,s1
    7fe4:	4401                	li	s0,0
    7fe6:	4b81                	li	s7,0
    7fe8:	b5f9                	j	7eb6 <__divdf3+0x52>
    7fea:	01246a33          	or	s4,s0,s2
    7fee:	000a1863          	bnez	s4,7ffe <__divdf3+0x19a>
    7ff2:	4421                	li	s0,8
    7ff4:	4b01                	li	s6,0
    7ff6:	7ff00493          	li	s1,2047
    7ffa:	4b89                	li	s7,2
    7ffc:	bd6d                	j	7eb6 <__divdf3+0x52>
    7ffe:	8a22                	mv	s4,s0
    8000:	8b4a                	mv	s6,s2
    8002:	4431                	li	s0,12
    8004:	7ff00493          	li	s1,2047
    8008:	4b8d                	li	s7,3
    800a:	b575                	j	7eb6 <__divdf3+0x52>
    800c:	4411                	li	s0,4
    800e:	4b01                	li	s6,0
    8010:	4481                	li	s1,0
    8012:	4b85                	li	s7,1
    8014:	b54d                	j	7eb6 <__divdf3+0x52>
    8016:	00146413          	ori	s0,s0,1
    801a:	4881                	li	a7,0
    801c:	4585                	li	a1,1
    801e:	bde9                	j	7ef8 <__divdf3+0x94>
    8020:	00346413          	ori	s0,s0,3
    8024:	874a                	mv	a4,s2
    8026:	458d                	li	a1,3
    8028:	bdc1                	j	7ef8 <__divdf3+0x94>
    802a:	2e050a63          	beqz	a0,831e <__divdf3+0x4ba>
    802e:	4785                	li	a5,1
    8030:	8f89                	sub	a5,a5,a0
    8032:	03800693          	li	a3,56
    8036:	32f6dd63          	bge	a3,a5,8370 <__divdf3+0x50c>
    803a:	4601                	li	a2,0
    803c:	4781                	li	a5,0
    803e:	4701                	li	a4,0
    8040:	bdcd                	j	7f32 <__divdf3+0xce>
    8042:	86ce                	mv	a3,s3
    8044:	4789                	li	a5,2
    8046:	3af58d63          	beq	a1,a5,8400 <__divdf3+0x59c>
    804a:	478d                	li	a5,3
    804c:	f0f587e3          	beq	a1,a5,7f5a <__divdf3+0xf6>
    8050:	4785                	li	a5,1
    8052:	8836                	mv	a6,a3
    8054:	fef583e3          	beq	a1,a5,803a <__divdf3+0x1d6>
    8058:	3ff48513          	addi	a0,s1,1023
    805c:	fca057e3          	blez	a0,802a <__divdf3+0x1c6>
    8060:	0078f793          	andi	a5,a7,7
    8064:	28079663          	bnez	a5,82f0 <__divdf3+0x48c>
    8068:	0038d693          	srli	a3,a7,0x3
    806c:	00771793          	slli	a5,a4,0x7
    8070:	0007d863          	bgez	a5,8080 <__divdf3+0x21c>
    8074:	ff0007b7          	lui	a5,0xff000
    8078:	17fd                	addi	a5,a5,-1
    807a:	8f7d                	and	a4,a4,a5
    807c:	40048513          	addi	a0,s1,1024
    8080:	7fe00793          	li	a5,2046
    8084:	eaa7c3e3          	blt	a5,a0,7f2a <__divdf3+0xc6>
    8088:	01d71613          	slli	a2,a4,0x1d
    808c:	00971793          	slli	a5,a4,0x9
    8090:	83b1                	srli	a5,a5,0xc
    8092:	00d66733          	or	a4,a2,a3
    8096:	7ff57613          	andi	a2,a0,2047
    809a:	bd61                	j	7f32 <__divdf3+0xce>
    809c:	86d6                	mv	a3,s5
    809e:	8752                	mv	a4,s4
    80a0:	88da                	mv	a7,s6
    80a2:	85de                	mv	a1,s7
    80a4:	b745                	j	8044 <__divdf3+0x1e0>
    80a6:	23476163          	bltu	a4,s4,82c8 <__divdf3+0x464>
    80aa:	20ea0d63          	beq	s4,a4,82c4 <__divdf3+0x460>
    80ae:	86da                	mv	a3,s6
    80b0:	14fd                	addi	s1,s1,-1
    80b2:	8452                	mv	s0,s4
    80b4:	4b01                	li	s6,0
    80b6:	00871793          	slli	a5,a4,0x8
    80ba:	0188d313          	srli	t1,a7,0x18
    80be:	00f36333          	or	t1,t1,a5
    80c2:	01035e93          	srli	t4,t1,0x10
    80c6:	03d457b3          	divu	a5,s0,t4
    80ca:	01031f13          	slli	t5,t1,0x10
    80ce:	010f5f13          	srli	t5,t5,0x10
    80d2:	0106d593          	srli	a1,a3,0x10
    80d6:	00889e13          	slli	t3,a7,0x8
    80da:	03d47433          	remu	s0,s0,t4
    80de:	02ff0733          	mul	a4,t5,a5
    80e2:	0442                	slli	s0,s0,0x10
    80e4:	8dc1                	or	a1,a1,s0
    80e6:	00e5fb63          	bgeu	a1,a4,80fc <__divdf3+0x298>
    80ea:	959a                	add	a1,a1,t1
    80ec:	fff78613          	addi	a2,a5,-1 # feffffff <_eusrstack+0xdeff7fff>
    80f0:	2665ee63          	bltu	a1,t1,836c <__divdf3+0x508>
    80f4:	26e5fc63          	bgeu	a1,a4,836c <__divdf3+0x508>
    80f8:	17f9                	addi	a5,a5,-2
    80fa:	959a                	add	a1,a1,t1
    80fc:	8d99                	sub	a1,a1,a4
    80fe:	03d5d733          	divu	a4,a1,t4
    8102:	06c2                	slli	a3,a3,0x10
    8104:	82c1                	srli	a3,a3,0x10
    8106:	03d5f5b3          	remu	a1,a1,t4
    810a:	02ef0633          	mul	a2,t5,a4
    810e:	05c2                	slli	a1,a1,0x10
    8110:	8dd5                	or	a1,a1,a3
    8112:	00c5fb63          	bgeu	a1,a2,8128 <__divdf3+0x2c4>
    8116:	959a                	add	a1,a1,t1
    8118:	fff70693          	addi	a3,a4,-1 # 7fffff <_data_lma+0x7f3253>
    811c:	2465e663          	bltu	a1,t1,8368 <__divdf3+0x504>
    8120:	24c5f463          	bgeu	a1,a2,8368 <__divdf3+0x504>
    8124:	1779                	addi	a4,a4,-2
    8126:	959a                	add	a1,a1,t1
    8128:	07c2                	slli	a5,a5,0x10
    812a:	6441                	lui	s0,0x10
    812c:	8f5d                	or	a4,a4,a5
    812e:	fff40793          	addi	a5,s0,-1 # ffff <_data_lma+0x3253>
    8132:	00f77533          	and	a0,a4,a5
    8136:	01075893          	srli	a7,a4,0x10
    813a:	010e5f93          	srli	t6,t3,0x10
    813e:	00fe77b3          	and	a5,t3,a5
    8142:	02f502b3          	mul	t0,a0,a5
    8146:	40c586b3          	sub	a3,a1,a2
    814a:	02f883b3          	mul	t2,a7,a5
    814e:	0102d593          	srli	a1,t0,0x10
    8152:	02af8633          	mul	a2,t6,a0
    8156:	961e                	add	a2,a2,t2
    8158:	962e                	add	a2,a2,a1
    815a:	03f88533          	mul	a0,a7,t6
    815e:	00767363          	bgeu	a2,t2,8164 <__divdf3+0x300>
    8162:	9522                	add	a0,a0,s0
    8164:	68c1                	lui	a7,0x10
    8166:	18fd                	addi	a7,a7,-1
    8168:	01065593          	srli	a1,a2,0x10
    816c:	01167633          	and	a2,a2,a7
    8170:	0642                	slli	a2,a2,0x10
    8172:	0112f8b3          	and	a7,t0,a7
    8176:	95aa                	add	a1,a1,a0
    8178:	9646                	add	a2,a2,a7
    817a:	12b6e663          	bltu	a3,a1,82a6 <__divdf3+0x442>
    817e:	12b68263          	beq	a3,a1,82a2 <__divdf3+0x43e>
    8182:	40cb0633          	sub	a2,s6,a2
    8186:	8e8d                	sub	a3,a3,a1
    8188:	00cb3b33          	sltu	s6,s6,a2
    818c:	41668b33          	sub	s6,a3,s6
    8190:	3ff48513          	addi	a0,s1,1023
    8194:	17630c63          	beq	t1,s6,830c <__divdf3+0x4a8>
    8198:	03db58b3          	divu	a7,s6,t4
    819c:	01065593          	srli	a1,a2,0x10
    81a0:	03db7b33          	remu	s6,s6,t4
    81a4:	031f06b3          	mul	a3,t5,a7
    81a8:	0b42                	slli	s6,s6,0x10
    81aa:	0165eb33          	or	s6,a1,s6
    81ae:	00db7b63          	bgeu	s6,a3,81c4 <__divdf3+0x360>
    81b2:	9b1a                	add	s6,s6,t1
    81b4:	fff88593          	addi	a1,a7,-1 # ffff <_data_lma+0x3253>
    81b8:	206b6d63          	bltu	s6,t1,83d2 <__divdf3+0x56e>
    81bc:	20db7b63          	bgeu	s6,a3,83d2 <__divdf3+0x56e>
    81c0:	18f9                	addi	a7,a7,-2
    81c2:	9b1a                	add	s6,s6,t1
    81c4:	40db0b33          	sub	s6,s6,a3
    81c8:	03db56b3          	divu	a3,s6,t4
    81cc:	0642                	slli	a2,a2,0x10
    81ce:	8241                	srli	a2,a2,0x10
    81d0:	03db7b33          	remu	s6,s6,t4
    81d4:	02df0f33          	mul	t5,t5,a3
    81d8:	0b42                	slli	s6,s6,0x10
    81da:	01666633          	or	a2,a2,s6
    81de:	01e67b63          	bgeu	a2,t5,81f4 <__divdf3+0x390>
    81e2:	961a                	add	a2,a2,t1
    81e4:	fff68593          	addi	a1,a3,-1 # 7fffff <_data_lma+0x7f3253>
    81e8:	1e666763          	bltu	a2,t1,83d6 <__divdf3+0x572>
    81ec:	1fe67563          	bgeu	a2,t5,83d6 <__divdf3+0x572>
    81f0:	16f9                	addi	a3,a3,-2
    81f2:	961a                	add	a2,a2,t1
    81f4:	08c2                	slli	a7,a7,0x10
    81f6:	00d8e8b3          	or	a7,a7,a3
    81fa:	01089593          	slli	a1,a7,0x10
    81fe:	0108d293          	srli	t0,a7,0x10
    8202:	81c1                	srli	a1,a1,0x10
    8204:	02f58eb3          	mul	t4,a1,a5
    8208:	41e60633          	sub	a2,a2,t5
    820c:	02bf85b3          	mul	a1,t6,a1
    8210:	010ed693          	srli	a3,t4,0x10
    8214:	02f287b3          	mul	a5,t0,a5
    8218:	95be                	add	a1,a1,a5
    821a:	96ae                	add	a3,a3,a1
    821c:	025f8fb3          	mul	t6,t6,t0
    8220:	00f6f463          	bgeu	a3,a5,8228 <__divdf3+0x3c4>
    8224:	67c1                	lui	a5,0x10
    8226:	9fbe                	add	t6,t6,a5
    8228:	65c1                	lui	a1,0x10
    822a:	15fd                	addi	a1,a1,-1
    822c:	0106d793          	srli	a5,a3,0x10
    8230:	8eed                	and	a3,a3,a1
    8232:	06c2                	slli	a3,a3,0x10
    8234:	00befeb3          	and	t4,t4,a1
    8238:	9fbe                	add	t6,t6,a5
    823a:	96f6                	add	a3,a3,t4
    823c:	09f67f63          	bgeu	a2,t6,82da <__divdf3+0x476>
    8240:	961a                	add	a2,a2,t1
    8242:	fff88793          	addi	a5,a7,-1
    8246:	1a666963          	bltu	a2,t1,83f8 <__divdf3+0x594>
    824a:	19f66863          	bltu	a2,t6,83da <__divdf3+0x576>
    824e:	1bf60f63          	beq	a2,t6,840c <__divdf3+0x5a8>
    8252:	88be                	mv	a7,a5
    8254:	0018e893          	ori	a7,a7,1
    8258:	b511                	j	805c <__divdf3+0x1f8>
    825a:	854a                	mv	a0,s2
    825c:	386010ef          	jal	ra,95e2 <__clzsi2>
    8260:	01550713          	addi	a4,a0,21
    8264:	45f1                	li	a1,28
    8266:	02050493          	addi	s1,a0,32
    826a:	4622                	lw	a2,8(sp)
    826c:	46b2                	lw	a3,12(sp)
    826e:	d4e5dae3          	bge	a1,a4,7fc2 <__divdf3+0x15e>
    8272:	ff850413          	addi	s0,a0,-8
    8276:	00891a33          	sll	s4,s2,s0
    827a:	4b01                	li	s6,0
    827c:	b385                	j	7fdc <__divdf3+0x178>
    827e:	8532                	mv	a0,a2
    8280:	c432                	sw	a2,8(sp)
    8282:	360010ef          	jal	ra,95e2 <__clzsi2>
    8286:	01550713          	addi	a4,a0,21
    828a:	46f1                	li	a3,28
    828c:	87aa                	mv	a5,a0
    828e:	4622                	lw	a2,8(sp)
    8290:	02050513          	addi	a0,a0,32
    8294:	cee6d6e3          	bge	a3,a4,7f80 <__divdf3+0x11c>
    8298:	17e1                	addi	a5,a5,-8
    829a:	00f61733          	sll	a4,a2,a5
    829e:	4881                	li	a7,0
    82a0:	b9e5                	j	7f98 <__divdf3+0x134>
    82a2:	eecb70e3          	bgeu	s6,a2,8182 <__divdf3+0x31e>
    82a6:	9b72                	add	s6,s6,t3
    82a8:	01cb3533          	sltu	a0,s6,t3
    82ac:	951a                	add	a0,a0,t1
    82ae:	96aa                	add	a3,a3,a0
    82b0:	fff70513          	addi	a0,a4,-1
    82b4:	02d37863          	bgeu	t1,a3,82e4 <__divdf3+0x480>
    82b8:	10b6e663          	bltu	a3,a1,83c4 <__divdf3+0x560>
    82bc:	10d58263          	beq	a1,a3,83c0 <__divdf3+0x55c>
    82c0:	872a                	mv	a4,a0
    82c2:	b5c1                	j	8182 <__divdf3+0x31e>
    82c4:	df1b65e3          	bltu	s6,a7,80ae <__divdf3+0x24a>
    82c8:	001b5593          	srli	a1,s6,0x1
    82cc:	01fa1693          	slli	a3,s4,0x1f
    82d0:	001a5413          	srli	s0,s4,0x1
    82d4:	8ecd                	or	a3,a3,a1
    82d6:	0b7e                	slli	s6,s6,0x1f
    82d8:	bbf9                	j	80b6 <__divdf3+0x252>
    82da:	f7f61de3          	bne	a2,t6,8254 <__divdf3+0x3f0>
    82de:	d6068fe3          	beqz	a3,805c <__divdf3+0x1f8>
    82e2:	bfb9                	j	8240 <__divdf3+0x3dc>
    82e4:	fcd31ee3          	bne	t1,a3,82c0 <__divdf3+0x45c>
    82e8:	fdcb78e3          	bgeu	s6,t3,82b8 <__divdf3+0x454>
    82ec:	872a                	mv	a4,a0
    82ee:	bd51                	j	8182 <__divdf3+0x31e>
    82f0:	00f8f793          	andi	a5,a7,15
    82f4:	4691                	li	a3,4
    82f6:	d6d789e3          	beq	a5,a3,8068 <__divdf3+0x204>
    82fa:	ffc8b793          	sltiu	a5,a7,-4
    82fe:	00488693          	addi	a3,a7,4
    8302:	0017c793          	xori	a5,a5,1
    8306:	828d                	srli	a3,a3,0x3
    8308:	973e                	add	a4,a4,a5
    830a:	b38d                	j	806c <__divdf3+0x208>
    830c:	4681                	li	a3,0
    830e:	4785                	li	a5,1
    8310:	fea04ce3          	bgtz	a0,8308 <__divdf3+0x4a4>
    8314:	58fd                	li	a7,-1
    8316:	d0051ce3          	bnez	a0,802e <__divdf3+0x1ca>
    831a:	c0100493          	li	s1,-1023
    831e:	4785                	li	a5,1
    8320:	41e48513          	addi	a0,s1,1054
    8324:	00a716b3          	sll	a3,a4,a0
    8328:	00f8d633          	srl	a2,a7,a5
    832c:	00a89533          	sll	a0,a7,a0
    8330:	8ed1                	or	a3,a3,a2
    8332:	00a03533          	snez	a0,a0
    8336:	8ec9                	or	a3,a3,a0
    8338:	0076f613          	andi	a2,a3,7
    833c:	00f75733          	srl	a4,a4,a5
    8340:	ce01                	beqz	a2,8358 <__divdf3+0x4f4>
    8342:	00f6f793          	andi	a5,a3,15
    8346:	4611                	li	a2,4
    8348:	00c78863          	beq	a5,a2,8358 <__divdf3+0x4f4>
    834c:	00468793          	addi	a5,a3,4
    8350:	00d7b6b3          	sltu	a3,a5,a3
    8354:	9736                	add	a4,a4,a3
    8356:	86be                	mv	a3,a5
    8358:	00871793          	slli	a5,a4,0x8
    835c:	0407d863          	bgez	a5,83ac <__divdf3+0x548>
    8360:	4605                	li	a2,1
    8362:	4781                	li	a5,0
    8364:	4701                	li	a4,0
    8366:	b6f1                	j	7f32 <__divdf3+0xce>
    8368:	8736                	mv	a4,a3
    836a:	bb7d                	j	8128 <__divdf3+0x2c4>
    836c:	87b2                	mv	a5,a2
    836e:	b379                	j	80fc <__divdf3+0x298>
    8370:	46fd                	li	a3,31
    8372:	faf6d7e3          	bge	a3,a5,8320 <__divdf3+0x4bc>
    8376:	5605                	li	a2,-31
    8378:	8e09                	sub	a2,a2,a0
    837a:	02000693          	li	a3,32
    837e:	00c75633          	srl	a2,a4,a2
    8382:	00d78863          	beq	a5,a3,8392 <__divdf3+0x52e>
    8386:	43e48793          	addi	a5,s1,1086
    838a:	00f717b3          	sll	a5,a4,a5
    838e:	00f8e8b3          	or	a7,a7,a5
    8392:	011036b3          	snez	a3,a7
    8396:	8ed1                	or	a3,a3,a2
    8398:	0076f613          	andi	a2,a3,7
    839c:	4781                	li	a5,0
    839e:	ce01                	beqz	a2,83b6 <__divdf3+0x552>
    83a0:	00f6f793          	andi	a5,a3,15
    83a4:	4611                	li	a2,4
    83a6:	4701                	li	a4,0
    83a8:	fac792e3          	bne	a5,a2,834c <__divdf3+0x4e8>
    83ac:	00971793          	slli	a5,a4,0x9
    83b0:	01d71613          	slli	a2,a4,0x1d
    83b4:	83b1                	srli	a5,a5,0xc
    83b6:	0036d713          	srli	a4,a3,0x3
    83ba:	8f51                	or	a4,a4,a2
    83bc:	4601                	li	a2,0
    83be:	be95                	j	7f32 <__divdf3+0xce>
    83c0:	f0cb70e3          	bgeu	s6,a2,82c0 <__divdf3+0x45c>
    83c4:	9b72                	add	s6,s6,t3
    83c6:	01cb3533          	sltu	a0,s6,t3
    83ca:	951a                	add	a0,a0,t1
    83cc:	1779                	addi	a4,a4,-2
    83ce:	96aa                	add	a3,a3,a0
    83d0:	bb4d                	j	8182 <__divdf3+0x31e>
    83d2:	88ae                	mv	a7,a1
    83d4:	bbc5                	j	81c4 <__divdf3+0x360>
    83d6:	86ae                	mv	a3,a1
    83d8:	bd31                	j	81f4 <__divdf3+0x390>
    83da:	001e1793          	slli	a5,t3,0x1
    83de:	01c7be33          	sltu	t3,a5,t3
    83e2:	9372                	add	t1,t1,t3
    83e4:	961a                	add	a2,a2,t1
    83e6:	18f9                	addi	a7,a7,-2
    83e8:	8e3e                	mv	t3,a5
    83ea:	e7f615e3          	bne	a2,t6,8254 <__divdf3+0x3f0>
    83ee:	c6de07e3          	beq	t3,a3,805c <__divdf3+0x1f8>
    83f2:	0018e893          	ori	a7,a7,1
    83f6:	b19d                	j	805c <__divdf3+0x1f8>
    83f8:	88be                	mv	a7,a5
    83fa:	fff60ae3          	beq	a2,t6,83ee <__divdf3+0x58a>
    83fe:	bd99                	j	8254 <__divdf3+0x3f0>
    8400:	8836                	mv	a6,a3
    8402:	7ff00613          	li	a2,2047
    8406:	4781                	li	a5,0
    8408:	4701                	li	a4,0
    840a:	b625                	j	7f32 <__divdf3+0xce>
    840c:	fcde67e3          	bltu	t3,a3,83da <__divdf3+0x576>
    8410:	88be                	mv	a7,a5
    8412:	fede10e3          	bne	t3,a3,83f2 <__divdf3+0x58e>
    8416:	b199                	j	805c <__divdf3+0x1f8>

00008418 <__eqdf2>:
    8418:	0145d713          	srli	a4,a1,0x14
    841c:	001007b7          	lui	a5,0x100
    8420:	17fd                	addi	a5,a5,-1
    8422:	0146d813          	srli	a6,a3,0x14
    8426:	7ff77713          	andi	a4,a4,2047
    842a:	7ff00893          	li	a7,2047
    842e:	00b7fe33          	and	t3,a5,a1
    8432:	8eaa                	mv	t4,a0
    8434:	8ff5                	and	a5,a5,a3
    8436:	81fd                	srli	a1,a1,0x1f
    8438:	8f32                	mv	t5,a2
    843a:	7ff87813          	andi	a6,a6,2047
    843e:	82fd                	srli	a3,a3,0x1f
    8440:	01170b63          	beq	a4,a7,8456 <__eqdf2+0x3e>
    8444:	4305                	li	t1,1
    8446:	01180663          	beq	a6,a7,8452 <__eqdf2+0x3a>
    844a:	01071463          	bne	a4,a6,8452 <__eqdf2+0x3a>
    844e:	00fe0d63          	beq	t3,a5,8468 <__eqdf2+0x50>
    8452:	851a                	mv	a0,t1
    8454:	8082                	ret
    8456:	00ae68b3          	or	a7,t3,a0
    845a:	4305                	li	t1,1
    845c:	fe089be3          	bnez	a7,8452 <__eqdf2+0x3a>
    8460:	fee819e3          	bne	a6,a4,8452 <__eqdf2+0x3a>
    8464:	8fd1                	or	a5,a5,a2
    8466:	f7f5                	bnez	a5,8452 <__eqdf2+0x3a>
    8468:	4305                	li	t1,1
    846a:	ffee94e3          	bne	t4,t5,8452 <__eqdf2+0x3a>
    846e:	4301                	li	t1,0
    8470:	fed581e3          	beq	a1,a3,8452 <__eqdf2+0x3a>
    8474:	4305                	li	t1,1
    8476:	ff71                	bnez	a4,8452 <__eqdf2+0x3a>
    8478:	00ae6533          	or	a0,t3,a0
    847c:	00a03333          	snez	t1,a0
    8480:	bfc9                	j	8452 <__eqdf2+0x3a>

00008482 <__gedf2>:
    8482:	0145d713          	srli	a4,a1,0x14
    8486:	001007b7          	lui	a5,0x100
    848a:	17fd                	addi	a5,a5,-1
    848c:	0146d813          	srli	a6,a3,0x14
    8490:	7ff77713          	andi	a4,a4,2047
    8494:	7ff00893          	li	a7,2047
    8498:	00b7f333          	and	t1,a5,a1
    849c:	8e2a                	mv	t3,a0
    849e:	8ff5                	and	a5,a5,a3
    84a0:	81fd                	srli	a1,a1,0x1f
    84a2:	8eb2                	mv	t4,a2
    84a4:	7ff87813          	andi	a6,a6,2047
    84a8:	82fd                	srli	a3,a3,0x1f
    84aa:	03170863          	beq	a4,a7,84da <__gedf2+0x58>
    84ae:	03180063          	beq	a6,a7,84ce <__gedf2+0x4c>
    84b2:	eb0d                	bnez	a4,84e4 <__gedf2+0x62>
    84b4:	00a368b3          	or	a7,t1,a0
    84b8:	00081463          	bnez	a6,84c0 <__gedf2+0x3e>
    84bc:	8e5d                	or	a2,a2,a5
    84be:	ca29                	beqz	a2,8510 <__gedf2+0x8e>
    84c0:	04088563          	beqz	a7,850a <__gedf2+0x88>
    84c4:	02d58863          	beq	a1,a3,84f4 <__gedf2+0x72>
    84c8:	4505                	li	a0,1
    84ca:	ed95                	bnez	a1,8506 <__gedf2+0x84>
    84cc:	8082                	ret
    84ce:	00c7e8b3          	or	a7,a5,a2
    84d2:	fe0880e3          	beqz	a7,84b2 <__gedf2+0x30>
    84d6:	5579                	li	a0,-2
    84d8:	8082                	ret
    84da:	00a36533          	or	a0,t1,a0
    84de:	fd65                	bnez	a0,84d6 <__gedf2+0x54>
    84e0:	02e80c63          	beq	a6,a4,8518 <__gedf2+0x96>
    84e4:	00081463          	bnez	a6,84ec <__gedf2+0x6a>
    84e8:	8e5d                	or	a2,a2,a5
    84ea:	de79                	beqz	a2,84c8 <__gedf2+0x46>
    84ec:	fcd59ee3          	bne	a1,a3,84c8 <__gedf2+0x46>
    84f0:	fce84ce3          	blt	a6,a4,84c8 <__gedf2+0x46>
    84f4:	01074863          	blt	a4,a6,8504 <__gedf2+0x82>
    84f8:	fc67e8e3          	bltu	a5,t1,84c8 <__gedf2+0x46>
    84fc:	02f30363          	beq	t1,a5,8522 <__gedf2+0xa0>
    8500:	00f37f63          	bgeu	t1,a5,851e <__gedf2+0x9c>
    8504:	e581                	bnez	a1,850c <__gedf2+0x8a>
    8506:	557d                	li	a0,-1
    8508:	8082                	ret
    850a:	def5                	beqz	a3,8506 <__gedf2+0x84>
    850c:	4505                	li	a0,1
    850e:	8082                	ret
    8510:	4501                	li	a0,0
    8512:	fa089be3          	bnez	a7,84c8 <__gedf2+0x46>
    8516:	8082                	ret
    8518:	8e5d                	or	a2,a2,a5
    851a:	da69                	beqz	a2,84ec <__gedf2+0x6a>
    851c:	bf6d                	j	84d6 <__gedf2+0x54>
    851e:	4501                	li	a0,0
    8520:	8082                	ret
    8522:	fbcee3e3          	bltu	t4,t3,84c8 <__gedf2+0x46>
    8526:	4501                	li	a0,0
    8528:	fbde72e3          	bgeu	t3,t4,84cc <__gedf2+0x4a>
    852c:	f1e5                	bnez	a1,850c <__gedf2+0x8a>
    852e:	bfe1                	j	8506 <__gedf2+0x84>

00008530 <__ledf2>:
    8530:	0145d713          	srli	a4,a1,0x14
    8534:	001007b7          	lui	a5,0x100
    8538:	17fd                	addi	a5,a5,-1
    853a:	0146d813          	srli	a6,a3,0x14
    853e:	7ff77713          	andi	a4,a4,2047
    8542:	7ff00893          	li	a7,2047
    8546:	00b7fe33          	and	t3,a5,a1
    854a:	8eaa                	mv	t4,a0
    854c:	8ff5                	and	a5,a5,a3
    854e:	81fd                	srli	a1,a1,0x1f
    8550:	8f32                	mv	t5,a2
    8552:	7ff87813          	andi	a6,a6,2047
    8556:	82fd                	srli	a3,a3,0x1f
    8558:	03170e63          	beq	a4,a7,8594 <__ledf2+0x64>
    855c:	01180d63          	beq	a6,a7,8576 <__ledf2+0x46>
    8560:	e329                	bnez	a4,85a2 <__ledf2+0x72>
    8562:	00ae68b3          	or	a7,t3,a0
    8566:	00081f63          	bnez	a6,8584 <__ledf2+0x54>
    856a:	8e5d                	or	a2,a2,a5
    856c:	ee01                	bnez	a2,8584 <__ledf2+0x54>
    856e:	4301                	li	t1,0
    8570:	04088c63          	beqz	a7,85c8 <__ledf2+0x98>
    8574:	a821                	j	858c <__ledf2+0x5c>
    8576:	00c7e8b3          	or	a7,a5,a2
    857a:	4309                	li	t1,2
    857c:	04089663          	bnez	a7,85c8 <__ledf2+0x98>
    8580:	d36d                	beqz	a4,8562 <__ledf2+0x32>
    8582:	a005                	j	85a2 <__ledf2+0x72>
    8584:	04088463          	beqz	a7,85cc <__ledf2+0x9c>
    8588:	02d58563          	beq	a1,a3,85b2 <__ledf2+0x82>
    858c:	4305                	li	t1,1
    858e:	cd8d                	beqz	a1,85c8 <__ledf2+0x98>
    8590:	537d                	li	t1,-1
    8592:	a81d                	j	85c8 <__ledf2+0x98>
    8594:	00ae68b3          	or	a7,t3,a0
    8598:	4309                	li	t1,2
    859a:	02089763          	bnez	a7,85c8 <__ledf2+0x98>
    859e:	02e80a63          	beq	a6,a4,85d2 <__ledf2+0xa2>
    85a2:	00081463          	bnez	a6,85aa <__ledf2+0x7a>
    85a6:	8e5d                	or	a2,a2,a5
    85a8:	d275                	beqz	a2,858c <__ledf2+0x5c>
    85aa:	fed591e3          	bne	a1,a3,858c <__ledf2+0x5c>
    85ae:	fce84fe3          	blt	a6,a4,858c <__ledf2+0x5c>
    85b2:	01074963          	blt	a4,a6,85c4 <__ledf2+0x94>
    85b6:	fdc7ebe3          	bltu	a5,t3,858c <__ledf2+0x5c>
    85ba:	00fe0f63          	beq	t3,a5,85d8 <__ledf2+0xa8>
    85be:	4301                	li	t1,0
    85c0:	00fe7463          	bgeu	t3,a5,85c8 <__ledf2+0x98>
    85c4:	d5f1                	beqz	a1,8590 <__ledf2+0x60>
    85c6:	4305                	li	t1,1
    85c8:	851a                	mv	a0,t1
    85ca:	8082                	ret
    85cc:	feed                	bnez	a3,85c6 <__ledf2+0x96>
    85ce:	537d                	li	t1,-1
    85d0:	bfe5                	j	85c8 <__ledf2+0x98>
    85d2:	8e5d                	or	a2,a2,a5
    85d4:	da79                	beqz	a2,85aa <__ledf2+0x7a>
    85d6:	bfcd                	j	85c8 <__ledf2+0x98>
    85d8:	fbdf6ae3          	bltu	t5,t4,858c <__ledf2+0x5c>
    85dc:	4301                	li	t1,0
    85de:	ffeef5e3          	bgeu	t4,t5,85c8 <__ledf2+0x98>
    85e2:	f1f5                	bnez	a1,85c6 <__ledf2+0x96>
    85e4:	b775                	j	8590 <__ledf2+0x60>

000085e6 <__muldf3>:
    85e6:	7139                	addi	sp,sp,-64
    85e8:	d84a                	sw	s2,48(sp)
    85ea:	0145d913          	srli	s2,a1,0x14
    85ee:	d64e                	sw	s3,44(sp)
    85f0:	d452                	sw	s4,40(sp)
    85f2:	d256                	sw	s5,36(sp)
    85f4:	00c59993          	slli	s3,a1,0xc
    85f8:	de06                	sw	ra,60(sp)
    85fa:	dc22                	sw	s0,56(sp)
    85fc:	da26                	sw	s1,52(sp)
    85fe:	d05a                	sw	s6,32(sp)
    8600:	ce5e                	sw	s7,28(sp)
    8602:	7ff97913          	andi	s2,s2,2047
    8606:	8a2a                	mv	s4,a0
    8608:	00c9d993          	srli	s3,s3,0xc
    860c:	01f5da93          	srli	s5,a1,0x1f
    8610:	0e090d63          	beqz	s2,870a <__muldf3+0x124>
    8614:	7ff00793          	li	a5,2047
    8618:	18f90663          	beq	s2,a5,87a4 <__muldf3+0x1be>
    861c:	01d55413          	srli	s0,a0,0x1d
    8620:	098e                	slli	s3,s3,0x3
    8622:	013469b3          	or	s3,s0,s3
    8626:	00800437          	lui	s0,0x800
    862a:	0089e433          	or	s0,s3,s0
    862e:	00351493          	slli	s1,a0,0x3
    8632:	c0190913          	addi	s2,s2,-1023
    8636:	4981                	li	s3,0
    8638:	4b81                	li	s7,0
    863a:	0146d713          	srli	a4,a3,0x14
    863e:	00c69a13          	slli	s4,a3,0xc
    8642:	7ff77713          	andi	a4,a4,2047
    8646:	85b2                	mv	a1,a2
    8648:	00ca5a13          	srli	s4,s4,0xc
    864c:	01f6db13          	srli	s6,a3,0x1f
    8650:	10070b63          	beqz	a4,8766 <__muldf3+0x180>
    8654:	7ff00793          	li	a5,2047
    8658:	04f70363          	beq	a4,a5,869e <__muldf3+0xb8>
    865c:	01d65793          	srli	a5,a2,0x1d
    8660:	0a0e                	slli	s4,s4,0x3
    8662:	0147ea33          	or	s4,a5,s4
    8666:	c0170713          	addi	a4,a4,-1023
    866a:	008007b7          	lui	a5,0x800
    866e:	00fa67b3          	or	a5,s4,a5
    8672:	00361593          	slli	a1,a2,0x3
    8676:	993a                	add	s2,s2,a4
    8678:	4881                	li	a7,0
    867a:	016ac733          	xor	a4,s5,s6
    867e:	46bd                	li	a3,15
    8680:	853a                	mv	a0,a4
    8682:	00190813          	addi	a6,s2,1
    8686:	1736e863          	bltu	a3,s3,87f6 <__muldf3+0x210>
    868a:	00004617          	auipc	a2,0x4
    868e:	5e260613          	addi	a2,a2,1506 # cc6c <p05.3319+0x8c>
    8692:	098a                	slli	s3,s3,0x2
    8694:	99b2                	add	s3,s3,a2
    8696:	0009a683          	lw	a3,0(s3)
    869a:	96b2                	add	a3,a3,a2
    869c:	8682                	jr	a3
    869e:	00ca67b3          	or	a5,s4,a2
    86a2:	7ff90913          	addi	s2,s2,2047
    86a6:	12079963          	bnez	a5,87d8 <__muldf3+0x1f2>
    86aa:	0029e993          	ori	s3,s3,2
    86ae:	4581                	li	a1,0
    86b0:	4889                	li	a7,2
    86b2:	b7e1                	j	867a <__muldf3+0x94>
    86b4:	4701                	li	a4,0
    86b6:	7ff00793          	li	a5,2047
    86ba:	00080437          	lui	s0,0x80
    86be:	4481                	li	s1,0
    86c0:	0432                	slli	s0,s0,0xc
    86c2:	07d2                	slli	a5,a5,0x14
    86c4:	8031                	srli	s0,s0,0xc
    86c6:	077e                	slli	a4,a4,0x1f
    86c8:	8c5d                	or	s0,s0,a5
    86ca:	8c59                	or	s0,s0,a4
    86cc:	85a2                	mv	a1,s0
    86ce:	50f2                	lw	ra,60(sp)
    86d0:	5462                	lw	s0,56(sp)
    86d2:	8526                	mv	a0,s1
    86d4:	5942                	lw	s2,48(sp)
    86d6:	54d2                	lw	s1,52(sp)
    86d8:	59b2                	lw	s3,44(sp)
    86da:	5a22                	lw	s4,40(sp)
    86dc:	5a92                	lw	s5,36(sp)
    86de:	5b02                	lw	s6,32(sp)
    86e0:	4bf2                	lw	s7,28(sp)
    86e2:	6121                	addi	sp,sp,64
    86e4:	8082                	ret
    86e6:	855a                	mv	a0,s6
    86e8:	843e                	mv	s0,a5
    86ea:	84ae                	mv	s1,a1
    86ec:	8bc6                	mv	s7,a7
    86ee:	4789                	li	a5,2
    86f0:	0efb8d63          	beq	s7,a5,87ea <__muldf3+0x204>
    86f4:	478d                	li	a5,3
    86f6:	fafb8fe3          	beq	s7,a5,86b4 <__muldf3+0xce>
    86fa:	4785                	li	a5,1
    86fc:	872a                	mv	a4,a0
    86fe:	38fb9e63          	bne	s7,a5,8a9a <__muldf3+0x4b4>
    8702:	4781                	li	a5,0
    8704:	4401                	li	s0,0
    8706:	4481                	li	s1,0
    8708:	bf65                	j	86c0 <__muldf3+0xda>
    870a:	00a9e433          	or	s0,s3,a0
    870e:	c061                	beqz	s0,87ce <__muldf3+0x1e8>
    8710:	c636                	sw	a3,12(sp)
    8712:	c432                	sw	a2,8(sp)
    8714:	2a098c63          	beqz	s3,89cc <__muldf3+0x3e6>
    8718:	854e                	mv	a0,s3
    871a:	6c9000ef          	jal	ra,95e2 <__clzsi2>
    871e:	4622                	lw	a2,8(sp)
    8720:	46b2                	lw	a3,12(sp)
    8722:	87aa                	mv	a5,a0
    8724:	ff550713          	addi	a4,a0,-11
    8728:	4475                	li	s0,29
    872a:	ff878493          	addi	s1,a5,-8 # 7ffff8 <_data_lma+0x7f324c>
    872e:	8c19                	sub	s0,s0,a4
    8730:	009999b3          	sll	s3,s3,s1
    8734:	008a5433          	srl	s0,s4,s0
    8738:	01346433          	or	s0,s0,s3
    873c:	009a14b3          	sll	s1,s4,s1
    8740:	0146d713          	srli	a4,a3,0x14
    8744:	c0d00913          	li	s2,-1011
    8748:	00c69a13          	slli	s4,a3,0xc
    874c:	7ff77713          	andi	a4,a4,2047
    8750:	40f90933          	sub	s2,s2,a5
    8754:	4981                	li	s3,0
    8756:	4b81                	li	s7,0
    8758:	85b2                	mv	a1,a2
    875a:	00ca5a13          	srli	s4,s4,0xc
    875e:	01f6db13          	srli	s6,a3,0x1f
    8762:	ee0719e3          	bnez	a4,8654 <__muldf3+0x6e>
    8766:	00ca67b3          	or	a5,s4,a2
    876a:	c7b1                	beqz	a5,87b6 <__muldf3+0x1d0>
    876c:	220a0f63          	beqz	s4,89aa <__muldf3+0x3c4>
    8770:	8552                	mv	a0,s4
    8772:	c432                	sw	a2,8(sp)
    8774:	66f000ef          	jal	ra,95e2 <__clzsi2>
    8778:	4622                	lw	a2,8(sp)
    877a:	872a                	mv	a4,a0
    877c:	ff550693          	addi	a3,a0,-11
    8780:	47f5                	li	a5,29
    8782:	ff870593          	addi	a1,a4,-8
    8786:	8f95                	sub	a5,a5,a3
    8788:	00ba1a33          	sll	s4,s4,a1
    878c:	00f657b3          	srl	a5,a2,a5
    8790:	0147e7b3          	or	a5,a5,s4
    8794:	00b615b3          	sll	a1,a2,a1
    8798:	40e90933          	sub	s2,s2,a4
    879c:	c0d90913          	addi	s2,s2,-1011
    87a0:	4881                	li	a7,0
    87a2:	bde1                	j	867a <__muldf3+0x94>
    87a4:	00a9e433          	or	s0,s3,a0
    87a8:	ec01                	bnez	s0,87c0 <__muldf3+0x1da>
    87aa:	49a1                	li	s3,8
    87ac:	4481                	li	s1,0
    87ae:	7ff00913          	li	s2,2047
    87b2:	4b89                	li	s7,2
    87b4:	b559                	j	863a <__muldf3+0x54>
    87b6:	0019e993          	ori	s3,s3,1
    87ba:	4581                	li	a1,0
    87bc:	4885                	li	a7,1
    87be:	bd75                	j	867a <__muldf3+0x94>
    87c0:	844e                	mv	s0,s3
    87c2:	84aa                	mv	s1,a0
    87c4:	49b1                	li	s3,12
    87c6:	7ff00913          	li	s2,2047
    87ca:	4b8d                	li	s7,3
    87cc:	b5bd                	j	863a <__muldf3+0x54>
    87ce:	4991                	li	s3,4
    87d0:	4481                	li	s1,0
    87d2:	4901                	li	s2,0
    87d4:	4b85                	li	s7,1
    87d6:	b595                	j	863a <__muldf3+0x54>
    87d8:	0039e993          	ori	s3,s3,3
    87dc:	87d2                	mv	a5,s4
    87de:	488d                	li	a7,3
    87e0:	bd69                	j	867a <__muldf3+0x94>
    87e2:	4789                	li	a5,2
    87e4:	8556                	mv	a0,s5
    87e6:	f0fb97e3          	bne	s7,a5,86f4 <__muldf3+0x10e>
    87ea:	872a                	mv	a4,a0
    87ec:	7ff00793          	li	a5,2047
    87f0:	4401                	li	s0,0
    87f2:	4481                	li	s1,0
    87f4:	b5f1                	j	86c0 <__muldf3+0xda>
    87f6:	6ec1                	lui	t4,0x10
    87f8:	fffe8613          	addi	a2,t4,-1 # ffff <_data_lma+0x3253>
    87fc:	0104d693          	srli	a3,s1,0x10
    8800:	0105de13          	srli	t3,a1,0x10
    8804:	8cf1                	and	s1,s1,a2
    8806:	8df1                	and	a1,a1,a2
    8808:	02958633          	mul	a2,a1,s1
    880c:	02b68333          	mul	t1,a3,a1
    8810:	01065893          	srli	a7,a2,0x10
    8814:	029e0533          	mul	a0,t3,s1
    8818:	951a                	add	a0,a0,t1
    881a:	98aa                	add	a7,a7,a0
    881c:	03c682b3          	mul	t0,a3,t3
    8820:	0068f363          	bgeu	a7,t1,8826 <__muldf3+0x240>
    8824:	92f6                	add	t0,t0,t4
    8826:	6fc1                	lui	t6,0x10
    8828:	ffff8313          	addi	t1,t6,-1 # ffff <_data_lma+0x3253>
    882c:	0067f533          	and	a0,a5,t1
    8830:	0107d393          	srli	t2,a5,0x10
    8834:	0068f7b3          	and	a5,a7,t1
    8838:	07c2                	slli	a5,a5,0x10
    883a:	00667333          	and	t1,a2,t1
    883e:	933e                	add	t1,t1,a5
    8840:	02950633          	mul	a2,a0,s1
    8844:	0108d893          	srli	a7,a7,0x10
    8848:	02a687b3          	mul	a5,a3,a0
    884c:	01065f13          	srli	t5,a2,0x10
    8850:	029384b3          	mul	s1,t2,s1
    8854:	94be                	add	s1,s1,a5
    8856:	94fa                	add	s1,s1,t5
    8858:	02768eb3          	mul	t4,a3,t2
    885c:	00f4f363          	bgeu	s1,a5,8862 <__muldf3+0x27c>
    8860:	9efe                	add	t4,t4,t6
    8862:	6a41                	lui	s4,0x10
    8864:	fffa0793          	addi	a5,s4,-1 # ffff <_data_lma+0x3253>
    8868:	01045f93          	srli	t6,s0,0x10
    886c:	00f476b3          	and	a3,s0,a5
    8870:	00f4f9b3          	and	s3,s1,a5
    8874:	8e7d                	and	a2,a2,a5
    8876:	80c1                	srli	s1,s1,0x10
    8878:	02d58433          	mul	s0,a1,a3
    887c:	09c2                	slli	s3,s3,0x10
    887e:	01d48f33          	add	t5,s1,t4
    8882:	99b2                	add	s3,s3,a2
    8884:	98ce                	add	a7,a7,s3
    8886:	02de07b3          	mul	a5,t3,a3
    888a:	01045e93          	srli	t4,s0,0x10
    888e:	02bf85b3          	mul	a1,t6,a1
    8892:	97ae                	add	a5,a5,a1
    8894:	9ebe                	add	t4,t4,a5
    8896:	03fe0e33          	mul	t3,t3,t6
    889a:	00bef363          	bgeu	t4,a1,88a0 <__muldf3+0x2ba>
    889e:	9e52                	add	t3,t3,s4
    88a0:	67c1                	lui	a5,0x10
    88a2:	fff78593          	addi	a1,a5,-1 # ffff <_data_lma+0x3253>
    88a6:	00bef633          	and	a2,t4,a1
    88aa:	8c6d                	and	s0,s0,a1
    88ac:	0642                	slli	a2,a2,0x10
    88ae:	9622                	add	a2,a2,s0
    88b0:	010ede93          	srli	t4,t4,0x10
    88b4:	02d505b3          	mul	a1,a0,a3
    88b8:	9e76                	add	t3,t3,t4
    88ba:	02af8533          	mul	a0,t6,a0
    88be:	0105d413          	srli	s0,a1,0x10
    88c2:	02d386b3          	mul	a3,t2,a3
    88c6:	96aa                	add	a3,a3,a0
    88c8:	96a2                	add	a3,a3,s0
    88ca:	03f38fb3          	mul	t6,t2,t6
    88ce:	00a6f363          	bgeu	a3,a0,88d4 <__muldf3+0x2ee>
    88d2:	9fbe                	add	t6,t6,a5
    88d4:	6541                	lui	a0,0x10
    88d6:	157d                	addi	a0,a0,-1
    88d8:	00a6f7b3          	and	a5,a3,a0
    88dc:	07c2                	slli	a5,a5,0x10
    88de:	8d6d                	and	a0,a0,a1
    88e0:	97aa                	add	a5,a5,a0
    88e2:	005885b3          	add	a1,a7,t0
    88e6:	0135b9b3          	sltu	s3,a1,s3
    88ea:	97fa                	add	a5,a5,t5
    88ec:	95b2                	add	a1,a1,a2
    88ee:	01378433          	add	s0,a5,s3
    88f2:	00c5b633          	sltu	a2,a1,a2
    88f6:	01c40eb3          	add	t4,s0,t3
    88fa:	00ce8533          	add	a0,t4,a2
    88fe:	01343433          	sltu	s0,s0,s3
    8902:	01e7b7b3          	sltu	a5,a5,t5
    8906:	8fc1                	or	a5,a5,s0
    8908:	01cebe33          	sltu	t3,t4,t3
    890c:	0106d413          	srli	s0,a3,0x10
    8910:	00c53633          	sltu	a2,a0,a2
    8914:	943e                	add	s0,s0,a5
    8916:	00ce6633          	or	a2,t3,a2
    891a:	00959493          	slli	s1,a1,0x9
    891e:	9432                	add	s0,s0,a2
    8920:	947e                	add	s0,s0,t6
    8922:	0064e4b3          	or	s1,s1,t1
    8926:	0426                	slli	s0,s0,0x9
    8928:	01755693          	srli	a3,a0,0x17
    892c:	009034b3          	snez	s1,s1
    8930:	81dd                	srli	a1,a1,0x17
    8932:	00951793          	slli	a5,a0,0x9
    8936:	8ccd                	or	s1,s1,a1
    8938:	8c55                	or	s0,s0,a3
    893a:	8cdd                	or	s1,s1,a5
    893c:	00741793          	slli	a5,s0,0x7
    8940:	0007db63          	bgez	a5,8956 <__muldf3+0x370>
    8944:	0014d793          	srli	a5,s1,0x1
    8948:	8885                	andi	s1,s1,1
    894a:	01f41693          	slli	a3,s0,0x1f
    894e:	8cdd                	or	s1,s1,a5
    8950:	8cd5                	or	s1,s1,a3
    8952:	8005                	srli	s0,s0,0x1
    8954:	8942                	mv	s2,a6
    8956:	3ff90793          	addi	a5,s2,1023
    895a:	08f05963          	blez	a5,89ec <__muldf3+0x406>
    895e:	0074f693          	andi	a3,s1,7
    8962:	ce81                	beqz	a3,897a <__muldf3+0x394>
    8964:	00f4f693          	andi	a3,s1,15
    8968:	4611                	li	a2,4
    896a:	00c68863          	beq	a3,a2,897a <__muldf3+0x394>
    896e:	00448693          	addi	a3,s1,4
    8972:	0096b4b3          	sltu	s1,a3,s1
    8976:	9426                	add	s0,s0,s1
    8978:	84b6                	mv	s1,a3
    897a:	00741693          	slli	a3,s0,0x7
    897e:	0006d863          	bgez	a3,898e <__muldf3+0x3a8>
    8982:	ff0007b7          	lui	a5,0xff000
    8986:	17fd                	addi	a5,a5,-1
    8988:	8c7d                	and	s0,s0,a5
    898a:	40090793          	addi	a5,s2,1024
    898e:	7fe00693          	li	a3,2046
    8992:	0ef6cf63          	blt	a3,a5,8a90 <__muldf3+0x4aa>
    8996:	0034d693          	srli	a3,s1,0x3
    899a:	01d41493          	slli	s1,s0,0x1d
    899e:	0426                	slli	s0,s0,0x9
    89a0:	8cd5                	or	s1,s1,a3
    89a2:	8031                	srli	s0,s0,0xc
    89a4:	7ff7f793          	andi	a5,a5,2047
    89a8:	bb21                	j	86c0 <__muldf3+0xda>
    89aa:	8532                	mv	a0,a2
    89ac:	c432                	sw	a2,8(sp)
    89ae:	435000ef          	jal	ra,95e2 <__clzsi2>
    89b2:	01550693          	addi	a3,a0,21 # 10015 <_data_lma+0x3269>
    89b6:	47f1                	li	a5,28
    89b8:	02050713          	addi	a4,a0,32
    89bc:	4622                	lw	a2,8(sp)
    89be:	dcd7d1e3          	bge	a5,a3,8780 <__muldf3+0x19a>
    89c2:	1561                	addi	a0,a0,-8
    89c4:	00a617b3          	sll	a5,a2,a0
    89c8:	4581                	li	a1,0
    89ca:	b3f9                	j	8798 <__muldf3+0x1b2>
    89cc:	417000ef          	jal	ra,95e2 <__clzsi2>
    89d0:	01550713          	addi	a4,a0,21
    89d4:	45f1                	li	a1,28
    89d6:	02050793          	addi	a5,a0,32
    89da:	4622                	lw	a2,8(sp)
    89dc:	46b2                	lw	a3,12(sp)
    89de:	d4e5d5e3          	bge	a1,a4,8728 <__muldf3+0x142>
    89e2:	1561                	addi	a0,a0,-8
    89e4:	00aa1433          	sll	s0,s4,a0
    89e8:	4481                	li	s1,0
    89ea:	bb99                	j	8740 <__muldf3+0x15a>
    89ec:	4685                	li	a3,1
    89ee:	8e9d                	sub	a3,a3,a5
    89f0:	e7b1                	bnez	a5,8a3c <__muldf3+0x456>
    89f2:	41e90913          	addi	s2,s2,1054
    89f6:	012497b3          	sll	a5,s1,s2
    89fa:	00d4d4b3          	srl	s1,s1,a3
    89fe:	01241933          	sll	s2,s0,s2
    8a02:	00f037b3          	snez	a5,a5
    8a06:	009964b3          	or	s1,s2,s1
    8a0a:	8cdd                	or	s1,s1,a5
    8a0c:	0074f793          	andi	a5,s1,7
    8a10:	00d456b3          	srl	a3,s0,a3
    8a14:	cf81                	beqz	a5,8a2c <__muldf3+0x446>
    8a16:	00f4f793          	andi	a5,s1,15
    8a1a:	4611                	li	a2,4
    8a1c:	00c78863          	beq	a5,a2,8a2c <__muldf3+0x446>
    8a20:	00448793          	addi	a5,s1,4
    8a24:	0097b4b3          	sltu	s1,a5,s1
    8a28:	96a6                	add	a3,a3,s1
    8a2a:	84be                	mv	s1,a5
    8a2c:	00869793          	slli	a5,a3,0x8
    8a30:	0407d863          	bgez	a5,8a80 <__muldf3+0x49a>
    8a34:	4785                	li	a5,1
    8a36:	4401                	li	s0,0
    8a38:	4481                	li	s1,0
    8a3a:	b159                	j	86c0 <__muldf3+0xda>
    8a3c:	03800613          	li	a2,56
    8a40:	ccd641e3          	blt	a2,a3,8702 <__muldf3+0x11c>
    8a44:	467d                	li	a2,31
    8a46:	fad656e3          	bge	a2,a3,89f2 <__muldf3+0x40c>
    8a4a:	5605                	li	a2,-31
    8a4c:	40f607b3          	sub	a5,a2,a5
    8a50:	02000593          	li	a1,32
    8a54:	00f45633          	srl	a2,s0,a5
    8a58:	00b68763          	beq	a3,a1,8a66 <__muldf3+0x480>
    8a5c:	43e90913          	addi	s2,s2,1086
    8a60:	012417b3          	sll	a5,s0,s2
    8a64:	8cdd                	or	s1,s1,a5
    8a66:	009034b3          	snez	s1,s1
    8a6a:	8cd1                	or	s1,s1,a2
    8a6c:	0074f693          	andi	a3,s1,7
    8a70:	4401                	li	s0,0
    8a72:	ca99                	beqz	a3,8a88 <__muldf3+0x4a2>
    8a74:	00f4f793          	andi	a5,s1,15
    8a78:	4611                	li	a2,4
    8a7a:	4681                	li	a3,0
    8a7c:	fac792e3          	bne	a5,a2,8a20 <__muldf3+0x43a>
    8a80:	00969413          	slli	s0,a3,0x9
    8a84:	8031                	srli	s0,s0,0xc
    8a86:	06f6                	slli	a3,a3,0x1d
    8a88:	808d                	srli	s1,s1,0x3
    8a8a:	8cd5                	or	s1,s1,a3
    8a8c:	4781                	li	a5,0
    8a8e:	b90d                	j	86c0 <__muldf3+0xda>
    8a90:	7ff00793          	li	a5,2047
    8a94:	4401                	li	s0,0
    8a96:	4481                	li	s1,0
    8a98:	b125                	j	86c0 <__muldf3+0xda>
    8a9a:	8942                	mv	s2,a6
    8a9c:	bd6d                	j	8956 <__muldf3+0x370>

00008a9e <__subdf3>:
    8a9e:	00100737          	lui	a4,0x100
    8aa2:	177d                	addi	a4,a4,-1
    8aa4:	1101                	addi	sp,sp,-32
    8aa6:	00b77333          	and	t1,a4,a1
    8aaa:	0146d893          	srli	a7,a3,0x14
    8aae:	8f75                	and	a4,a4,a3
    8ab0:	01d65e93          	srli	t4,a2,0x1d
    8ab4:	cc22                	sw	s0,24(sp)
    8ab6:	ca26                	sw	s1,20(sp)
    8ab8:	030e                	slli	t1,t1,0x3
    8aba:	0145d493          	srli	s1,a1,0x14
    8abe:	01d55793          	srli	a5,a0,0x1d
    8ac2:	070e                	slli	a4,a4,0x3
    8ac4:	ce06                	sw	ra,28(sp)
    8ac6:	c84a                	sw	s2,16(sp)
    8ac8:	c64e                	sw	s3,12(sp)
    8aca:	7ff8f893          	andi	a7,a7,2047
    8ace:	7ff00e13          	li	t3,2047
    8ad2:	00eee733          	or	a4,t4,a4
    8ad6:	7ff4f493          	andi	s1,s1,2047
    8ada:	01f5d413          	srli	s0,a1,0x1f
    8ade:	0067e333          	or	t1,a5,t1
    8ae2:	00351f13          	slli	t5,a0,0x3
    8ae6:	82fd                	srli	a3,a3,0x1f
    8ae8:	00361e93          	slli	t4,a2,0x3
    8aec:	19c88063          	beq	a7,t3,8c6c <__subdf3+0x1ce>
    8af0:	0016c693          	xori	a3,a3,1
    8af4:	411485b3          	sub	a1,s1,a7
    8af8:	12d40563          	beq	s0,a3,8c22 <__subdf3+0x184>
    8afc:	18b05163          	blez	a1,8c7e <__subdf3+0x1e0>
    8b00:	1a088b63          	beqz	a7,8cb6 <__subdf3+0x218>
    8b04:	008007b7          	lui	a5,0x800
    8b08:	8f5d                	or	a4,a4,a5
    8b0a:	59c48063          	beq	s1,t3,908a <__subdf3+0x5ec>
    8b0e:	03800793          	li	a5,56
    8b12:	34b7c363          	blt	a5,a1,8e58 <__subdf3+0x3ba>
    8b16:	47fd                	li	a5,31
    8b18:	48b7c463          	blt	a5,a1,8fa0 <__subdf3+0x502>
    8b1c:	02000793          	li	a5,32
    8b20:	8f8d                	sub	a5,a5,a1
    8b22:	00bed9b3          	srl	s3,t4,a1
    8b26:	00f71833          	sll	a6,a4,a5
    8b2a:	00fe9eb3          	sll	t4,t4,a5
    8b2e:	01386833          	or	a6,a6,s3
    8b32:	00b75733          	srl	a4,a4,a1
    8b36:	01d039b3          	snez	s3,t4
    8b3a:	01386833          	or	a6,a6,s3
    8b3e:	40e30333          	sub	t1,t1,a4
    8b42:	410f09b3          	sub	s3,t5,a6
    8b46:	013f37b3          	sltu	a5,t5,s3
    8b4a:	40f30633          	sub	a2,t1,a5
    8b4e:	00861793          	slli	a5,a2,0x8
    8b52:	2407d363          	bgez	a5,8d98 <__subdf3+0x2fa>
    8b56:	00800937          	lui	s2,0x800
    8b5a:	197d                	addi	s2,s2,-1
    8b5c:	01267933          	and	s2,a2,s2
    8b60:	2c090f63          	beqz	s2,8e3e <__subdf3+0x3a0>
    8b64:	854a                	mv	a0,s2
    8b66:	27d000ef          	jal	ra,95e2 <__clzsi2>
    8b6a:	ff850713          	addi	a4,a0,-8
    8b6e:	02000793          	li	a5,32
    8b72:	8f99                	sub	a5,a5,a4
    8b74:	00f9d7b3          	srl	a5,s3,a5
    8b78:	00e91633          	sll	a2,s2,a4
    8b7c:	8fd1                	or	a5,a5,a2
    8b7e:	00e999b3          	sll	s3,s3,a4
    8b82:	2a974463          	blt	a4,s1,8e2a <__subdf3+0x38c>
    8b86:	8f05                	sub	a4,a4,s1
    8b88:	00170613          	addi	a2,a4,1 # 100001 <_data_lma+0xf3255>
    8b8c:	46fd                	li	a3,31
    8b8e:	3ac6c463          	blt	a3,a2,8f36 <__subdf3+0x498>
    8b92:	02000713          	li	a4,32
    8b96:	8f11                	sub	a4,a4,a2
    8b98:	00c9d6b3          	srl	a3,s3,a2
    8b9c:	00e99833          	sll	a6,s3,a4
    8ba0:	00e79733          	sll	a4,a5,a4
    8ba4:	8f55                	or	a4,a4,a3
    8ba6:	01003833          	snez	a6,a6
    8baa:	010769b3          	or	s3,a4,a6
    8bae:	00c7d633          	srl	a2,a5,a2
    8bb2:	4481                	li	s1,0
    8bb4:	0079f793          	andi	a5,s3,7
    8bb8:	cf81                	beqz	a5,8bd0 <__subdf3+0x132>
    8bba:	00f9f693          	andi	a3,s3,15
    8bbe:	4791                	li	a5,4
    8bc0:	00f68863          	beq	a3,a5,8bd0 <__subdf3+0x132>
    8bc4:	00498693          	addi	a3,s3,4
    8bc8:	0136b833          	sltu	a6,a3,s3
    8bcc:	9642                	add	a2,a2,a6
    8bce:	89b6                	mv	s3,a3
    8bd0:	00861793          	slli	a5,a2,0x8
    8bd4:	1c07d663          	bgez	a5,8da0 <__subdf3+0x302>
    8bd8:	00148713          	addi	a4,s1,1
    8bdc:	7ff00793          	li	a5,2047
    8be0:	8805                	andi	s0,s0,1
    8be2:	20f70663          	beq	a4,a5,8dee <__subdf3+0x350>
    8be6:	ff8007b7          	lui	a5,0xff800
    8bea:	17fd                	addi	a5,a5,-1
    8bec:	8ff1                	and	a5,a5,a2
    8bee:	01d79813          	slli	a6,a5,0x1d
    8bf2:	0039d993          	srli	s3,s3,0x3
    8bf6:	07a6                	slli	a5,a5,0x9
    8bf8:	01386833          	or	a6,a6,s3
    8bfc:	83b1                	srli	a5,a5,0xc
    8bfe:	7ff77713          	andi	a4,a4,2047
    8c02:	00c79693          	slli	a3,a5,0xc
    8c06:	0752                	slli	a4,a4,0x14
    8c08:	82b1                	srli	a3,a3,0xc
    8c0a:	047e                	slli	s0,s0,0x1f
    8c0c:	8ed9                	or	a3,a3,a4
    8c0e:	8ec1                	or	a3,a3,s0
    8c10:	40f2                	lw	ra,28(sp)
    8c12:	4462                	lw	s0,24(sp)
    8c14:	44d2                	lw	s1,20(sp)
    8c16:	4942                	lw	s2,16(sp)
    8c18:	49b2                	lw	s3,12(sp)
    8c1a:	8542                	mv	a0,a6
    8c1c:	85b6                	mv	a1,a3
    8c1e:	6105                	addi	sp,sp,32
    8c20:	8082                	ret
    8c22:	0ab05663          	blez	a1,8cce <__subdf3+0x230>
    8c26:	12088a63          	beqz	a7,8d5a <__subdf3+0x2bc>
    8c2a:	008007b7          	lui	a5,0x800
    8c2e:	8f5d                	or	a4,a4,a5
    8c30:	2dc48663          	beq	s1,t3,8efc <__subdf3+0x45e>
    8c34:	03800793          	li	a5,56
    8c38:	18b7c763          	blt	a5,a1,8dc6 <__subdf3+0x328>
    8c3c:	47fd                	li	a5,31
    8c3e:	3cb7d163          	bge	a5,a1,9000 <__subdf3+0x562>
    8c42:	fe058813          	addi	a6,a1,-32 # ffe0 <_data_lma+0x3234>
    8c46:	02000793          	li	a5,32
    8c4a:	010759b3          	srl	s3,a4,a6
    8c4e:	00f58a63          	beq	a1,a5,8c62 <__subdf3+0x1c4>
    8c52:	04000793          	li	a5,64
    8c56:	40b785b3          	sub	a1,a5,a1
    8c5a:	00b71733          	sll	a4,a4,a1
    8c5e:	00eeeeb3          	or	t4,t4,a4
    8c62:	01d03833          	snez	a6,t4
    8c66:	01386833          	or	a6,a6,s3
    8c6a:	a295                	j	8dce <__subdf3+0x330>
    8c6c:	01d767b3          	or	a5,a4,t4
    8c70:	80148593          	addi	a1,s1,-2047
    8c74:	e399                	bnez	a5,8c7a <__subdf3+0x1dc>
    8c76:	0016c693          	xori	a3,a3,1
    8c7a:	04d40a63          	beq	s0,a3,8cce <__subdf3+0x230>
    8c7e:	e1d1                	bnez	a1,8d02 <__subdf3+0x264>
    8c80:	00148793          	addi	a5,s1,1
    8c84:	7fe7f793          	andi	a5,a5,2046
    8c88:	1e079863          	bnez	a5,8e78 <__subdf3+0x3da>
    8c8c:	01e367b3          	or	a5,t1,t5
    8c90:	01d76833          	or	a6,a4,t4
    8c94:	16049263          	bnez	s1,8df8 <__subdf3+0x35a>
    8c98:	3c078163          	beqz	a5,905a <__subdf3+0x5bc>
    8c9c:	42081563          	bnez	a6,90c6 <__subdf3+0x628>
    8ca0:	00351813          	slli	a6,a0,0x3
    8ca4:	01d31693          	slli	a3,t1,0x1d
    8ca8:	00385813          	srli	a6,a6,0x3
    8cac:	0106e833          	or	a6,a3,a6
    8cb0:	00335793          	srli	a5,t1,0x3
    8cb4:	a219                	j	8dba <__subdf3+0x31c>
    8cb6:	01d767b3          	or	a5,a4,t4
    8cba:	1a078463          	beqz	a5,8e62 <__subdf3+0x3c4>
    8cbe:	fff58793          	addi	a5,a1,-1
    8cc2:	3a078a63          	beqz	a5,9076 <__subdf3+0x5d8>
    8cc6:	23c58b63          	beq	a1,t3,8efc <__subdf3+0x45e>
    8cca:	85be                	mv	a1,a5
    8ccc:	b589                	j	8b0e <__subdf3+0x70>
    8cce:	1c059863          	bnez	a1,8e9e <__subdf3+0x400>
    8cd2:	00148693          	addi	a3,s1,1
    8cd6:	7fe6f793          	andi	a5,a3,2046
    8cda:	efc1                	bnez	a5,8d72 <__subdf3+0x2d4>
    8cdc:	01e367b3          	or	a5,t1,t5
    8ce0:	34049f63          	bnez	s1,903e <__subdf3+0x5a0>
    8ce4:	44078c63          	beqz	a5,913c <__subdf3+0x69e>
    8ce8:	01d767b3          	or	a5,a4,t4
    8cec:	46079363          	bnez	a5,9152 <__subdf3+0x6b4>
    8cf0:	050e                	slli	a0,a0,0x3
    8cf2:	01d31813          	slli	a6,t1,0x1d
    8cf6:	810d                	srli	a0,a0,0x3
    8cf8:	00a86833          	or	a6,a6,a0
    8cfc:	00335793          	srli	a5,t1,0x3
    8d00:	a86d                	j	8dba <__subdf3+0x31c>
    8d02:	409885b3          	sub	a1,a7,s1
    8d06:	20049663          	bnez	s1,8f12 <__subdf3+0x474>
    8d0a:	01e367b3          	or	a5,t1,t5
    8d0e:	30078c63          	beqz	a5,9026 <__subdf3+0x588>
    8d12:	fff58793          	addi	a5,a1,-1
    8d16:	40078863          	beqz	a5,9126 <__subdf3+0x688>
    8d1a:	7ff00513          	li	a0,2047
    8d1e:	20a58263          	beq	a1,a0,8f22 <__subdf3+0x484>
    8d22:	85be                	mv	a1,a5
    8d24:	03800793          	li	a5,56
    8d28:	2ab7c163          	blt	a5,a1,8fca <__subdf3+0x52c>
    8d2c:	47fd                	li	a5,31
    8d2e:	3cb7c763          	blt	a5,a1,90fc <__subdf3+0x65e>
    8d32:	02000793          	li	a5,32
    8d36:	8f8d                	sub	a5,a5,a1
    8d38:	00f31833          	sll	a6,t1,a5
    8d3c:	00bf5633          	srl	a2,t5,a1
    8d40:	00ff17b3          	sll	a5,t5,a5
    8d44:	00c86833          	or	a6,a6,a2
    8d48:	00f039b3          	snez	s3,a5
    8d4c:	00b35333          	srl	t1,t1,a1
    8d50:	01386833          	or	a6,a6,s3
    8d54:	40670733          	sub	a4,a4,t1
    8d58:	acad                	j	8fd2 <__subdf3+0x534>
    8d5a:	01d767b3          	or	a5,a4,t4
    8d5e:	10078263          	beqz	a5,8e62 <__subdf3+0x3c4>
    8d62:	fff58793          	addi	a5,a1,-1
    8d66:	1e078e63          	beqz	a5,8f62 <__subdf3+0x4c4>
    8d6a:	2dc58f63          	beq	a1,t3,9048 <__subdf3+0x5aa>
    8d6e:	85be                	mv	a1,a5
    8d70:	b5d1                	j	8c34 <__subdf3+0x196>
    8d72:	7ff00793          	li	a5,2047
    8d76:	06f68b63          	beq	a3,a5,8dec <__subdf3+0x34e>
    8d7a:	9efa                	add	t4,t4,t5
    8d7c:	01eeb633          	sltu	a2,t4,t5
    8d80:	00e307b3          	add	a5,t1,a4
    8d84:	97b2                	add	a5,a5,a2
    8d86:	01f79813          	slli	a6,a5,0x1f
    8d8a:	001ede93          	srli	t4,t4,0x1
    8d8e:	01d869b3          	or	s3,a6,t4
    8d92:	0017d613          	srli	a2,a5,0x1
    8d96:	84b6                	mv	s1,a3
    8d98:	0079f793          	andi	a5,s3,7
    8d9c:	e0079fe3          	bnez	a5,8bba <__subdf3+0x11c>
    8da0:	01d61793          	slli	a5,a2,0x1d
    8da4:	0039d813          	srli	a6,s3,0x3
    8da8:	00f86833          	or	a6,a6,a5
    8dac:	85a6                	mv	a1,s1
    8dae:	00365793          	srli	a5,a2,0x3
    8db2:	7ff00713          	li	a4,2047
    8db6:	06e58063          	beq	a1,a4,8e16 <__subdf3+0x378>
    8dba:	07b2                	slli	a5,a5,0xc
    8dbc:	83b1                	srli	a5,a5,0xc
    8dbe:	7ff5f713          	andi	a4,a1,2047
    8dc2:	8805                	andi	s0,s0,1
    8dc4:	bd3d                	j	8c02 <__subdf3+0x164>
    8dc6:	01d76733          	or	a4,a4,t4
    8dca:	00e03833          	snez	a6,a4
    8dce:	01e809b3          	add	s3,a6,t5
    8dd2:	01e9b7b3          	sltu	a5,s3,t5
    8dd6:	00678633          	add	a2,a5,t1
    8dda:	00861793          	slli	a5,a2,0x8
    8dde:	fa07dde3          	bgez	a5,8d98 <__subdf3+0x2fa>
    8de2:	0485                	addi	s1,s1,1
    8de4:	7ff00793          	li	a5,2047
    8de8:	18f49b63          	bne	s1,a5,8f7e <__subdf3+0x4e0>
    8dec:	8805                	andi	s0,s0,1
    8dee:	7ff00713          	li	a4,2047
    8df2:	4781                	li	a5,0
    8df4:	4801                	li	a6,0
    8df6:	b531                	j	8c02 <__subdf3+0x164>
    8df8:	10079063          	bnez	a5,8ef8 <__subdf3+0x45a>
    8dfc:	3c080063          	beqz	a6,91bc <__subdf3+0x71e>
    8e00:	00361813          	slli	a6,a2,0x3
    8e04:	01d71793          	slli	a5,a4,0x1d
    8e08:	00385813          	srli	a6,a6,0x3
    8e0c:	00f86833          	or	a6,a6,a5
    8e10:	8436                	mv	s0,a3
    8e12:	00375793          	srli	a5,a4,0x3
    8e16:	00f867b3          	or	a5,a6,a5
    8e1a:	dbe9                	beqz	a5,8dec <__subdf3+0x34e>
    8e1c:	4401                	li	s0,0
    8e1e:	7ff00713          	li	a4,2047
    8e22:	000807b7          	lui	a5,0x80
    8e26:	4801                	li	a6,0
    8e28:	bbe9                	j	8c02 <__subdf3+0x164>
    8e2a:	ff800637          	lui	a2,0xff800
    8e2e:	167d                	addi	a2,a2,-1
    8e30:	8e7d                	and	a2,a2,a5
    8e32:	0079f793          	andi	a5,s3,7
    8e36:	8c99                	sub	s1,s1,a4
    8e38:	d80791e3          	bnez	a5,8bba <__subdf3+0x11c>
    8e3c:	b795                	j	8da0 <__subdf3+0x302>
    8e3e:	854e                	mv	a0,s3
    8e40:	274d                	jal	95e2 <__clzsi2>
    8e42:	01850713          	addi	a4,a0,24
    8e46:	47fd                	li	a5,31
    8e48:	d2e7d3e3          	bge	a5,a4,8b6e <__subdf3+0xd0>
    8e4c:	ff850613          	addi	a2,a0,-8
    8e50:	00c997b3          	sll	a5,s3,a2
    8e54:	4981                	li	s3,0
    8e56:	b335                	j	8b82 <__subdf3+0xe4>
    8e58:	01d76833          	or	a6,a4,t4
    8e5c:	01003833          	snez	a6,a6
    8e60:	b1cd                	j	8b42 <__subdf3+0xa4>
    8e62:	00351813          	slli	a6,a0,0x3
    8e66:	01d31793          	slli	a5,t1,0x1d
    8e6a:	00385813          	srli	a6,a6,0x3
    8e6e:	00f86833          	or	a6,a6,a5
    8e72:	00335793          	srli	a5,t1,0x3
    8e76:	bf35                	j	8db2 <__subdf3+0x314>
    8e78:	41df09b3          	sub	s3,t5,t4
    8e7c:	40e30933          	sub	s2,t1,a4
    8e80:	013f3633          	sltu	a2,t5,s3
    8e84:	40c90933          	sub	s2,s2,a2
    8e88:	00891793          	slli	a5,s2,0x8
    8e8c:	2007ca63          	bltz	a5,90a0 <__subdf3+0x602>
    8e90:	0129e833          	or	a6,s3,s2
    8e94:	cc0816e3          	bnez	a6,8b60 <__subdf3+0xc2>
    8e98:	4781                	li	a5,0
    8e9a:	4401                	li	s0,0
    8e9c:	bf39                	j	8dba <__subdf3+0x31c>
    8e9e:	409885b3          	sub	a1,a7,s1
    8ea2:	14048163          	beqz	s1,8fe4 <__subdf3+0x546>
    8ea6:	008006b7          	lui	a3,0x800
    8eaa:	7ff00793          	li	a5,2047
    8eae:	00d36333          	or	t1,t1,a3
    8eb2:	20f88163          	beq	a7,a5,90b4 <__subdf3+0x616>
    8eb6:	03800793          	li	a5,56
    8eba:	22b7cc63          	blt	a5,a1,90f2 <__subdf3+0x654>
    8ebe:	47fd                	li	a5,31
    8ec0:	2cb7c963          	blt	a5,a1,9192 <__subdf3+0x6f4>
    8ec4:	02000793          	li	a5,32
    8ec8:	8f8d                	sub	a5,a5,a1
    8eca:	00f31833          	sll	a6,t1,a5
    8ece:	00bf56b3          	srl	a3,t5,a1
    8ed2:	00ff17b3          	sll	a5,t5,a5
    8ed6:	00d86833          	or	a6,a6,a3
    8eda:	00f039b3          	snez	s3,a5
    8ede:	00b35333          	srl	t1,t1,a1
    8ee2:	01386833          	or	a6,a6,s3
    8ee6:	971a                	add	a4,a4,t1
    8ee8:	01d809b3          	add	s3,a6,t4
    8eec:	01d9b7b3          	sltu	a5,s3,t4
    8ef0:	00e78633          	add	a2,a5,a4
    8ef4:	84c6                	mv	s1,a7
    8ef6:	b5d5                	j	8dda <__subdf3+0x33c>
    8ef8:	f20812e3          	bnez	a6,8e1c <__subdf3+0x37e>
    8efc:	00351813          	slli	a6,a0,0x3
    8f00:	01d31793          	slli	a5,t1,0x1d
    8f04:	00385813          	srli	a6,a6,0x3
    8f08:	00f86833          	or	a6,a6,a5
    8f0c:	00335793          	srli	a5,t1,0x3
    8f10:	b719                	j	8e16 <__subdf3+0x378>
    8f12:	00800537          	lui	a0,0x800
    8f16:	7ff00793          	li	a5,2047
    8f1a:	00a36333          	or	t1,t1,a0
    8f1e:	e0f893e3          	bne	a7,a5,8d24 <__subdf3+0x286>
    8f22:	060e                	slli	a2,a2,0x3
    8f24:	01d71813          	slli	a6,a4,0x1d
    8f28:	820d                	srli	a2,a2,0x3
    8f2a:	00c86833          	or	a6,a6,a2
    8f2e:	00375793          	srli	a5,a4,0x3
    8f32:	8436                	mv	s0,a3
    8f34:	b5cd                	j	8e16 <__subdf3+0x378>
    8f36:	1705                	addi	a4,a4,-31
    8f38:	02000693          	li	a3,32
    8f3c:	00e7d733          	srl	a4,a5,a4
    8f40:	00d60a63          	beq	a2,a3,8f54 <__subdf3+0x4b6>
    8f44:	04000693          	li	a3,64
    8f48:	40c68633          	sub	a2,a3,a2
    8f4c:	00c79633          	sll	a2,a5,a2
    8f50:	00c9e9b3          	or	s3,s3,a2
    8f54:	01303833          	snez	a6,s3
    8f58:	00e869b3          	or	s3,a6,a4
    8f5c:	4601                	li	a2,0
    8f5e:	4481                	li	s1,0
    8f60:	bd25                	j	8d98 <__subdf3+0x2fa>
    8f62:	01df09b3          	add	s3,t5,t4
    8f66:	00e307b3          	add	a5,t1,a4
    8f6a:	01e9bf33          	sltu	t5,s3,t5
    8f6e:	01e78633          	add	a2,a5,t5
    8f72:	00861793          	slli	a5,a2,0x8
    8f76:	4485                	li	s1,1
    8f78:	e207d0e3          	bgez	a5,8d98 <__subdf3+0x2fa>
    8f7c:	4489                	li	s1,2
    8f7e:	ff8007b7          	lui	a5,0xff800
    8f82:	17fd                	addi	a5,a5,-1
    8f84:	8ff1                	and	a5,a5,a2
    8f86:	0019d713          	srli	a4,s3,0x1
    8f8a:	0019f813          	andi	a6,s3,1
    8f8e:	01076833          	or	a6,a4,a6
    8f92:	01f79993          	slli	s3,a5,0x1f
    8f96:	0109e9b3          	or	s3,s3,a6
    8f9a:	0017d613          	srli	a2,a5,0x1
    8f9e:	b919                	j	8bb4 <__subdf3+0x116>
    8fa0:	fe058813          	addi	a6,a1,-32
    8fa4:	02000793          	li	a5,32
    8fa8:	010759b3          	srl	s3,a4,a6
    8fac:	00f58a63          	beq	a1,a5,8fc0 <__subdf3+0x522>
    8fb0:	04000793          	li	a5,64
    8fb4:	40b785b3          	sub	a1,a5,a1
    8fb8:	00b71733          	sll	a4,a4,a1
    8fbc:	00eeeeb3          	or	t4,t4,a4
    8fc0:	01d03833          	snez	a6,t4
    8fc4:	01386833          	or	a6,a6,s3
    8fc8:	bead                	j	8b42 <__subdf3+0xa4>
    8fca:	01e36333          	or	t1,t1,t5
    8fce:	00603833          	snez	a6,t1
    8fd2:	410e89b3          	sub	s3,t4,a6
    8fd6:	013eb7b3          	sltu	a5,t4,s3
    8fda:	40f70633          	sub	a2,a4,a5
    8fde:	84c6                	mv	s1,a7
    8fe0:	8436                	mv	s0,a3
    8fe2:	b6b5                	j	8b4e <__subdf3+0xb0>
    8fe4:	01e367b3          	or	a5,t1,t5
    8fe8:	18078763          	beqz	a5,9176 <__subdf3+0x6d8>
    8fec:	fff58793          	addi	a5,a1,-1
    8ff0:	1c078c63          	beqz	a5,91c8 <__subdf3+0x72a>
    8ff4:	7ff00693          	li	a3,2047
    8ff8:	0ad58e63          	beq	a1,a3,90b4 <__subdf3+0x616>
    8ffc:	85be                	mv	a1,a5
    8ffe:	bd65                	j	8eb6 <__subdf3+0x418>
    9000:	02000793          	li	a5,32
    9004:	8f8d                	sub	a5,a5,a1
    9006:	00bed9b3          	srl	s3,t4,a1
    900a:	00f71833          	sll	a6,a4,a5
    900e:	00fe9eb3          	sll	t4,t4,a5
    9012:	01386833          	or	a6,a6,s3
    9016:	00b75733          	srl	a4,a4,a1
    901a:	01d039b3          	snez	s3,t4
    901e:	01386833          	or	a6,a6,s3
    9022:	933a                	add	t1,t1,a4
    9024:	b36d                	j	8dce <__subdf3+0x330>
    9026:	00361813          	slli	a6,a2,0x3
    902a:	01d71793          	slli	a5,a4,0x1d
    902e:	00385813          	srli	a6,a6,0x3
    9032:	0107e833          	or	a6,a5,a6
    9036:	8436                	mv	s0,a3
    9038:	00375793          	srli	a5,a4,0x3
    903c:	bb9d                	j	8db2 <__subdf3+0x314>
    903e:	cbbd                	beqz	a5,90b4 <__subdf3+0x616>
    9040:	01d76733          	or	a4,a4,t4
    9044:	dc071ce3          	bnez	a4,8e1c <__subdf3+0x37e>
    9048:	050e                	slli	a0,a0,0x3
    904a:	01d31813          	slli	a6,t1,0x1d
    904e:	810d                	srli	a0,a0,0x3
    9050:	00a86833          	or	a6,a6,a0
    9054:	00335793          	srli	a5,t1,0x3
    9058:	bb7d                	j	8e16 <__subdf3+0x378>
    905a:	e2080fe3          	beqz	a6,8e98 <__subdf3+0x3fa>
    905e:	00361813          	slli	a6,a2,0x3
    9062:	01d71793          	slli	a5,a4,0x1d
    9066:	00385813          	srli	a6,a6,0x3
    906a:	00f86833          	or	a6,a6,a5
    906e:	8436                	mv	s0,a3
    9070:	00375793          	srli	a5,a4,0x3
    9074:	b399                	j	8dba <__subdf3+0x31c>
    9076:	41df09b3          	sub	s3,t5,t4
    907a:	40e307b3          	sub	a5,t1,a4
    907e:	013f3f33          	sltu	t5,t5,s3
    9082:	41e78633          	sub	a2,a5,t5
    9086:	4485                	li	s1,1
    9088:	b4d9                	j	8b4e <__subdf3+0xb0>
    908a:	00351813          	slli	a6,a0,0x3
    908e:	01d31693          	slli	a3,t1,0x1d
    9092:	00385813          	srli	a6,a6,0x3
    9096:	0106e833          	or	a6,a3,a6
    909a:	00335793          	srli	a5,t1,0x3
    909e:	bba5                	j	8e16 <__subdf3+0x378>
    90a0:	41ee89b3          	sub	s3,t4,t5
    90a4:	40670633          	sub	a2,a4,t1
    90a8:	013eb933          	sltu	s2,t4,s3
    90ac:	41260933          	sub	s2,a2,s2
    90b0:	8436                	mv	s0,a3
    90b2:	b47d                	j	8b60 <__subdf3+0xc2>
    90b4:	060e                	slli	a2,a2,0x3
    90b6:	01d71813          	slli	a6,a4,0x1d
    90ba:	820d                	srli	a2,a2,0x3
    90bc:	00c86833          	or	a6,a6,a2
    90c0:	00375793          	srli	a5,a4,0x3
    90c4:	bb89                	j	8e16 <__subdf3+0x378>
    90c6:	41df09b3          	sub	s3,t5,t4
    90ca:	40e307b3          	sub	a5,t1,a4
    90ce:	013f3633          	sltu	a2,t5,s3
    90d2:	40c78633          	sub	a2,a5,a2
    90d6:	00861793          	slli	a5,a2,0x8
    90da:	0a07d763          	bgez	a5,9188 <__subdf3+0x6ea>
    90de:	41ee89b3          	sub	s3,t4,t5
    90e2:	406707b3          	sub	a5,a4,t1
    90e6:	013ebeb3          	sltu	t4,t4,s3
    90ea:	41d78633          	sub	a2,a5,t4
    90ee:	8436                	mv	s0,a3
    90f0:	b4d1                	j	8bb4 <__subdf3+0x116>
    90f2:	01e36333          	or	t1,t1,t5
    90f6:	00603833          	snez	a6,t1
    90fa:	b3fd                	j	8ee8 <__subdf3+0x44a>
    90fc:	fe058813          	addi	a6,a1,-32
    9100:	02000793          	li	a5,32
    9104:	010359b3          	srl	s3,t1,a6
    9108:	00f58a63          	beq	a1,a5,911c <__subdf3+0x67e>
    910c:	04000793          	li	a5,64
    9110:	40b785b3          	sub	a1,a5,a1
    9114:	00b31333          	sll	t1,t1,a1
    9118:	006f6f33          	or	t5,t5,t1
    911c:	01e03833          	snez	a6,t5
    9120:	01386833          	or	a6,a6,s3
    9124:	b57d                	j	8fd2 <__subdf3+0x534>
    9126:	41ee89b3          	sub	s3,t4,t5
    912a:	406707b3          	sub	a5,a4,t1
    912e:	013ebeb3          	sltu	t4,t4,s3
    9132:	41d78633          	sub	a2,a5,t4
    9136:	8436                	mv	s0,a3
    9138:	4485                	li	s1,1
    913a:	bc11                	j	8b4e <__subdf3+0xb0>
    913c:	00361813          	slli	a6,a2,0x3
    9140:	01d71793          	slli	a5,a4,0x1d
    9144:	00385813          	srli	a6,a6,0x3
    9148:	00f86833          	or	a6,a6,a5
    914c:	00375793          	srli	a5,a4,0x3
    9150:	b1ad                	j	8dba <__subdf3+0x31c>
    9152:	01df09b3          	add	s3,t5,t4
    9156:	00e307b3          	add	a5,t1,a4
    915a:	01e9bf33          	sltu	t5,s3,t5
    915e:	01e78633          	add	a2,a5,t5
    9162:	00861793          	slli	a5,a2,0x8
    9166:	c207d9e3          	bgez	a5,8d98 <__subdf3+0x2fa>
    916a:	ff8007b7          	lui	a5,0xff800
    916e:	17fd                	addi	a5,a5,-1
    9170:	8e7d                	and	a2,a2,a5
    9172:	4485                	li	s1,1
    9174:	b115                	j	8d98 <__subdf3+0x2fa>
    9176:	060e                	slli	a2,a2,0x3
    9178:	01d71813          	slli	a6,a4,0x1d
    917c:	820d                	srli	a2,a2,0x3
    917e:	00c86833          	or	a6,a6,a2
    9182:	00375793          	srli	a5,a4,0x3
    9186:	b135                	j	8db2 <__subdf3+0x314>
    9188:	00c9e833          	or	a6,s3,a2
    918c:	d00806e3          	beqz	a6,8e98 <__subdf3+0x3fa>
    9190:	b121                	j	8d98 <__subdf3+0x2fa>
    9192:	fe058813          	addi	a6,a1,-32
    9196:	02000793          	li	a5,32
    919a:	010359b3          	srl	s3,t1,a6
    919e:	00f58a63          	beq	a1,a5,91b2 <__subdf3+0x714>
    91a2:	04000793          	li	a5,64
    91a6:	40b785b3          	sub	a1,a5,a1
    91aa:	00b31333          	sll	t1,t1,a1
    91ae:	006f6f33          	or	t5,t5,t1
    91b2:	01e03833          	snez	a6,t5
    91b6:	01386833          	or	a6,a6,s3
    91ba:	b33d                	j	8ee8 <__subdf3+0x44a>
    91bc:	4401                	li	s0,0
    91be:	7ff00713          	li	a4,2047
    91c2:	000807b7          	lui	a5,0x80
    91c6:	bc35                	j	8c02 <__subdf3+0x164>
    91c8:	01df09b3          	add	s3,t5,t4
    91cc:	00e307b3          	add	a5,t1,a4
    91d0:	01d9beb3          	sltu	t4,s3,t4
    91d4:	01d78633          	add	a2,a5,t4
    91d8:	bb69                	j	8f72 <__subdf3+0x4d4>

000091da <__unorddf2>:
    91da:	0145d713          	srli	a4,a1,0x14
    91de:	001007b7          	lui	a5,0x100
    91e2:	17fd                	addi	a5,a5,-1
    91e4:	fff74713          	not	a4,a4
    91e8:	0146d813          	srli	a6,a3,0x14
    91ec:	8dfd                	and	a1,a1,a5
    91ee:	8ff5                	and	a5,a5,a3
    91f0:	01571693          	slli	a3,a4,0x15
    91f4:	7ff87813          	andi	a6,a6,2047
    91f8:	ca99                	beqz	a3,920e <__unorddf2+0x34>
    91fa:	7ff00713          	li	a4,2047
    91fe:	4501                	li	a0,0
    9200:	00e80363          	beq	a6,a4,9206 <__unorddf2+0x2c>
    9204:	8082                	ret
    9206:	8fd1                	or	a5,a5,a2
    9208:	00f03533          	snez	a0,a5
    920c:	8082                	ret
    920e:	8dc9                	or	a1,a1,a0
    9210:	4505                	li	a0,1
    9212:	d5e5                	beqz	a1,91fa <__unorddf2+0x20>
    9214:	8082                	ret

00009216 <__fixdfsi>:
    9216:	0145d793          	srli	a5,a1,0x14
    921a:	001006b7          	lui	a3,0x100
    921e:	fff68713          	addi	a4,a3,-1 # fffff <_data_lma+0xf3253>
    9222:	7ff7f793          	andi	a5,a5,2047
    9226:	3fe00613          	li	a2,1022
    922a:	8f6d                	and	a4,a4,a1
    922c:	81fd                	srli	a1,a1,0x1f
    922e:	00f65c63          	bge	a2,a5,9246 <__fixdfsi+0x30>
    9232:	41d00613          	li	a2,1053
    9236:	00f65a63          	bge	a2,a5,924a <__fixdfsi+0x34>
    923a:	80000537          	lui	a0,0x80000
    923e:	fff54513          	not	a0,a0
    9242:	952e                	add	a0,a0,a1
    9244:	8082                	ret
    9246:	4501                	li	a0,0
    9248:	8082                	ret
    924a:	43300613          	li	a2,1075
    924e:	8e1d                	sub	a2,a2,a5
    9250:	487d                	li	a6,31
    9252:	8f55                	or	a4,a4,a3
    9254:	00c85d63          	bge	a6,a2,926e <__fixdfsi+0x58>
    9258:	41300693          	li	a3,1043
    925c:	40f687b3          	sub	a5,a3,a5
    9260:	00f757b3          	srl	a5,a4,a5
    9264:	40f00533          	neg	a0,a5
    9268:	f1e5                	bnez	a1,9248 <__fixdfsi+0x32>
    926a:	853e                	mv	a0,a5
    926c:	8082                	ret
    926e:	bed78793          	addi	a5,a5,-1043 # ffbed <_data_lma+0xf2e41>
    9272:	00f717b3          	sll	a5,a4,a5
    9276:	00c55533          	srl	a0,a0,a2
    927a:	8fc9                	or	a5,a5,a0
    927c:	b7e5                	j	9264 <__fixdfsi+0x4e>

0000927e <__fixunsdfsi>:
    927e:	0145d793          	srli	a5,a1,0x14
    9282:	001006b7          	lui	a3,0x100
    9286:	fff68713          	addi	a4,a3,-1 # fffff <_data_lma+0xf3253>
    928a:	7ff7f793          	andi	a5,a5,2047
    928e:	3fe00613          	li	a2,1022
    9292:	882a                	mv	a6,a0
    9294:	8f6d                	and	a4,a4,a1
    9296:	4501                	li	a0,0
    9298:	81fd                	srli	a1,a1,0x1f
    929a:	00f65463          	bge	a2,a5,92a2 <__fixunsdfsi+0x24>
    929e:	c199                	beqz	a1,92a4 <__fixunsdfsi+0x26>
    92a0:	8082                	ret
    92a2:	8082                	ret
    92a4:	41e00613          	li	a2,1054
    92a8:	557d                	li	a0,-1
    92aa:	fef64be3          	blt	a2,a5,92a0 <__fixunsdfsi+0x22>
    92ae:	43300513          	li	a0,1075
    92b2:	8d1d                	sub	a0,a0,a5
    92b4:	467d                	li	a2,31
    92b6:	8f55                	or	a4,a4,a3
    92b8:	00a64a63          	blt	a2,a0,92cc <__fixunsdfsi+0x4e>
    92bc:	bed78793          	addi	a5,a5,-1043
    92c0:	00f71733          	sll	a4,a4,a5
    92c4:	00a85533          	srl	a0,a6,a0
    92c8:	8d59                	or	a0,a0,a4
    92ca:	8082                	ret
    92cc:	41300513          	li	a0,1043
    92d0:	40f507b3          	sub	a5,a0,a5
    92d4:	00f75533          	srl	a0,a4,a5
    92d8:	8082                	ret

000092da <__floatsidf>:
    92da:	1141                	addi	sp,sp,-16
    92dc:	c606                	sw	ra,12(sp)
    92de:	c422                	sw	s0,8(sp)
    92e0:	c226                	sw	s1,4(sp)
    92e2:	cd05                	beqz	a0,931a <__floatsidf+0x40>
    92e4:	41f55793          	srai	a5,a0,0x1f
    92e8:	00a7c4b3          	xor	s1,a5,a0
    92ec:	8c9d                	sub	s1,s1,a5
    92ee:	842a                	mv	s0,a0
    92f0:	8526                	mv	a0,s1
    92f2:	2cc5                	jal	95e2 <__clzsi2>
    92f4:	41e00693          	li	a3,1054
    92f8:	8e89                	sub	a3,a3,a0
    92fa:	47a9                	li	a5,10
    92fc:	807d                	srli	s0,s0,0x1f
    92fe:	7ff6f693          	andi	a3,a3,2047
    9302:	02a7cd63          	blt	a5,a0,933c <__floatsidf+0x62>
    9306:	472d                	li	a4,11
    9308:	8f09                	sub	a4,a4,a0
    930a:	00e4d7b3          	srl	a5,s1,a4
    930e:	0555                	addi	a0,a0,21
    9310:	07b2                	slli	a5,a5,0xc
    9312:	00a494b3          	sll	s1,s1,a0
    9316:	83b1                	srli	a5,a5,0xc
    9318:	a029                	j	9322 <__floatsidf+0x48>
    931a:	4401                	li	s0,0
    931c:	4681                	li	a3,0
    931e:	4781                	li	a5,0
    9320:	4481                	li	s1,0
    9322:	07b2                	slli	a5,a5,0xc
    9324:	06d2                	slli	a3,a3,0x14
    9326:	83b1                	srli	a5,a5,0xc
    9328:	047e                	slli	s0,s0,0x1f
    932a:	8fd5                	or	a5,a5,a3
    932c:	8fc1                	or	a5,a5,s0
    932e:	40b2                	lw	ra,12(sp)
    9330:	4422                	lw	s0,8(sp)
    9332:	8526                	mv	a0,s1
    9334:	85be                	mv	a1,a5
    9336:	4492                	lw	s1,4(sp)
    9338:	0141                	addi	sp,sp,16
    933a:	8082                	ret
    933c:	1555                	addi	a0,a0,-11
    933e:	00a497b3          	sll	a5,s1,a0
    9342:	07b2                	slli	a5,a5,0xc
    9344:	83b1                	srli	a5,a5,0xc
    9346:	4481                	li	s1,0
    9348:	bfe9                	j	9322 <__floatsidf+0x48>

0000934a <__floatunsidf>:
    934a:	cd15                	beqz	a0,9386 <__floatunsidf+0x3c>
    934c:	1141                	addi	sp,sp,-16
    934e:	c422                	sw	s0,8(sp)
    9350:	c606                	sw	ra,12(sp)
    9352:	842a                	mv	s0,a0
    9354:	2479                	jal	95e2 <__clzsi2>
    9356:	41e00693          	li	a3,1054
    935a:	8e89                	sub	a3,a3,a0
    935c:	47a9                	li	a5,10
    935e:	7ff6f693          	andi	a3,a3,2047
    9362:	02a7dc63          	bge	a5,a0,939a <__floatunsidf+0x50>
    9366:	1555                	addi	a0,a0,-11
    9368:	00a417b3          	sll	a5,s0,a0
    936c:	07b2                	slli	a5,a5,0xc
    936e:	83b1                	srli	a5,a5,0xc
    9370:	4701                	li	a4,0
    9372:	40b2                	lw	ra,12(sp)
    9374:	4422                	lw	s0,8(sp)
    9376:	07b2                	slli	a5,a5,0xc
    9378:	06d2                	slli	a3,a3,0x14
    937a:	83b1                	srli	a5,a5,0xc
    937c:	8fd5                	or	a5,a5,a3
    937e:	853a                	mv	a0,a4
    9380:	85be                	mv	a1,a5
    9382:	0141                	addi	sp,sp,16
    9384:	8082                	ret
    9386:	4781                	li	a5,0
    9388:	4681                	li	a3,0
    938a:	07b2                	slli	a5,a5,0xc
    938c:	06d2                	slli	a3,a3,0x14
    938e:	83b1                	srli	a5,a5,0xc
    9390:	4701                	li	a4,0
    9392:	8fd5                	or	a5,a5,a3
    9394:	853a                	mv	a0,a4
    9396:	85be                	mv	a1,a5
    9398:	8082                	ret
    939a:	472d                	li	a4,11
    939c:	8f09                	sub	a4,a4,a0
    939e:	00e457b3          	srl	a5,s0,a4
    93a2:	07b2                	slli	a5,a5,0xc
    93a4:	01550713          	addi	a4,a0,21 # 80000015 <_eusrstack+0x5fff8015>
    93a8:	00e41733          	sll	a4,s0,a4
    93ac:	83b1                	srli	a5,a5,0xc
    93ae:	b7d1                	j	9372 <__floatunsidf+0x28>

000093b0 <__lesf2>:
    93b0:	01755693          	srli	a3,a0,0x17
    93b4:	008007b7          	lui	a5,0x800
    93b8:	17fd                	addi	a5,a5,-1
    93ba:	0175d613          	srli	a2,a1,0x17
    93be:	0ff6f693          	andi	a3,a3,255
    93c2:	0ff00813          	li	a6,255
    93c6:	00a7f8b3          	and	a7,a5,a0
    93ca:	01f55713          	srli	a4,a0,0x1f
    93ce:	8fed                	and	a5,a5,a1
    93d0:	0ff67613          	andi	a2,a2,255
    93d4:	81fd                	srli	a1,a1,0x1f
    93d6:	03068763          	beq	a3,a6,9404 <__lesf2+0x54>
    93da:	01060963          	beq	a2,a6,93ec <__lesf2+0x3c>
    93de:	ea85                	bnez	a3,940e <__lesf2+0x5e>
    93e0:	ea11                	bnez	a2,93f4 <__lesf2+0x44>
    93e2:	eb89                	bnez	a5,93f4 <__lesf2+0x44>
    93e4:	4501                	li	a0,0
    93e6:	00089b63          	bnez	a7,93fc <__lesf2+0x4c>
    93ea:	8082                	ret
    93ec:	4509                	li	a0,2
    93ee:	fff5                	bnez	a5,93ea <__lesf2+0x3a>
    93f0:	dae5                	beqz	a3,93e0 <__lesf2+0x30>
    93f2:	a831                	j	940e <__lesf2+0x5e>
    93f4:	02088c63          	beqz	a7,942c <__lesf2+0x7c>
    93f8:	04b70063          	beq	a4,a1,9438 <__lesf2+0x88>
    93fc:	4505                	li	a0,1
    93fe:	d775                	beqz	a4,93ea <__lesf2+0x3a>
    9400:	557d                	li	a0,-1
    9402:	8082                	ret
    9404:	4509                	li	a0,2
    9406:	02089863          	bnez	a7,9436 <__lesf2+0x86>
    940a:	02d60463          	beq	a2,a3,9432 <__lesf2+0x82>
    940e:	e211                	bnez	a2,9412 <__lesf2+0x62>
    9410:	d7f5                	beqz	a5,93fc <__lesf2+0x4c>
    9412:	feb715e3          	bne	a4,a1,93fc <__lesf2+0x4c>
    9416:	fed643e3          	blt	a2,a3,93fc <__lesf2+0x4c>
    941a:	00c6c763          	blt	a3,a2,9428 <__lesf2+0x78>
    941e:	fd17efe3          	bltu	a5,a7,93fc <__lesf2+0x4c>
    9422:	4501                	li	a0,0
    9424:	fcf8f3e3          	bgeu	a7,a5,93ea <__lesf2+0x3a>
    9428:	e319                	bnez	a4,942e <__lesf2+0x7e>
    942a:	bfd9                	j	9400 <__lesf2+0x50>
    942c:	d9f1                	beqz	a1,9400 <__lesf2+0x50>
    942e:	4505                	li	a0,1
    9430:	8082                	ret
    9432:	d3e5                	beqz	a5,9412 <__lesf2+0x62>
    9434:	8082                	ret
    9436:	8082                	ret
    9438:	4681                	li	a3,0
    943a:	b7c5                	j	941a <__lesf2+0x6a>

0000943c <__unordsf2>:
    943c:	01755693          	srli	a3,a0,0x17
    9440:	008007b7          	lui	a5,0x800
    9444:	17fd                	addi	a5,a5,-1
    9446:	0175d613          	srli	a2,a1,0x17
    944a:	0ff6f693          	andi	a3,a3,255
    944e:	0ff00813          	li	a6,255
    9452:	00a7f733          	and	a4,a5,a0
    9456:	0ff67613          	andi	a2,a2,255
    945a:	8fed                	and	a5,a5,a1
    945c:	01068b63          	beq	a3,a6,9472 <__unordsf2+0x36>
    9460:	0ff00713          	li	a4,255
    9464:	4501                	li	a0,0
    9466:	00e60363          	beq	a2,a4,946c <__unordsf2+0x30>
    946a:	8082                	ret
    946c:	00f03533          	snez	a0,a5
    9470:	8082                	ret
    9472:	4505                	li	a0,1
    9474:	d775                	beqz	a4,9460 <__unordsf2+0x24>
    9476:	8082                	ret

00009478 <__truncdfsf2>:
    9478:	0145d693          	srli	a3,a1,0x14
    947c:	00c59793          	slli	a5,a1,0xc
    9480:	7ff6f693          	andi	a3,a3,2047
    9484:	83b1                	srli	a5,a5,0xc
    9486:	00168613          	addi	a2,a3,1
    948a:	078e                	slli	a5,a5,0x3
    948c:	01d55713          	srli	a4,a0,0x1d
    9490:	7fe67613          	andi	a2,a2,2046
    9494:	81fd                	srli	a1,a1,0x1f
    9496:	8f5d                	or	a4,a4,a5
    9498:	00351893          	slli	a7,a0,0x3
    949c:	ce35                	beqz	a2,9518 <__truncdfsf2+0xa0>
    949e:	c8068813          	addi	a6,a3,-896
    94a2:	0fe00793          	li	a5,254
    94a6:	0107dd63          	bge	a5,a6,94c0 <__truncdfsf2+0x48>
    94aa:	4781                	li	a5,0
    94ac:	00979513          	slli	a0,a5,0x9
    94b0:	0ff00693          	li	a3,255
    94b4:	06de                	slli	a3,a3,0x17
    94b6:	8125                	srli	a0,a0,0x9
    94b8:	05fe                	slli	a1,a1,0x1f
    94ba:	8d55                	or	a0,a0,a3
    94bc:	8d4d                	or	a0,a0,a1
    94be:	8082                	ret
    94c0:	0b005563          	blez	a6,956a <__truncdfsf2+0xf2>
    94c4:	00651793          	slli	a5,a0,0x6
    94c8:	070e                	slli	a4,a4,0x3
    94ca:	00f037b3          	snez	a5,a5
    94ce:	8fd9                	or	a5,a5,a4
    94d0:	01d8d893          	srli	a7,a7,0x1d
    94d4:	0117e7b3          	or	a5,a5,a7
    94d8:	0077f713          	andi	a4,a5,7
    94dc:	10070163          	beqz	a4,95de <__truncdfsf2+0x166>
    94e0:	00f7f713          	andi	a4,a5,15
    94e4:	4691                	li	a3,4
    94e6:	00d70363          	beq	a4,a3,94ec <__truncdfsf2+0x74>
    94ea:	0791                	addi	a5,a5,4
    94ec:	04000737          	lui	a4,0x4000
    94f0:	8f7d                	and	a4,a4,a5
    94f2:	c775                	beqz	a4,95de <__truncdfsf2+0x166>
    94f4:	00180713          	addi	a4,a6,1
    94f8:	0ff00613          	li	a2,255
    94fc:	0ff77693          	andi	a3,a4,255
    9500:	fac705e3          	beq	a4,a2,94aa <__truncdfsf2+0x32>
    9504:	079a                	slli	a5,a5,0x6
    9506:	83a5                	srli	a5,a5,0x9
    9508:	00979513          	slli	a0,a5,0x9
    950c:	06de                	slli	a3,a3,0x17
    950e:	8125                	srli	a0,a0,0x9
    9510:	05fe                	slli	a1,a1,0x1f
    9512:	8d55                	or	a0,a0,a3
    9514:	8d4d                	or	a0,a0,a1
    9516:	8082                	ret
    9518:	011767b3          	or	a5,a4,a7
    951c:	ee99                	bnez	a3,953a <__truncdfsf2+0xc2>
    951e:	cf85                	beqz	a5,9556 <__truncdfsf2+0xde>
    9520:	4795                	li	a5,5
    9522:	079a                	slli	a5,a5,0x6
    9524:	83a5                	srli	a5,a5,0x9
    9526:	00979513          	slli	a0,a5,0x9
    952a:	0ff6f693          	andi	a3,a3,255
    952e:	06de                	slli	a3,a3,0x17
    9530:	8125                	srli	a0,a0,0x9
    9532:	05fe                	slli	a1,a1,0x1f
    9534:	8d55                	or	a0,a0,a3
    9536:	8d4d                	or	a0,a0,a1
    9538:	8082                	ret
    953a:	dba5                	beqz	a5,94aa <__truncdfsf2+0x32>
    953c:	004007b7          	lui	a5,0x400
    9540:	00979513          	slli	a0,a5,0x9
    9544:	0ff00693          	li	a3,255
    9548:	06de                	slli	a3,a3,0x17
    954a:	4581                	li	a1,0
    954c:	8125                	srli	a0,a0,0x9
    954e:	05fe                	slli	a1,a1,0x1f
    9550:	8d55                	or	a0,a0,a3
    9552:	8d4d                	or	a0,a0,a1
    9554:	8082                	ret
    9556:	4781                	li	a5,0
    9558:	00979513          	slli	a0,a5,0x9
    955c:	4681                	li	a3,0
    955e:	06de                	slli	a3,a3,0x17
    9560:	8125                	srli	a0,a0,0x9
    9562:	05fe                	slli	a1,a1,0x1f
    9564:	8d55                	or	a0,a0,a3
    9566:	8d4d                	or	a0,a0,a1
    9568:	8082                	ret
    956a:	57a5                	li	a5,-23
    956c:	04f84863          	blt	a6,a5,95bc <__truncdfsf2+0x144>
    9570:	47f9                	li	a5,30
    9572:	00800637          	lui	a2,0x800
    9576:	410787b3          	sub	a5,a5,a6
    957a:	457d                	li	a0,31
    957c:	8e59                	or	a2,a2,a4
    957e:	04f55163          	bge	a0,a5,95c0 <__truncdfsf2+0x148>
    9582:	5779                	li	a4,-2
    9584:	41070733          	sub	a4,a4,a6
    9588:	02000513          	li	a0,32
    958c:	00e65733          	srl	a4,a2,a4
    9590:	00a78863          	beq	a5,a0,95a0 <__truncdfsf2+0x128>
    9594:	ca268693          	addi	a3,a3,-862
    9598:	00d616b3          	sll	a3,a2,a3
    959c:	00d8e8b3          	or	a7,a7,a3
    95a0:	011037b3          	snez	a5,a7
    95a4:	8fd9                	or	a5,a5,a4
    95a6:	0077f713          	andi	a4,a5,7
    95aa:	4801                	li	a6,0
    95ac:	fb15                	bnez	a4,94e0 <__truncdfsf2+0x68>
    95ae:	00579713          	slli	a4,a5,0x5
    95b2:	4685                	li	a3,1
    95b4:	f40748e3          	bltz	a4,9504 <__truncdfsf2+0x8c>
    95b8:	4681                	li	a3,0
    95ba:	b7a5                	j	9522 <__truncdfsf2+0xaa>
    95bc:	4681                	li	a3,0
    95be:	b78d                	j	9520 <__truncdfsf2+0xa8>
    95c0:	c8268693          	addi	a3,a3,-894
    95c4:	00d89733          	sll	a4,a7,a3
    95c8:	00e03733          	snez	a4,a4
    95cc:	00d616b3          	sll	a3,a2,a3
    95d0:	00f8d8b3          	srl	a7,a7,a5
    95d4:	00d767b3          	or	a5,a4,a3
    95d8:	00f8e7b3          	or	a5,a7,a5
    95dc:	b7e9                	j	95a6 <__truncdfsf2+0x12e>
    95de:	86c2                	mv	a3,a6
    95e0:	b789                	j	9522 <__truncdfsf2+0xaa>

000095e2 <__clzsi2>:
    95e2:	67c1                	lui	a5,0x10
    95e4:	02f57e63          	bgeu	a0,a5,9620 <__clzsi2+0x3e>
    95e8:	0ff00793          	li	a5,255
    95ec:	02000713          	li	a4,32
    95f0:	00a7ec63          	bltu	a5,a0,9608 <__clzsi2+0x26>
    95f4:	00003797          	auipc	a5,0x3
    95f8:	6b878793          	addi	a5,a5,1720 # ccac <__clz_tab>
    95fc:	97aa                	add	a5,a5,a0
    95fe:	0007c503          	lbu	a0,0(a5)
    9602:	40a70533          	sub	a0,a4,a0
    9606:	8082                	ret
    9608:	8121                	srli	a0,a0,0x8
    960a:	00003797          	auipc	a5,0x3
    960e:	6a278793          	addi	a5,a5,1698 # ccac <__clz_tab>
    9612:	97aa                	add	a5,a5,a0
    9614:	0007c503          	lbu	a0,0(a5)
    9618:	4761                	li	a4,24
    961a:	40a70533          	sub	a0,a4,a0
    961e:	8082                	ret
    9620:	010007b7          	lui	a5,0x1000
    9624:	00f56e63          	bltu	a0,a5,9640 <__clzsi2+0x5e>
    9628:	8161                	srli	a0,a0,0x18
    962a:	00003797          	auipc	a5,0x3
    962e:	68278793          	addi	a5,a5,1666 # ccac <__clz_tab>
    9632:	97aa                	add	a5,a5,a0
    9634:	0007c503          	lbu	a0,0(a5)
    9638:	4721                	li	a4,8
    963a:	40a70533          	sub	a0,a4,a0
    963e:	8082                	ret
    9640:	8141                	srli	a0,a0,0x10
    9642:	00003797          	auipc	a5,0x3
    9646:	66a78793          	addi	a5,a5,1642 # ccac <__clz_tab>
    964a:	97aa                	add	a5,a5,a0
    964c:	0007c503          	lbu	a0,0(a5)
    9650:	4741                	li	a4,16
    9652:	40a70533          	sub	a0,a4,a0
    9656:	8082                	ret

00009658 <_close>:
    9658:	05800793          	li	a5,88
    965c:	e8f1a223          	sw	a5,-380(gp) # 20000874 <errno>
    9660:	557d                	li	a0,-1
    9662:	8082                	ret

00009664 <_fstat>:
    9664:	05800793          	li	a5,88
    9668:	e8f1a223          	sw	a5,-380(gp) # 20000874 <errno>
    966c:	557d                	li	a0,-1
    966e:	8082                	ret

00009670 <_isatty>:
    9670:	05800793          	li	a5,88
    9674:	e8f1a223          	sw	a5,-380(gp) # 20000874 <errno>
    9678:	4501                	li	a0,0
    967a:	8082                	ret

0000967c <_lseek>:
    967c:	05800793          	li	a5,88
    9680:	e8f1a223          	sw	a5,-380(gp) # 20000874 <errno>
    9684:	557d                	li	a0,-1
    9686:	8082                	ret

00009688 <_read>:
    9688:	05800793          	li	a5,88
    968c:	e8f1a223          	sw	a5,-380(gp) # 20000874 <errno>
    9690:	557d                	li	a0,-1
    9692:	8082                	ret

00009694 <_exit>:
    9694:	a001                	j	9694 <_exit>
    9696:	0000                	unimp
    9698:	6e49                	lui	t3,0x12
    969a:	6176                	flw	ft2,92(sp)
    969c:	696c                	flw	fa1,84(a0)
    969e:	2064                	fld	fs1,192(s0)
    96a0:	6e69                	lui	t3,0x1a
    96a2:	7570                	flw	fa2,108(a0)
    96a4:	2074                	fld	fa3,192(s0)
    96a6:	6f20726f          	jal	tp,10d98 <_data_lma+0x3fec>
    96aa:	7475                	lui	s0,0xffffd
    96ac:	6f20                	flw	fs0,88(a4)
    96ae:	2066                	fld	ft0,88(sp)
    96b0:	6172                	flw	ft2,28(sp)
    96b2:	676e                	flw	fa4,216(sp)
    96b4:	2e65                	jal	9a6c <asc2_1206+0x20c>
    96b6:	000a                	c.slli	zero,0x2
    96b8:	5441                	li	s0,-16
    96ba:	4d43542b          	0x4d43542b
    96be:	5451                	li	s0,-12
    96c0:	5054                	lw	a3,36(s0)
    96c2:	4255                	li	tp,21
    96c4:	223d                	jal	97f2 <_exit+0x15e>
    96c6:	7424                	flw	fs1,104(s0)
    96c8:	6968                	flw	fa0,84(a0)
    96ca:	676e                	flw	fa4,216(sp)
    96cc:	2f70752f          	0x2f70752f
    96d0:	7270                	flw	fa2,100(a2)
    96d2:	7265706f          	j	60df8 <_data_lma+0x5404c>
    96d6:	7974                	flw	fa3,116(a0)
    96d8:	4a325a2f          	0x4a325a2f
    96dc:	4f35434b          	fnmsub.q	ft6,fa0,fs3,fs1,rmm
    96e0:	434c                	lw	a1,4(a4)
    96e2:	6d732f37          	lui	t5,0x6d732
    96e6:	7261                	lui	tp,0xffff8
    96e8:	4374                	lw	a3,68(a4)
    96ea:	7261                	lui	tp,0xffff8
    96ec:	2274                	fld	fa3,192(a2)
    96ee:	312c                	fld	fa1,96(a0)
    96f0:	222c                	fld	fa1,64(a2)
    96f2:	6d225c7b          	0x6d225c7b
    96f6:	7465                	lui	s0,0xffff9
    96f8:	6f68                	flw	fa0,92(a4)
    96fa:	5c64                	lw	s1,124(s0)
    96fc:	3a22                	fld	fs4,40(sp)
    96fe:	225c                	fld	fa5,128(a2)
    9700:	6572                	flw	fa0,28(sp)
    9702:	6f70                	flw	fa2,92(a4)
    9704:	7472                	flw	fs0,60(sp)
    9706:	225c                	fld	fa5,128(a2)
    9708:	5c2c                	lw	a1,120(s0)
    970a:	6322                	flw	ft6,8(sp)
    970c:	696c                	flw	fa1,84(a0)
    970e:	6e65                	lui	t3,0x19
    9710:	5474                	lw	a3,108(s0)
    9712:	6e656b6f          	jal	s6,5fdf8 <_data_lma+0x5304c>
    9716:	225c                	fld	fa5,128(a2)
    9718:	5c3a                	lw	s8,172(sp)
    971a:	3122                	fld	ft2,40(sp)
    971c:	3332                	fld	ft6,296(sp)
    971e:	225c                	fld	fa5,128(a2)
    9720:	5c2c                	lw	a1,120(s0)
    9722:	7022                	flw	ft0,40(sp)
    9724:	7261                	lui	tp,0xffff8
    9726:	6d61                	lui	s10,0x18
    9728:	3a225c73          	csrrwi	s8,pmpcfg2,4
    972c:	70225c7b          	0x70225c7b
    9730:	6f72                	flw	ft10,28(sp)
    9732:	7564                	flw	fs1,108(a0)
    9734:	44497463          	bgeu	s2,tp,9b7c <asc2_1206+0x31c>
    9738:	225c                	fld	fa5,128(a2)
    973a:	5c3a                	lw	s8,172(sp)
    973c:	2522                	fld	fa0,8(sp)
    973e:	2c225c73          	csrrwi	s8,0x2c2,4
    9742:	225c                	fld	fa5,128(a2)
    9744:	6441                	lui	s0,0x10
    9746:	6f64                	flw	fs1,92(a4)
    9748:	4472                	lw	s0,28(sp)
    974a:	6c65                	lui	s8,0x19
    974c:	7465                	lui	s0,0xffff9
    974e:	5c65                	li	s8,-7
    9750:	3a22                	fld	fs4,40(sp)
    9752:	225c                	fld	fa5,128(a2)
    9754:	7325                	lui	t1,0xfffe9
    9756:	225c                	fld	fa5,128(a2)
    9758:	7d7d                	lui	s10,0xfffff
    975a:	0d22                	slli	s10,s10,0x8
    975c:	000a                	c.slli	zero,0x2
    975e:	0000                	unimp
    9760:	4449                	li	s0,18
    9762:	0000                	unimp
    9764:	94e6                	add	s1,s1,s9
    9766:	e5b6                	fsw	fa3,200(sp)
    9768:	b088                	fsd	fa0,32(s1)
    976a:	bfe4                	fsd	fs1,248(a5)
    976c:	e6a1                	bnez	a3,97b4 <_exit+0x120>
    976e:	af81                	j	9ebe <asc2_1608+0x1ea>
    9770:	709abcef          	jal	s9,b5678 <_data_lma+0xa88cc>
    9774:	6f72                	flw	ft10,28(sp)
    9776:	7564                	flw	fs1,108(a0)
    9778:	44497463          	bgeu	s2,tp,9bc0 <asc2_1206+0x360>
    977c:	253d                	jal	9daa <asc2_1608+0xd6>
    977e:	00000a73          	0xa73
    9782:	0000                	unimp
    9784:	614e                	flw	ft2,208(sp)
    9786:	656d                	lui	a0,0x1b
    9788:	0000                	unimp
    978a:	0000                	unimp
    978c:	94e6                	add	s1,s1,s9
    978e:	e5b6                	fsw	fa3,200(sp)
    9790:	b088                	fsd	fa0,32(s1)
    9792:	bfe4                	fsd	fs1,248(a5)
    9794:	e6a1                	bnez	a3,97dc <_exit+0x148>
    9796:	af81                	j	9ee6 <asc2_1608+0x212>
    9798:	709abcef          	jal	s9,b56a0 <_data_lma+0xa88f4>
    979c:	6f72                	flw	ft10,28(sp)
    979e:	7564                	flw	fs1,108(a0)
    97a0:	614e7463          	bgeu	t3,s4,9da8 <asc2_1608+0xd4>
    97a4:	656d                	lui	a0,0x1b
    97a6:	253d                	jal	9dd4 <asc2_1608+0x100>
    97a8:	00000a73          	0xa73
    97ac:	7250                	flw	fa2,36(a2)
    97ae:	6369                	lui	t1,0x1a
    97b0:	0065                	c.nop	25
    97b2:	0000                	unimp
    97b4:	94e6                	add	s1,s1,s9
    97b6:	e5b6                	fsw	fa3,200(sp)
    97b8:	b088                	fsd	fa0,32(s1)
    97ba:	bfe4                	fsd	fs1,248(a5)
    97bc:	e6a1                	bnez	a3,9804 <_exit+0x170>
    97be:	af81                	j	9f0e <asc2_1608+0x23a>
    97c0:	709abcef          	jal	s9,b56c8 <_data_lma+0xa891c>
    97c4:	6f72                	flw	ft10,28(sp)
    97c6:	7564                	flw	fs1,108(a0)
    97c8:	72507463          	bgeu	zero,t0,9ef0 <asc2_1608+0x21c>
    97cc:	6369                	lui	t1,0x1a
    97ce:	5365                	li	t1,-7
    97d0:	7274                	flw	fa3,100(a2)
    97d2:	253d                	jal	9e00 <asc2_1608+0x12c>
    97d4:	00000a73          	0xa73
    97d8:	67696557          	0x67696557
    97dc:	7468                	flw	fa0,108(s0)
    97de:	0000                	unimp
    97e0:	94e6                	add	s1,s1,s9
    97e2:	e5b6                	fsw	fa3,200(sp)
    97e4:	b088                	fsd	fa0,32(s1)
    97e6:	bfe4                	fsd	fs1,248(a5)
    97e8:	e6a1                	bnez	a3,9830 <_exit+0x19c>
    97ea:	af81                	j	9f3a <asc2_1608+0x266>
    97ec:	709abcef          	jal	s9,b56f4 <_data_lma+0xa8948>
    97f0:	6f72                	flw	ft10,28(sp)
    97f2:	7564                	flw	fs1,108(a0)
    97f4:	65577463          	bgeu	a4,s5,9e3c <asc2_1608+0x168>
    97f8:	6769                	lui	a4,0x1a
    97fa:	7468                	flw	fa0,108(s0)
    97fc:	3d727453          	0x3d727453
    9800:	7325                	lui	t1,0xfffe9
    9802:	000a                	c.slli	zero,0x2
    9804:	7250                	flw	fa2,36(a2)
    9806:	6375646f          	jal	s0,6063c <_data_lma+0x53890>
    980a:	2074                	fld	fa3,192(s0)
    980c:	68746977          	0x68746977
    9810:	4920                	lw	s0,80(a0)
    9812:	2044                	fld	fs1,128(s0)
    9814:	7325                	lui	t1,0xfffe9
    9816:	6420                	flw	fs0,72(s0)
    9818:	6c65                	lui	s8,0x19
    981a:	7465                	lui	s0,0xffff9
    981c:	6465                	lui	s0,0x19
    981e:	0a2e                	slli	s4,s4,0xb
    9820:	0000                	unimp
    9822:	0000                	unimp
    9824:	7250                	flw	fa2,36(a2)
    9826:	6375646f          	jal	s0,6065c <_data_lma+0x538b0>
    982a:	2074                	fld	fa3,192(s0)
    982c:	68746977          	0x68746977
    9830:	4920                	lw	s0,80(a0)
    9832:	2044                	fld	fs1,128(s0)
    9834:	7325                	lui	t1,0xfffe9
    9836:	6e20                	flw	fs0,88(a2)
    9838:	6620746f          	jal	s0,10e9a <_data_lma+0x40ee>
    983c:	646e756f          	jal	a0,f0e82 <_data_lma+0xe40d6>
    9840:	0a2e                	slli	s4,s4,0xb
    9842:	0000                	unimp
    9844:	654d                	lui	a0,0x13
    9846:	6f6d                	lui	t5,0x1b
    9848:	7972                	flw	fs2,60(sp)
    984a:	6120                	flw	fs0,64(a0)
    984c:	6c6c                	flw	fa1,92(s0)
    984e:	7461636f          	jal	t1,1ff94 <_data_lma+0x131e8>
    9852:	6f69                	lui	t5,0x1a
    9854:	206e                	fld	ft0,216(sp)
    9856:	6166                	flw	ft2,88(sp)
    9858:	6c69                	lui	s8,0x1a
    985a:	6465                	lui	s0,0x19
    985c:	0a2e                	slli	s4,s4,0xb
	...

00009860 <asc2_1206>:
	...
    9870:	403f 0000 0000 0000 0000 0030 0040 0030     ?@........0.@.0.
    9880:	0040 0000 0009 c00b 003d c00b 003d 0009     @.......=...=...
    9890:	c018 4024 e07f 4022 8031 0000 0018 c024     ..$@.."@1.....$.
    98a0:	001b 800d 4032 8001 8003 401c 4027 801c     ....2@.....@'@..
    98b0:	4007 4000 0010 0060 0000 0000 0000 0000     .@.@..`.........
    98c0:	0000 0000 0000 801f 4020 2040 0000 2040     ........ @@ ..@ 
    98d0:	4020 801f 0000 0000 0009 0006 801f 0006      @..............
    98e0:	0009 0000 0004 0004 803f 0004 0004 0000     ........?.......
    98f0:	1000 6000 0000 0000 0000 0000 0004 0004     ...`............
    9900:	0004 0004 0004 0000 0000 4000 0000 0000     ...........@....
    9910:	0000 0000 2000 c001 0006 0038 0040 0000     ..... ....8.@...
    9920:	801f 4020 4020 4020 801f 0000 0000 4010     .. @ @ @.......@
    9930:	c03f 4000 0000 0000 c018 4021 4022 4024     ?..@......!@"@$@
    9940:	4018 0000 8010 4020 4024 4024 801b 0000     .@.... @$@$@....
    9950:	0002 000d 0011 c03f 4001 0000 803c 4024     ......?..@..<.$@
    9960:	4024 4024 8023 0000 801f 4024 4024 4034     $@$@#.....$@$@4@
    9970:	8003 0000 0030 0020 c027 0038 0020 0000     ....0. .'.8. ...
    9980:	801b 4024 4024 4024 801b 0000 001c c022     ..$@$@$@......".
    9990:	4022 4022 801f 0000 0000 0000 4008 0000     "@"@.........@..
	...
    99a8:	6004 0000 0000 0000 0000 0004 000a 0011     .`..............
    99b8:	8020 4040 0009 0009 0009 0009 0009 0000      .@@............
    99c8:	0000 4040 8020 0011 000a 0004 0018 0020     ..@@ ......... .
    99d8:	4023 0024 0018 0000 801f 4020 4027 4029     #@$....... @'@)@
    99e8:	401f 0000 4000 c007 0039 000f c001 4000     .@...@..9......@
    99f8:	4020 c03f 4024 4024 801b 0000 801f 4020      @?.$@$@...... @
    9a08:	4020 4020 8030 0000 4020 c03f 4020 4020      @ @0... @?. @ @
    9a18:	801f 0000 4020 c03f 4024 402e c030 0000     .... @?.$@.@0...
    9a28:	4020 c03f 4024 002e 0030 0000 000f 8010      @?.$@..0.......
    9a38:	4020 4022 8033 0002 4020 c03f 0004 0004      @"@3... @?.....
    9a48:	c03f 4020 4020 4020 c03f 4020 4020 0000     ?. @ @ @?. @ @..
    9a58:	6000 2020 2020 c03f 0020 0020 4020 c03f     .`    ?. . . @?.
    9a68:	4024 000b c030 4020 4020 c03f 4020 4000     $@..0. @ @?. @.@
    9a78:	4000 c000 c03f 003c c003 003c c03f 0000     .@..?.<...<.?...
    9a88:	4020 c03f 400c 0023 c03f 0020 801f 4020      @?..@#.?. ... @
    9a98:	4020 4020 801f 0000 4020 c03f 4024 0024      @ @.... @?.$@$.
    9aa8:	0018 0000 801f 4021 4021 e020 a01f 0000     ......!@!@ .....
    9ab8:	4020 c03f 4024 0026 c019 4000 c018 4024      @?.$@&....@..$@
    9ac8:	4024 4022 8031 0000 0030 4020 c03f 4020     $@"@1...0. @?. @
    9ad8:	0030 0000 0020 803f 4000 4000 803f 0020     0... .?..@.@?. .
    9ae8:	0020 003e c001 0007 0038 0020 0038 c007      .>.....8. .8...
    9af8:	003c c007 0038 0000 4020 c039 0006 c039     <...8... @9...9.
    9b08:	4020 0000 0020 4038 c007 4038 0020 0000      @.. .8@..8@ ...
    9b18:	4030 c021 4026 4038 c020 0000 0000 0000     0@!.&@8@ .......
    9b28:	e07f 2040 2040 0000 0000 0070 000c 8003     ..@ @ ....p.....
    9b38:	4000 0000 0000 2040 2040 e07f 0000 0000     .@....@ @ ......
    9b48:	0000 0020 0040 0020 0000 0000 1000 1000     .. .@. .........
    9b58:	1000 1000 1000 1000 0000 0000 0040 0000     ............@...
    9b68:	0000 0000 0000 8002 4005 4005 c003 4000     .........@.@...@
    9b78:	0020 c03f 4004 4004 8003 0000 0000 8003      .?..@.@........
    9b88:	4004 4004 4006 0000 0000 8003 4004 4024     .@.@.@.......@$@
    9b98:	c03f 4000 0000 8003 4005 4005 4003 0000     ?..@.....@.@.@..
    9ba8:	0000 4004 c01f 4024 4024 0020 0000 e002     ...@..$@$@ .....
    9bb8:	5005 5005 5006 2004 4020 c03f 4004 0004     .P.P.P.  @?..@..
    9bc8:	c003 4000 0000 4004 c027 4000 0000 0000     ...@...@'..@....
    9bd8:	1000 1000 1004 e027 0000 0000 4020 c03f     ......'..... @?.
    9be8:	4001 0007 c004 4004 4020 4020 c03f 4000     .@.....@ @ @?..@
    9bf8:	4000 0000 c007 0004 c007 0004 c003 0000     .@..............
    9c08:	4004 c007 4004 0004 c003 4000 0000 8003     .@...@.....@....
    9c18:	4004 4004 8003 0000 1004 f007 5004 4004     .@.@.........P.@
    9c28:	8003 0000 0000 8003 4004 5004 f007 1000     .........@.P....
    9c38:	4004 c007 4002 0004 0004 0000 0000 4006     .@...@.........@
    9c48:	4005 4005 c004 0000 0000 0004 801f 4004     .@.@...........@
    9c58:	4000 0000 0004 8007 4000 4004 c007 4000     .@.......@.@...@
    9c68:	0004 0007 c004 8001 0006 0004 0006 c001     ................
    9c78:	0007 c001 0006 0000 4004 c006 0001 c006     .........@......
    9c88:	4004 0000 1004 1007 e004 8001 0006 0004     .@..............
    9c98:	0000 4004 c005 4006 4004 0000 0000 0000     ...@...@.@......
    9ca8:	0004 e07b 2040 0000 0000 0000 0000 f0ff     ..{.@ ..........
    9cb8:	0000 0000 0000 2040 e07b 0004 0000 0000     ......@ {.......
    9cc8:	0040 0080 0040 0020 0020 0040               @...@. . .@.

00009cd4 <asc2_1608>:
	...
    9ce8:	0000 cc1f 0c00 0000 0000 0000 0000 0008     ................
    9cf8:	0030 0060 0008 0030 0060 0000 2002 fc03     0.`...0.`.... ..
    9d08:	201e 2002 fc03 201e 2002 0000 0000 180e     . . ... . ......
    9d18:	0411 ff3f 8410 780c 0000 0000 000f 8410     ..?....x........
    9d28:	380f c000 7807 8418 7800 0000 7800 840f     .8...x...x...x..
    9d38:	c410 2411 980e e400 8400 0800 0008 0068     ...$..........h.
    9d48:	0070 0000 0000 0000 0000 0000 0000 0000     p...............
    9d58:	0000 e007 1818 0420 0240 0000 0000 0240     ...... .@.....@.
    9d68:	0420 1818 e007 0000 0000 0000 4002 4002      ............@.@
    9d78:	8001 f00f 8001 4002 4002 0000 8000 8000     .......@.@......
    9d88:	8000 f80f 8000 8000 8000 0000 0100 0d00     ................
    9d98:	0e00 0000 0000 0000 0000 0000 0000 8000     ................
    9da8:	8000 8000 8000 8000 8000 8000 0000 0c00     ................
    9db8:	0c00 0000 0000 0000 0000 0000 0000 0600     ................
    9dc8:	1800 6000 8001 0006 0018 0020 0000 f007     ...`...... .....
    9dd8:	0808 0410 0410 0808 f007 0000 0000 0408     ................
    9de8:	0408 fc1f 0400 0400 0000 0000 0000 0c0e     ................
    9df8:	1410 2410 4410 8411 0c0e 0000 0000 180c     ...$.D..........
    9e08:	0410 0411 0411 8812 700c 0000 0000 e000     .........p......
    9e18:	2003 2404 2408 fc1f 2400 0000 0000 981f     . .$.$...$......
    9e28:	8410 0411 0411 8810 7010 0000 0000 f007     .........p......
    9e38:	8808 0411 0411 8818 7000 0000 0000 001c     .........p......
    9e48:	0010 fc10 0013 001c 0010 0000 0000 380e     ...............8
    9e58:	4411 8410 8410 4411 380e 0000 0000 0007     .D.....D.8......
    9e68:	8c08 4410 4410 8808 f007 0000 0000 0000     ...D.D..........
    9e78:	0000 0c03 0c03 0000 0000 0000 0000 0000     ................
    9e88:	0100 0601 0000 0000 0000 0000 0000 8000     ................
    9e98:	4001 2002 1004 0808 0410 0000 2002 2002     .@. ......... . 
    9ea8:	2002 2002 2002 2002 2002 0000 0000 0410     . . . . . ......
    9eb8:	0808 1004 2002 4001 8000 0000 0000 000e     ..... .@........
    9ec8:	0012 0c10 6c10 8010 000f 0000 e003 180c     .....l..........
    9ed8:	e413 2414 c417 2808 d007 0000 0400 3c00     ...$...(.......<
    9ee8:	c403 401c 4007 e400 1c00 0400 0410 fc1f     ...@.@..........
    9ef8:	0411 0411 0411 880e 7000 0000 e003 180c     .........p......
    9f08:	0410 0410 0410 0810 101c 0000 0410 fc1f     ................
    9f18:	0410 0410 0410 0808 f007 0000 0410 fc1f     ................
    9f28:	0411 0411 c417 0410 1808 0000 0410 fc1f     ................
    9f38:	0411 0011 c017 0010 0008 0000 e003 180c     ................
    9f48:	0410 0410 4410 781c 4000 0000 0410 fc1f     .....D.x.@......
    9f58:	8410 8000 8000 8410 fc1f 0410 0000 0410     ................
    9f68:	0410 fc1f 0410 0410 0000 0000 0300 0100     ................
    9f78:	0110 0110 fe1f 0010 0010 0000 0410 fc1f     ................
    9f88:	0411 8003 6414 1c18 0410 0000 0410 fc1f     .....d..........
    9f98:	0410 0400 0400 0400 0c00 0000 0410 fc1f     ................
    9fa8:	001f fc00 001f fc1f 0410 0000 0410 fc1f     ................
    9fb8:	040c 0003 e000 1810 fc1f 0010 f007 0808     ................
    9fc8:	0410 0410 0410 0808 f007 0000 0410 fc1f     ................
    9fd8:	8410 8010 8010 8010 000f 0000 f007 1808     ................
    9fe8:	2410 2410 1c10 0a08 f207 0000 0410 fc1f     .$.$............
    9ff8:	0411 0011 c011 3011 0c0e 0400 0000 1c0e     .......0........
    a008:	0411 8410 8410 4410 381c 0000 0018 0010     .......D.8......
    a018:	0410 fc1f 0410 0010 0018 0000 0010 f81f     ................
    a028:	0410 0400 0400 0410 f81f 0010 0010 001e     ................
    a038:	e011 1c00 7000 8013 001c 0010 c01f 3c10     .....p.........<
    a048:	e000 001f e000 3c10 c01f 0000 0410 0c18     .......<........
    a058:	3416 c001 c001 3416 0c18 0410 0010 001c     .4.....4........
    a068:	0413 fc00 0413 001c 0010 0000 0408 1c10     ................
    a078:	6410 8410 0413 041c 1810 0000 0000 0000     .d..............
    a088:	0000 fe7f 0240 0240 0240 0000 0000 0030     ....@.@.@.....0.
    a098:	000c 8003 6000 1c00 0300 0000 0000 0240     .....`........@.
    a0a8:	0240 0240 fe7f 0000 0000 0000 0000 0000     @.@.............
    a0b8:	0020 0040 0040 0040 0020 0000 0100 0100      .@.@.@. .......
    a0c8:	0100 0100 0100 0100 0100 0100 0000 0040     ..............@.
    a0d8:	0040 0020 0000 0000 0000 0000 0000 9800     @. .............
    a0e8:	2401 4401 4401 4401 fc00 0400 0010 fc1f     .$.D.D.D........
    a0f8:	8800 0401 0401 8800 7000 0000 0000 7000     .........p.....p
    a108:	8800 0401 0401 0401 8800 0000 0000 7000     ...............p
    a118:	8800 0401 0401 0811 fc1f 0400 0000 f800     ................
    a128:	4401 4401 4401 4401 c800 0000 0000 0401     .D.D.D.D........
    a138:	0401 fc0f 0411 0411 0011 0018 0000 d600     ................
    a148:	2901 2901 2901 c901 0601 0000 0410 fc1f     .).).)..........
    a158:	8400 0001 0001 0401 fc00 0400 0000 0401     ................
    a168:	0419 fc19 0400 0400 0000 0000 0000 0300     ................
    a178:	0100 0101 0119 fe19 0000 0000 0410 fc1f     ................
    a188:	2400 4000 b401 0c01 0401 0000 0000 0410     .$.@............
    a198:	0410 fc1f 0400 0400 0000 0000 0401 fc01     ................
    a1a8:	0401 0001 fc01 0401 0001 fc00 0401 fc01     ................
    a1b8:	8400 0001 0001 0401 fc00 0400 0000 f800     ................
    a1c8:	0401 0401 0401 0401 f800 0000 0101 ff01     ................
    a1d8:	8500 0401 0401 8800 7000 0000 0000 7000     .........p.....p
    a1e8:	8800 0401 0401 0501 ff01 0100 0401 0401     ................
    a1f8:	fc01 8400 0401 0001 8001 0000 0000 cc00     ................
    a208:	2401 2401 2401 2401 9801 0000 0000 0001     .$.$.$.$........
    a218:	0001 f807 0401 0401 0000 0000 0001 f801     ................
    a228:	0400 0400 0400 0801 fc01 0400 0001 8001     ................
    a238:	7001 0c00 1000 6001 8001 0001 f001 0c01     .p.....`........
    a248:	3000 c001 3000 0c01 f001 0001 0000 0401     .0...0..........
    a258:	8c01 7400 7001 8c01 0401 0000 0101 8101     ...t.p..........
    a268:	7101 0e00 1800 6001 8001 0001 0000 8401     .q.....`........
    a278:	0c01 3401 4401 8401 0c01 0000 0000 0000     ...4.D..........
    a288:	0000 0000 0001 fc3e 0240 0240 0000 0000     ......>.@.@.....
    a298:	0000 0000 ffff 0000 0000 0000 0000 0240     ..............@.
    a2a8:	0240 fc3e 0001 0000 0000 0000 0000 0060     @.>...........`.
    a2b8:	0080 0080 0040 0040 0020 0020               ....@.@. . .

0000a2c4 <asc2_2412>:
	...
    a2f4:	0000 0f00 3880 fe0f 0f38 3880 0000 0000     .....8..8..8....
	...
    a310:	0000 0001 0600 0000 000c 3800 0000 0031     ...........8..1.
    a320:	0600 0000 000c 3800 0000 0030 0000 0000     .......8..0.....
    a330:	0000 0000 8061 6700 07f8 80f9 6100 0080     ....a..g.....a..
    a340:	8061 6100 0080 8061 6700 07f8 80f9 6100     a..a..a..g.....a
    a350:	0080 0000 0000 0000 0000 c001 03e0 f0e0     ................
    a360:	3006 0408 0818 ff1f 04fe 080e 8707 03f0     .0..............
    a370:	e081 0000 0000 0000 f001 0600 000c 0404     ................
    a380:	0608 700c f901 00c0 000e 3b00 00e0 18ec     ...p.......;....
    a390:	0807 0408 180c 0300 00e0 0000 0100 00e0     ................
    a3a0:	f007 f803 0418 081c 1704 0708 d0e1 c003     ................
    a3b0:	00e0 b023 3c00 0008 0820 0000 0010 0000     ..#..<.. .......
    a3c0:	0000 0100 0000 0031 3200 0000 001c 0000     ......1..2......
	...
    a3f4:	007f ff01 07c0 f080 000c 1018 0400 0020     .............. .
    a404:	0002 0000 0000 2000 0200 0010 0c04 1800     ....... ........
    a414:	8007 01f0 c0ff 7f00 0000 0000 0000 0000     ................
	...
    a430:	0042 6600 0000 0066 3c00 0000 0018 ff03     B..f..f..<......
    a440:	00c0 0018 3c00 0000 0066 6600 0000 0042     .....<..f..f..B.
    a450:	0000 0000 0008 0800 0000 0008 0800 0000     ................
    a460:	0008 ff01 00c0 0008 0800 0000 0008 0800     ................
    a470:	0000 0008 0000 0000 0100 0000 0031 3200     ............1..2
    a480:	0000 001c 0000 0000 0000 0000 0000 0000     ................
	...
    a49c:	0008 0800 0000 0008 0800 0000 0008 0800     ................
    a4ac:	0000 0008 0800 0000 0008 0800 0000 0000     ................
	...
    a4c4:	0038 3800 0000 0038 0000 0000 0000 0000     8..8..8.........
	...
    a4e4:	0600 0000 001c 7000 0100 0080 000e 3800     .......p.......8
    a4f4:	0000 00c0 0007 1c00 0000 0030 0000 0000     ..........0.....
    a504:	0000 0000 807f ff01 03e0 7080 0006 0418     ...........p....
    a514:	0800 0004 0608 1800 8003 0170 e0ff 7f00     ..........p.....
    a524:	0080 0000 0000 0000 0000 0001 0108 0800     ................
    a534:	0001 0308 f8ff ff07 00f8 0800 0000 0008     ................
    a544:	0800 0000 0000 0000 0000 0100 38c0 c002     .............8..
    a554:	0458 9800 0104 0418 1802 0404 0618 181c     X...............
    a564:	f803 0118 f8e0 0000 0000 0000 0000 0100     ................
    a574:	e0c0 c003 04f0 0800 0804 0408 0808 1806     ................
    a584:	0308 18f4 e701 00f0 e001 0000 0000 0000     ................
    a594:	0000 0000 0003 0d00 0000 0011 6100 0000     .............a..
    a5a4:	0881 0103 0708 f8ff ff0f 00f8 0801 0100     ................
    a5b4:	0008 0000 0000 0000 e000 fc07 06d0 0808     ................
    a5c4:	1006 0608 0810 1006 0608 3818 0f06 06f0     ...........8....
    a5d4:	c007 0000 0000 0000 0000 0000 803f ff01     ............?...
    a5e4:	03e0 3084 0802 0418 0810 1004 0408 0810     ...0............
    a5f4:	1807 0310 f00f 0700 00c0 0000 0000 0000     ................
    a604:	0000 c003 0700 0000 0006 0600 f800 0706     ................
    a614:	06f8 0018 e006 0700 0000 0006 0000 0000     ................
    a624:	0000 0100 e0e1 f703 06f0 1034 1804 0408     ..........4.....
    a634:	0818 0c04 0408 080c 1606 0318 f0f3 c101     ................
    a644:	00e0 0000 0000 0000 00f8 fc03 0330 3806     ............0..8
    a654:	0204 0408 0802 0204 0408 1004 0803 01f0     ................
    a664:	c0ff 7f00 0000 0000 0000 0000 0000 0000     ................
	...
    a67c:	3870 7000 0038 3870 0000 0000 0000 0000     p8.p8.p8........
	...
    a6a0:	1a30 3000 001c 0000 0000 0000 0000 0000     0..0............
	...
    a6b8:	0000 0800 0000 0014 2200 0000 0041 8000     ........."..A...
    a6c8:	0180 4000 0002 0420 1000 0008 0008 0000     ...@.. .........
    a6d8:	0000 0000 0021 2100 0000 0021 2100 0000     ....!..!..!..!..
    a6e8:	0021 2100 0000 0021 2100 0000 0021 2100     !..!..!..!..!..!
	...
    a700:	0000 0008 0408 1000 0002 0120 4000 8000     .......... ..@..
    a710:	0080 0041 2200 0000 0014 0800 0000 0000     ..A.."..........
    a720:	0000 0300 00c0 c004 0400 0000 0008 0838     ..............8.
    a730:	380f 0808 0838 0010 300c 0700 00e0 c003     .8..8....0......
	...
    a748:	803f ff00 03e0 7080 0f02 0610 8870 c004     ?......p....p...
    a758:	0488 0883 7f04 0288 90c0 0103 0020 40fe     ............ ..@
    a768:	0000 0008 1800 0100 00f8 083e c201 0700     ..........>.....
    a778:	0002 e207 0000 00fe 1f00 00c8 f801 0000     ................
    a788:	0038 0800 0004 0708 f8ff ff07 04f8 0808     8...............
    a798:	0804 0408 0808 0804 0608 0818 f403 0118     ................
    a7a8:	f0e7 0100 00e0 0000 0000 0000 803f ff01     ............?...
    a7b8:	03e0 7080 0002 0418 0800 0004 0408 0800     ...p............
    a7c8:	0004 0610 2000 8007 00c0 0000 0004 0708     ..... ..........
    a7d8:	f8ff ff07 04f8 0800 0004 0408 0800 0004     ................
    a7e8:	0218 1000 8003 0170 e0ff 7f00 0080 0000     ......p.........
    a7f8:	0004 0708 f8ff ff07 04f8 0808 0804 0408     ................
    a808:	0808 0804 0408 083e 0004 0608 1800 0001     ......>.........
    a818:	0060 0000 0004 0708 f8ff ff07 04f8 0808     `...............
    a828:	0804 0400 0008 0804 0400 003e 0006 0600     ..........>.....
    a838:	0000 8001 0000 0000 0000 0000 803f ff01     ............?...
    a848:	03e0 7080 0006 0418 0800 0204 0408 0802     ...p............
    a858:	0302 07f0 f083 0200 0000 0002 0004 0708     ................
    a868:	f8ff ff07 04f8 0808 0800 0000 0008 0800     ................
    a878:	0000 0008 0804 0708 f8ff ff07 04f8 0800     ................
    a888:	0000 0000 0000 0004 0408 0800 0004 0708     ................
    a898:	f8ff ff07 04f8 0800 0004 0408 0800 0000     ................
	...
    a8b0:	0600 0000 0007 0100 0004 0401 0100 0004     ................
    a8c0:	0703 feff ff07 04fc 0000 0004 0400 0000     ................
    a8d0:	0004 0708 f8ff ff07 04f8 080c 1800 0000     ................
    a8e0:	003e c704 0580 c803 0006 04f8 3800 0004     >............8..
    a8f0:	0018 0800 0004 0708 f8ff ff07 04f8 0800     ................
    a900:	0000 0008 0800 0000 0008 0800 0000 0008     ................
    a910:	1800 0000 0060 0000 0004 0708 f8ff 8007     ....`...........
    a920:	0708 00fc 7f00 00c0 f803 0700 00c0 0078     ..............x.
    a930:	8007 0708 f8ff ff07 04f8 0800 0004 0708     ................
    a940:	f8ff 0007 0308 00c0 e000 0000 0038 1e00     ............8...
    a950:	0000 0007 0100 04c0 f000 ff07 04f8 0000     ................
    a960:	0000 0000 807f ff01 03e0 7080 0006 0418     ...........p....
    a970:	0800 0004 0608 1800 0003 0130 e0ff 7f00     ..........0.....
    a980:	0080 0000 0004 0708 f8ff ff07 04f8 0804     ................
    a990:	0404 0400 0004 0404 0400 0004 0c06 0300     ................
    a9a0:	00f8 f001 0000 0000 0000 0000 807f ff01     ................
    a9b0:	03e0 7080 0006 0488 8800 0004 06c8 3c00     ...p...........<
    a9c0:	0003 013e e6ff 7f00 0084 0000 0004 0708     ..>.............
    a9d0:	f8ff ff07 04f8 0808 0804 0400 000c 0f04     ................
    a9e0:	0400 c00b 1006 03f0 38f0 e001 0008 0800     .........8......
    a9f0:	0000 0100 f8e0 f003 0630 1030 1804 0408     ........0.0.....
    aa00:	0818 0c04 0408 080c 0602 0218 f007 8107     ................
    aa10:	00e0 0000 8001 0600 0000 0004 0400 0000     ................
    aa20:	0004 0708 f8ff ff07 04f8 0800 0004 0400     ................
    aa30:	0000 0006 0100 0080 0004 0700 e0ff ff07     ................
    aa40:	04f0 1800 0000 0008 0800 0000 0008 0800     ................
    aa50:	0000 0408 1000 ff07 04e0 0000 0004 0600     ................
    aa60:	0000 e007 0700 00fe 1f04 00e0 f801 0000     ................
    aa70:	0038 e001 3e04 0700 00c0 0006 0400 0000     8....>..........
    aa80:	0004 0700 00e0 ff07 04c0 f81f 0700 07c0     ................
    aa90:	00f8 ff07 0480 f83f 0700 04c0 00f8 0007     ......?.........
    aaa0:	0400 0000 0000 0400 0800 0006 0718 78c0     ...............x
    aab0:	f105 00c8 003e 1f00 0480 e863 8007 06f8     ....>.....c.....
    aac0:	1800 0004 0008 0000 0004 0600 0000 8007     ................
    aad0:	0700 08e0 7c04 0008 f81f 0700 00f8 0818     .....|..........
    aae0:	e004 0708 0000 0006 0400 0000 0000 0100     ................
    aaf0:	0800 0006 0438 f800 0304 04e8 080f 7c04     ....8..........|
    ab00:	0508 08f0 c007 0708 1800 0004 0060 0000     ............`...
	...
    ab1c:	0000 3f00 feff 0020 2002 0200 0020 2002     ...?.. .. .. .. 
    ab2c:	0200 0020 0002 0000 0000 0000 0000 0008     .. .............
    ab3c:	0700 0000 c000 0000 0038 0600 0000 c001     ........8.......
    ab4c:	0000 0030 0e00 0000 0001 0000 0000 0000     ..0.............
    ab5c:	0000 0020 2002 0200 0020 2002 0200 0020     .. .. .. .. .. .
    ab6c:	3f02 feff 0000 0000 0000 0000 0000 0000     .?..............
	...
    ab84:	0800 0000 0010 3000 0000 0020 3000 0000     .......0.. ..0..
    ab94:	0010 0800 0000 0000 0000 0000 0000 0001     ................
    aba4:	0100 0000 0001 0100 0000 0001 0100 0000     ................
    abb4:	0001 0100 0000 0001 0100 0000 0001 0100     ................
	...
    abcc:	2000 0000 0020 1000 0000 0010 0000 0000     . .. ...........
	...
    abec:	f000 1900 00f8 181b 2200 0008 0826 2400     ........."..&..$
    abfc:	0008 1024 3f00 00f8 f81f 0000 0008 1800     ..$..?..........
    ac0c:	0000 0400 0000 ff07 0ff8 f0ff 1800 0018     ................
    ac1c:	0810 2000 0008 0820 3000 0018 f01f 0f00     ... .. ..0......
    ac2c:	00c0 0000 0000 0000 c007 1f00 00f0 3018     ...............0
    ac3c:	2000 0008 0820 2000 0008 083c 1c00 0010     . .. .. ..<.....
    ac4c:	6000 0000 0000 0000 0000 0000 c007 1f00     .`..............
    ac5c:	00f0 1838 2000 0008 0820 2000 0408 1010     ..8.. .. .. ....
    ac6c:	ff07 0ff8 f0ff 0000 0010 0000 0000 0000     ................
    ac7c:	0000 0700 00c0 f01f 1200 0030 1822 2200     ..........0.".."
    ac8c:	0008 0822 3200 0008 101e 0e00 0020 0000     .."..2...... ...
    ac9c:	0000 0000 0020 2000 0008 0820 ff01 03f8     .... .. .. .....
    acac:	f8ff 2006 0408 0820 2004 0708 0020 0003     ... .. .. .. ...
	...
    acc4:	0e00 0e00 006e f31f 3100 00b1 b120 2000     ....n....1.. .. 
    acd4:	00b1 9131 1f00 0013 1e2e 2000 000e 0030     ..1........ ..0.
    ace4:	0000 0400 0800 ff07 0ff8 f8ff 1000 0008     ................
    acf4:	0020 2000 0000 0820 3f00 00f8 f81f 0000      .. .. ..?......
    ad04:	0008 0000 0000 0000 0000 2000 0008 0820     ........... .. .
    ad14:	2000 0608 f83f 3f06 00f8 0800 0000 0008     . ..?..?........
    ad24:	0800 0000 0000 0000 0000 0000 0000 0000     ................
    ad34:	0003 0300 2000 0001 0120 2000 0603 fe3f     ..... .. .. ..?.
    ad44:	3f06 00fc 0000 0000 0000 0000 0000 0400     .?..............
    ad54:	0800 ff07 0ff8 f8ff 0100 0088 0003 2f00     .............../
    ad64:	00c0 f838 2000 0038 0820 0000 0008 0000     ..8.. 8. .......
    ad74:	0000 0000 0000 0004 0408 0800 0004 0708     ................
    ad84:	f8ff ff0f 00f8 0800 0000 0008 0800 0000     ................
    ad94:	0000 0000 2000 0008 f83f 3f00 00f8 0810     ..... ..?..?....
    ada4:	2000 0000 f83f 3f00 00f8 0810 2000 0000     . ..?..?..... ..
    adb4:	f83f 3f00 00f8 0800 0000 0000 0820 3f00     ?..?........ ..?
    adc4:	00f8 f83f 1000 0008 0010 2000 0000 0820     ..?........ .. .
    add4:	3f00 00f8 f81f 0000 0008 0000 0000 0000     .?..............
    ade4:	c007 0f00 00f0 3018 3000 0008 0820 2000     .......0.0.. .. 
    adf4:	0008 0830 1800 0030 f00f 0700 00c0 0000     ..0...0.........
    ae04:	0000 0000 0120 3f00 00ff ff3f 1000 0011     .... ..?..?.....
    ae14:	0920 2000 0008 0820 3000 0038 f01f 0f00      .. .. ..08.....
    ae24:	00c0 0000 0000 0000 c007 1f00 00f0 1838     ..............8.
    ae34:	2000 0008 0820 2000 0009 1110 1f00 00ff     . .. .. ........
    ae44:	ff3f 0000 0001 0000 2000 0008 0820 2000     ?........ .. .. 
    ae54:	0008 f83f 3f00 00f8 0808 1000 0008 0820     ..?..?........ .
    ae64:	2000 0000 0030 3000 0000 0000 0000 0000     . ..0..0........
    ae74:	0000 0c00 0078 181e 3300 0008 0823 2100     ....x....3..#..!
    ae84:	0008 8821 2100 0098 f030 3800 0060 0000     ..!..!..0..8`...
    ae94:	0000 0000 0020 2000 0000 0020 ff00 03f0     .... .. .. .....
    aea4:	f8ff 2000 0008 0820 2000 0008 3000 0000     ... .. .. ...0..
	...
    aebc:	0020 3f00 00f0 f87f 0000 0018 0800 0000      ..?............
    aecc:	0008 1020 3f00 00f8 f07f 0000 0010 0000     .. ..?..........
    aedc:	0000 0000 0020 3000 0000 003c 3f00 0080     .... ..0..<..?..
    aeec:	f023 0000 0078 7000 2300 0080 003c 3000     #...x..p.#..<..0
    aefc:	0000 0020 2000 0000 003c 3f00 00e0 f823     .. .. ..<..?..#.
    af0c:	0000 00e0 0027 3e00 0000 e03f 2100 00f8     ....'..>..?..!..
    af1c:	e001 3e00 0000 0020 0000 0000 0820 2000     ...>.. ..... .. 
    af2c:	0008 3838 3e00 0068 8027 0300 00c8 f82c     ..88.>h.'.....,.
    af3c:	3800 0038 1820 2000 0008 0000 0000 0000     .88. .. ........
    af4c:	0020 3000 0003 013c 3f00 0083 ec23 0000      ..0..<..?..#...
    af5c:	0070 8023 3c00 0000 0020 2000 0000 0000     p.#..<.. .. ....
    af6c:	0000 0000 0000 3800 0008 3820 2000 00f8     .......8.. 8. ..
    af7c:	e823 2f00 0088 083e 3800 0008 1820 0000     #../..>..8.. ...
    af8c:	0070 0000 0000 0000 0000 0000 0000 0000     p...............
    af9c:	0000 0000 0008 1400 1f00 fcf7 0030 2006     ............0.. 
    afac:	0200 0000 0000 0000 0000 0000 0000 0000     ................
	...
    afc4:	0000 ffff 00ff 0000 0000 0000 0000 0000     ................
	...
    afdc:	0000 0020 3002 0600 f71f 00fc 0014 0800     .. ..0..........
	...
    affc:	0000 1800 0000 0060 4000 0000 0040 2000     ......`..@..@.. 
    b00c:	0000 0010 0800 0000 0004 0400 0000 000c     ................
    b01c:	1000 0000                                   ....

0000b020 <asc2_3216>:
	...
    b078:	f007 c000 ff07 e0e1 f007 e001 0000 c000     ................
	...
    b0a8:	2000 0000 c001 0000 8007 0000 001f 0000     . ..............
    b0b8:	001e 0000 201c 0000 c001 0000 8007 0000     ..... ..........
    b0c8:	001f 0000 001e 0000 001c 0000 0000 0000     ................
	...
    b0e4:	1800 000c 1800 000c 1800 e00f 1f00 00fc     ................
    b0f4:	f803 000c 1800 000c 1800 000c 1800 000c     ................
    b104:	1800 000c 1800 e00f 1f00 00fc f803 000c     ................
    b114:	1800 000c 1800 000c 0000 0000 0000 0000     ................
    b124:	0000 0000 0000 8007 7800 c007 fc00 4006     .........x.....@
    b134:	0e01 2000 0703 2000 0302 2080 ff0f fcff     ... ... ... ....
    b144:	0102 20c0 0002 60e0 3001 4070 f001 803f     ... ...`.0p@..?.
    b154:	f000 001f 0000 0000 0000 0000 fe00 0000     ................
    b164:	ff01 0000 0103 0080 0002 6080 0103 c081     ...........`....
    b174:	ff01 0007 fe00 0018 0000 00e0 0300 00bf     ................
    b184:	0c00 c0ff 7100 6080 c101 2000 0103 6080     .....q.`... ...`
    b194:	0000 c0ff 0000 003f 0000 0000 0000 001f     ......?.........
    b1a4:	0000 c07f fc00 c0c0 ff01 6080 0303 20e0     ...........`... 
    b1b4:	0202 2078 0602 201e fc03 4007 f001 8003     ..x ... ...@....
    b1c4:	0100 c003 0100 601c 0100 20e0 0100 2000     .......`... ... 
    b1d4:	0100 4000 0000 8001 0000 0000 0000 0000     ...@............
    b1e4:	2000 0000 601c 0000 401c 0000 801f 0000     . ...`...@......
    b1f4:	000f 0000 0000 0000 0000 0000 0000 0000     ................
	...
    b23c:	0700 00f8 3f00 00ff 7800 c007 c001 e000     .....?...x......
    b24c:	0003 3000 0004 0800 0008 0400 0010 0200     ...0............
	...
    b264:	0010 0200 0008 0400 0004 0800 0003 3000     ...............0
    b274:	c001 e000 7800 c007 3f00 00ff 0700 00f8     .....x...?......
	...
    b2a8:	0c00 0018 0e00 0038 0e00 0038 0600 0030     ......8...8...0.
    b2b8:	0300 0060 6100 8043 ff00 80ff 6100 0043     ..`..aC......aC.
    b2c8:	0300 0060 0600 0030 0e00 0038 0e00 0038     ..`...0...8...8.
    b2d8:	0c00 0018 0000 0000 0000 0000 0000 0000     ................
    b2e8:	0000 0080 0000 0080 0000 0080 0000 0080     ................
    b2f8:	0000 0080 0000 0080 7f00 00ff 0000 0080     ................
    b308:	0000 0080 0000 0080 0000 0080 0000 0080     ................
    b318:	0000 0080 0000 0000 0000 0000 0000 0100     ................
    b328:	0000 e300 0000 e200 0000 fc00 0000 7800     ...............x
	...
    b364:	0000 0080 0000 0080 0000 0080 0000 0080     ................
    b374:	0000 0080 0000 0080 0000 0080 0000 0080     ................
    b384:	0000 0080 0000 0080 0000 0080 0000 0080     ................
    b394:	0000 0080 0000 0080 0000 0000 0000 0000     ................
    b3a4:	0000 0000 0000 c000 0000 e001 0000 e001     ................
    b3b4:	0000 c000 0000 0000 0000 0000 0000 0000     ................
	...
    b3e4:	0000 0c00 0000 3800 0000 e000 0000 8003     .......8........
    b3f4:	0000 000e 0000 0038 0000 00e0 0300 0080     ......8.........
    b404:	0e00 0000 3800 0000 e000 0000 8003 0000     .....8..........
    b414:	000e 0000 0018 0000 0000 0000 0000 0000     ................
    b424:	0000 0000 0f00 00f8 7f00 00ff f000 8007     ................
    b434:	8001 c000 0003 6000 0002 2000 0002 2000     .......`... ... 
    b444:	0002 2000 0003 6000 8001 c000 e000 8003     ... ...`........
    b454:	7f00 00ff 0f00 00f8 0000 0000 0000 0000     ................
	...
    b46c:	8000 2000 8000 2000 8000 2000 8000 6000     ... ... ... ...`
    b47c:	ff01 e0ff ff03 e0ff 0000 6000 0000 2000     ...........`... 
    b48c:	0000 2000 0000 2000 0000 0000 0000 0000     ... ... ........
	...
    b4a8:	7800 e000 9800 6001 0001 6002 0002 6004     .x.....`...`...`
    b4b8:	0002 6008 0002 6010 0002 6020 0002 6040     ...`...`.. `..@`
    b4c8:	0003 6080 8301 6000 fe01 e000 7c00 8007     ...`...`.....|..
	...
    b4e8:	f000 8007 f001 c007 0001 4000 0002 2000     ...........@... 
    b4f8:	0102 2000 0102 2000 0102 2000 0303 2080     ... ... ... ... 
    b508:	8601 4080 fc01 c0c0 7800 807f 0000 001e     ...@.....x......
	...
    b524:	0000 0008 0000 0038 0000 0048 0100 0088     ......8...H.....
    b534:	0600 0008 0c00 1008 3000 1008 4000 1008     .........0...@..
    b544:	ff01 f0ff ff03 f0ff ff03 f0ff 0000 1008     ................
    b554:	0000 1008 0000 1008 0000 0000 0000 0000     ................
    b564:	0000 0000 0000 8007 1f00 4086 e103 2000     ...........@... 
    b574:	0203 2000 0403 2000 0403 2000 0403 2000     ... ... ... ... 
    b584:	0403 2000 0603 4000 0303 c001 0103 80ff     ... ...@........
    b594:	0003 007e 0000 0000 0000 0000 0000 0000     ..~.............
    b5a4:	0000 0000 0700 00fc 3f00 00ff 7000 80c3     .........?...p..
    b5b4:	8100 c080 0101 6000 0203 2000 0202 2000     .......`... ... 
    b5c4:	0202 2000 0202 2000 0302 4000 c101 c080     ... ... ...@....
    b5d4:	c000 80ff 0000 007e 0000 0000 0000 0000     ......~.........
    b5e4:	0000 0000 f000 0000 c003 0000 8003 0000     ................
    b5f4:	0003 0000 0003 e007 0003 e03f 0103 00c0     ..........?.....
    b604:	0603 0000 1803 0000 6003 0000 8003 0000     .........`......
    b614:	0003 0000 0000 0000 0000 0000 0000 0000     ................
    b624:	0000 001f 7800 803f fc00 c060 8e01 40c0     .....x?...`....@
    b634:	0703 2080 0302 2000 0102 2080 0102 2080     ... ... ... ... 
    b644:	0102 20c0 0103 40e0 8601 c070 fc00 803f     ... ...@..p...?.
    b654:	7800 001f 0000 0000 0000 0000 0000 0000     .x..............
    b664:	3f00 0000 ff00 c081 c001 c0c1 0001 2060     .?............` 
    b674:	0002 2020 0002 2020 0002 2020 0002 6020     ..  ..  ..  .. `
    b684:	0002 c040 0001 80c1 c100 008f 7f00 00fe     ..@.............
    b694:	1f00 00f0 0000 0000 0000 0000 0000 0000     ................
	...
    b6b8:	0300 c000 0700 e081 0700 e081 0300 c000     ................
	...
    b6f8:	0600 6600 0600 7800 0000 0000 0000 0000     ...f...x........
	...
    b728:	0000 0080 0100 00c0 0300 0060 0600 0030     ..........`...0.
    b738:	0c00 0018 1800 000c 3000 0006 6000 0003     .........0...`..
    b748:	c000 8001 0001 4000 0002 2000 0004 1000     .......@... ....
	...
    b764:	0400 0010 0400 0010 0400 0010 0400 0010     ................
    b774:	0400 0010 0400 0010 0400 0010 0400 0010     ................
    b784:	0400 0010 0400 0010 0400 0010 0400 0010     ................
    b794:	0400 0010 0400 0010 0000 0000 0000 0000     ................
    b7a4:	0000 0000 0004 1000 0002 2000 0001 4000     ........... ...@
    b7b4:	c000 8001 6000 0003 3000 0006 1800 000c     .....`...0......
    b7c4:	0c00 0018 0600 0030 0300 0060 0100 00c0     ......0...`.....
    b7d4:	0000 0080 0000 0000 0000 0000 0000 0000     ................
    b7e4:	0000 0000 7800 0000 f801 0000 3802 0000     .....x.......8..
    b7f4:	0002 0000 0004 c000 0004 e079 0004 e081     ..........y.....
    b804:	0104 c000 0304 0000 0202 0000 0603 0000     ................
    b814:	fc01 0000 f800 0000 0000 0000 0000 0000     ................
    b824:	0f00 00f8 3f00 00fe 7000 8007 c000 c000     .....?...p......
    b834:	0101 40f8 0703 20fc 1e02 2004 3002 2008     ...@... ... .0. 
    b844:	2002 2030 3f02 20fc 3f01 4004 8001 c00c     . 0 .?. .?.@....
    b854:	e000 8031 1f00 00c2 0000 0000 0000 2000     ..1............ 
    b864:	0000 6000 0000 e003 0000 203e 0300 20e0     ...`......> ... 
    b874:	3e00 0020 e003 0020 8003 0020 fc07 0020     .> ... ... ... .
    b884:	3f00 00e0 0300 20fe 0000 e03f 0000 e001     .?..... ..?.....
    b894:	0000 2000 0000 2000 0000 0000 0000 0000     ... ... ........
    b8a4:	0002 2000 0002 2000 ff03 e0ff ff03 e0ff     ... ... ........
    b8b4:	0102 2000 0102 2000 0102 2000 0102 2000     ... ... ... ... 
    b8c4:	0102 2000 0303 2000 8601 6080 fc01 c0c0     ... ... ...`....
    b8d4:	f800 807f 0000 001f 0000 0000 0000 0000     ................
    b8e4:	0700 00f8 3f00 00ff 7000 8007 c000 c000     .....?...p......
    b8f4:	0001 4000 0003 2000 0002 2000 0002 2000     ...@... ... ... 
    b904:	0002 2000 0002 2000 0001 4000 8001 c000     ... ... ...@....
    b914:	c003 8001 3000 0006 0000 0000 0000 0000     .....0..........
    b924:	0002 2000 0002 2000 ff03 e0ff ff03 e0ff     ... ... ........
    b934:	0002 2000 0002 2000 0002 2000 0002 2000     ... ... ... ... 
    b944:	0003 6000 0001 4000 8001 c000 f000 8007     ...`...@........
    b954:	7f00 00fe 0f00 00f8 0000 0000 0000 0000     ................
    b964:	0002 2000 0002 2000 ff03 e0ff ff03 e0ff     ... ... ........
    b974:	0102 2000 0102 2000 0102 2000 0102 2000     ... ... ... ... 
    b984:	0102 2000 0302 2080 0f02 20e0 0003 6000     ... ... ... ...`
    b994:	c003 e000 6000 0003 0000 0000 0000 0000     .....`..........
    b9a4:	0002 2000 0002 2000 ff03 e0ff ff03 e0ff     ... ... ........
    b9b4:	0102 2000 0102 2000 0102 0000 0102 0000     ... ... ........
    b9c4:	0102 0000 0102 0000 0302 0080 0f03 00e0     ................
    b9d4:	0003 0000 c003 0000 6000 0000 0000 0000     .........`......
    b9e4:	0700 00f8 3f00 00fe 7000 8007 c001 c001     .....?...p......
    b9f4:	0001 4000 0003 2000 0002 2000 0002 2000     ...@... ... ... 
    ba04:	0002 2000 0001 2020 0001 4020 c003 803f     ... ..  .. @..?.
    ba14:	3000 803f 0000 0020 0000 0020 0002 2000     .0?... ... .... 
    ba24:	0002 2000 ff03 e0ff ff03 e0ff 0002 2080     ... ........... 
    ba34:	0002 2080 0000 0080 0000 0080 0000 0080     ... ............
    ba44:	0002 2080 0002 2080 ff03 e0ff ff03 e0ff     ... ... ........
    ba54:	0002 2000 0002 2000 0000 0000 0000 0000     ... ... ........
	...
    ba6c:	0002 2000 0002 2000 0002 2000 0002 2000     ... ... ... ... 
    ba7c:	ff03 e0ff ff03 e0ff 0002 2000 0002 2000     ........... ... 
    ba8c:	0002 2000 0002 2000 0000 0000 0000 0000     ... ... ........
	...
    baa4:	0000 0e00 0000 0f00 0000 0f00 0000 0100     ................
    bab4:	0002 0100 0002 0100 0002 0300 0002 0600     ................
    bac4:	ff03 fcff ff03 f8ff 0002 0000 0002 0000     ................
    bad4:	0002 0000 0002 0000 0000 0000 0000 0000     ................
    bae4:	0002 2000 0002 2000 ff03 e0ff ff03 e0ff     ... ... ........
    baf4:	0002 20c0 0102 2000 0700 0080 0f00 00e0     ... ... ........
    bb04:	3000 00f8 6002 203e 8003 200f 0003 e003     .0...`> ... ....
    bb14:	0002 e000 0002 2000 0000 2000 0000 0000     ....... ... ....
    bb24:	0002 2000 0002 2000 ff03 e0ff ff03 e0ff     ... ... ........
    bb34:	0002 2000 0002 2000 0000 2000 0000 2000     ... ... ... ... 
    bb44:	0000 2000 0000 2000 0000 2000 0000 6000     ... ... ... ...`
    bb54:	0000 e000 0000 0003 0000 0000 0002 2000     ............... 
    bb64:	0002 2000 ff03 e0ff e003 2000 ff03 2000     ... ....... ... 
    bb74:	1f00 00f0 0100 80ff 0000 e00f 0000 001e     ................
    bb84:	0300 00e0 3e00 2000 e003 2000 ff03 e0ff     .....>. ... ....
    bb94:	ff03 e0ff 0002 2000 0002 2000 0002 2000     ....... ... ... 
    bba4:	0002 2000 ff03 e0ff 8003 2000 f003 2000     ... ....... ... 
    bbb4:	fc00 0000 1f00 0000 0700 00c0 0100 00f0     ................
    bbc4:	0000 007c 0002 801f 0002 e007 ff03 e0ff     ..|.............
    bbd4:	0002 0000 0002 0000 0000 0000 0000 0000     ................
    bbe4:	0f00 00f8 3f00 00fe f000 8007 8001 c000     .....?..........
    bbf4:	0001 4000 0002 2000 0002 2000 0002 2000     ...@... ... ... 
    bc04:	0002 2000 0001 4000 8001 c000 f000 8003     ... ...@........
    bc14:	3f00 00fe 0f00 00f8 0000 0000 0000 0000     .?..............
    bc24:	0002 2000 0002 2000 ff03 e0ff ff03 e0ff     ... ... ........
    bc34:	0002 2080 0002 2080 0002 0080 0002 0080     ... ... ........
    bc44:	0002 0080 0002 0080 0103 0080 8301 0000     ................
    bc54:	fe00 0000 7c00 0000 0000 0000 0000 0000     .....|..........
    bc64:	0f00 00f8 7f00 00ff f000 8003 8001 c001     ................
    bc74:	0001 4006 0002 2004 0002 2004 0002 2006     ...@... ... ... 
    bc84:	0002 e003 0001 f800 8001 5c00 e000 8c03     ...........\....
    bc94:	3f00 0cff 0f00 18fc 0000 0000 0000 0000     .?..............
    bca4:	0002 2000 0002 2000 ff03 e0ff ff03 e0ff     ... ... ........
    bcb4:	0102 2000 0102 2000 0102 0080 0102 00e0     ... ... ........
    bcc4:	0102 00fc 0303 803f 8601 e007 fc01 e000     ......?.........
    bcd4:	f800 2000 0000 2000 0000 0000 0000 0000     ... ... ........
    bce4:	0000 0000 7800 0006 fe00 e001 8601 c000     .....x..........
    bcf4:	0303 4000 0302 2000 0102 2080 0102 2080     ...@... ... ... 
    bd04:	0102 20c0 0002 20c0 0001 60e0 8001 c070     ... ... ...`..p.
    bd14:	e003 803f 0000 001f 0000 0000 0000 0000     ..?.............
    bd24:	6000 0000 8003 0000 0003 0000 0002 0000     .`..............
    bd34:	0002 2000 0002 2000 ff03 e0ff ff03 e0ff     ... ... ........
    bd44:	0002 2000 0002 2000 0002 0000 0002 0000     ... ... ........
    bd54:	8003 0000 e000 0000 0000 0000 0002 0000     ................
    bd64:	0002 0000 ff03 00ff ff03 c0ff 0002 4000     ...............@
    bd74:	0002 6000 0000 2000 0000 2000 0000 2000     ...`... ... ... 
    bd84:	0000 2000 0002 4000 0002 8000 ff03 00ff     ... ...@........
    bd94:	0002 0000 0002 0000 0000 0000 0000 0000     ................
    bda4:	0002 0000 0002 0000 c003 0000 fc03 0000     ................
    bdb4:	3f02 00c0 0300 00f8 0000 807f 0000 e007     .?..............
    bdc4:	0000 8007 0000 0078 0302 00c0 3c02 0000     ......x......<..
    bdd4:	c003 0000 0002 0000 0002 0000 0002 0000     ................
    bde4:	c003 0000 ff03 0080 3f02 00fe 0002 e07f     .........?......
    bdf4:	0000 000f 0002 00f0 ef03 0000 ff03 0080     ................
    be04:	0f02 00fe 0000 e03f 0000 001f 0702 00e0     ......?.........
    be14:	f803 0000 0003 0000 0002 0000 0000 0000     ................
    be24:	0002 2000 0002 2000 8003 e000 f003 2003     ... ... ....... 
    be34:	fc02 200c 1f02 0030 0700 00c0 0700 00f0     ... ..0.........
    be44:	1802 007c 6002 201f 8003 e003 0002 e000     ..|..`. ........
    be54:	0002 2000 0000 2000 0000 0000 0000 0000     ... ... ........
    be64:	0002 0000 0003 0000 c003 0000 f803 0000     ................
    be74:	3e02 2000 0f02 20c0 0100 e0ff 0000 e07f     .>. ... ........
    be84:	0300 2080 1c02 2000 7002 0000 8003 0000     ... ... .p......
    be94:	0002 0000 0002 0000 0000 0000 0000 0000     ................
    bea4:	0000 2000 6000 e000 8003 e003 0003 a00f     ... .`..........
    beb4:	0002 203e 0002 20f8 0302 20e0 0f02 2080     ..> ... ... ... 
    bec4:	3e02 2000 7802 2000 e003 6000 8003 e000     .>. .x. ...`....
    bed4:	0002 0003 0000 0000 0000 0000 0000 0000     ................
	...
    bef8:	ff1f fcff 0010 0400 0010 0400 0010 0400     ................
    bf08:	0010 0400 0010 0400 0010 0400 0010 0400     ................
	...
    bf2c:	0007 0000 c003 0000 7800 0000 1e00 0000     .........x......
    bf3c:	0300 00c0 0000 00f0 0000 001e 0000 8007     ................
    bf4c:	0000 f000 0000 3c00 0000 0600 0000 0000     .......<........
	...
    bf68:	0010 0400 0010 0400 0010 0400 0010 0400     ................
    bf78:	0010 0400 0010 0400 0010 0400 ff1f fcff     ................
	...
    bfb0:	0002 0000 0004 0000 0008 0000 0018 0000     ................
    bfc0:	0010 0000 0018 0000 0018 0000 0004 0000     ................
    bfd0:	0002 0000 0000 0000 0000 0000 0000 0000     ................
    bfe0:	0000 0100 0000 0100 0000 0100 0000 0100     ................
    bff0:	0000 0100 0000 0100 0000 0100 0000 0100     ................
    c000:	0000 0100 0000 0100 0000 0100 0000 0100     ................
    c010:	0000 0100 0000 0100 0000 0100 0000 0100     ................
	...
    c02c:	0010 0000 0010 0000 0010 0000 0018 0000     ................
    c03c:	0008 0000 0004 0000 0000 0000 0000 0000     ................
	...
    c064:	0000 8003 0100 c08f 0300 608c 0600 2018     ...........`... 
    c074:	0400 2010 0400 2010 0400 2020 0400 4020     ... ... ..  .. @
    c084:	0600 4020 0300 c0ff 0100 e0ff 0000 2000     .. @........... 
    c094:	0000 2000 0000 c000 0000 0000 0000 0000     ... ............
    c0a4:	0002 0000 0002 0000 ff03 e0ff ff07 c0ff     ................
    c0b4:	0100 c080 0200 6000 0200 2000 0400 2000     .......`... ... 
    c0c4:	0400 2000 0400 2000 0600 4000 0300 c000     ... ... ...@....
    c0d4:	0100 80ff 0000 00fe 0000 0000 0000 0000     ................
    c0e4:	0000 0000 0000 007e 0100 80ff 0300 c081     ......~.........
    c0f4:	0200 4000 0600 2000 0400 2000 0400 2000     ...@... ... ... 
    c104:	0400 2000 0600 2000 0300 40c0 0100 80c0     ... ... ...@....
    c114:	0000 0003 0000 0000 0000 0000 0000 0000     ................
    c124:	0000 0000 0000 007e 0100 80ff 0300 c080     ......~.........
    c134:	0600 6000 0400 2000 0400 2000 0400 2000     ...`... ... ... 
    c144:	0402 4000 0202 8000 ff03 e0ff ff07 c0ff     ...@............
    c154:	0000 4000 0000 4000 0000 0000 0000 0000     ...@...@........
    c164:	0000 0000 0000 007e 0100 80ff 0300 c011     ......~.........
    c174:	0200 4010 0400 6010 0400 2010 0400 2010     ...@...`... ... 
    c184:	0400 2010 0600 2010 0300 4010 0100 c0f0     ... ... ...@....
    c194:	0000 0071 0000 0000 0000 0000 0000 0000     ..q.............
    c1a4:	0000 0000 0400 0000 0400 2000 0400 2000     ........... ... 
    c1b4:	0400 2000 7f00 e0ff ff01 e0ff 0401 2000     ... ........... 
    c1c4:	0403 2000 0402 2000 0402 2000 0402 0000     ... ... ... ....
    c1d4:	0002 0000 c001 0000 c001 0000 0000 0000     ................
    c1e4:	0000 0000 0000 1c00 0000 3ee3 0300 c2ff     ...........>....
    c1f4:	0200 c30c 0400 c104 0400 c104 0400 c104     ................
    c204:	0400 c104 0600 c10c 0300 c3f8 0500 62f0     ...............b
    c214:	0600 7e00 0600 3c00 0000 0000 0000 0000     ...~...<........
    c224:	0002 2000 0002 2000 ff03 e0ff ff07 e0ff     ... ... ........
    c234:	0100 2000 0200 2000 0600 0000 0400 0000     ... ... ........
    c244:	0400 0000 0400 2000 0600 2000 0300 e0ff     ....... ... ....
    c254:	0100 e0ff 0000 2000 0000 2000 0000 0000     ....... ... ....
	...
    c26c:	0400 2000 0400 2000 0400 2000 0400 2000     ... ... ... ... 
    c27c:	8703 e0ff 8f03 e0ff 8003 2000 0000 2000     ........... ... 
    c28c:	0000 2000 0000 2000 0000 0000 0000 0000     ... ... ........
	...
    c2ac:	0000 0600 0000 0700 0000 0100 0000 0100     ................
    c2bc:	0400 0100 0400 0100 0400 0300 0400 0600     ................
    c2cc:	8703 fcff 8f03 f8ff 8003 0000 0000 0000     ................
	...
    c2e4:	0002 2000 0002 2000 ff03 e0ff ff07 e0ff     ... ... ........
    c2f4:	0000 2008 0000 2010 0000 0030 0000 00fc     ... ... ..0.....
    c304:	0500 008e 0700 a007 0600 e001 0400 e000     ................
    c314:	0400 2000 0000 2000 0000 0000 0000 0000     ... ... ........
	...
    c32c:	0002 2000 0002 2000 0002 2000 0002 2000     ... ... ... ... 
    c33c:	ff03 e0ff ff07 e0ff 0000 2000 0000 2000     ........... ... 
    c34c:	0000 2000 0000 2000 0000 0000 0000 0000     ... ... ........
	...
    c364:	0400 2000 0700 e0ff 0f00 e0ff 0200 2000     ... ........... 
    c374:	0400 0000 0400 2000 0700 e0ff 0300 e0ff     ....... ........
    c384:	0200 2000 0400 0000 0400 2000 0700 e0ff     ... ....... ....
    c394:	0300 e0ff 0000 2000 0000 0000 0000 0000     ....... ........
    c3a4:	0400 2000 0400 2000 0700 e0ff 0f00 e0ff     ... ... ........
    c3b4:	0100 2000 0200 2000 0200 0000 0400 0000     ... ... ........
    c3c4:	0400 0000 0400 2000 0600 2000 0300 e0ff     ....... ... ....
    c3d4:	0100 e0ff 0000 2000 0000 2000 0000 0000     ....... ... ....
    c3e4:	0000 0000 0000 007e 0000 80ff 0300 c081     ......~.........
    c3f4:	0200 4000 0600 2000 0400 2000 0400 2000     ...@... ... ... 
    c404:	0400 2000 0600 2000 0200 4000 0300 c081     ... ... ...@....
    c414:	0100 80ff 0000 007e 0000 0000 0000 0000     ......~.........
    c424:	0400 0100 0400 0100 0700 ffff 0f00 ffff     ................
    c434:	0100 c100 0200 4100 0400 2000 0400 2000     .......A... ... 
    c444:	0400 2000 0400 2000 0600 4000 0300 c001     ... ... ...@....
    c454:	0100 80ff 0000 007e 0000 0000 0000 0000     ......~.........
    c464:	0000 0000 0000 007e 0100 80ff 0300 c080     ......~.........
    c474:	0200 6000 0400 2000 0400 2000 0400 2000     ...`... ... ... 
    c484:	0400 2000 0200 4100 0300 c100 0300 ffff     ... ...A........
    c494:	0700 ffff 0000 0100 0000 0100 0000 0000     ................
    c4a4:	0400 2000 0400 2000 0400 2000 0400 2000     ... ... ... ... 
    c4b4:	0f00 e0ff 0f00 e0ff 0000 20c0 0100 2000     ........... ... 
    c4c4:	0200 2000 0600 2000 0400 0000 0400 0000     ... ... ........
    c4d4:	0700 0000 0300 0000 0000 0000 0000 0000     ................
    c4e4:	0000 0000 0000 e003 0100 e0c0 0300 40e0     ...............@
    c4f4:	0600 2030 0400 2030 0400 2018 0400 2018     ..0 ..0 ... ... 
    c504:	0400 2018 0400 200c 0200 600c 0300 c007     ... ... ...`....
    c514:	0700 8083 0000 0000 0000 0000 0000 0000     ................
    c524:	0000 0000 0400 0000 0400 0000 0400 0000     ................
    c534:	0c00 0000 1f00 80ff ff00 c0ff 0400 6000     ...............`
    c544:	0400 2000 0400 2000 0400 2000 0400 4000     ... ... ... ...@
    c554:	0000 8001 0000 0000 0000 0000 0000 0000     ................
    c564:	0400 0000 0400 0000 0700 80ff 0f00 c0ff     ................
    c574:	0000 6000 0000 2000 0000 2000 0000 2000     ...`... ... ... 
    c584:	0000 2000 0400 4000 0400 8000 0700 e0ff     ... ...@........
    c594:	0f00 c0ff 0000 4000 0000 4000 0000 0000     .......@...@....
    c5a4:	0400 0000 0400 0000 0700 0080 0700 00f0     ................
    c5b4:	0400 00fe 0400 c01f 0000 e003 0000 8003     ................
    c5c4:	0000 001c 0400 0060 0700 0080 0600 0000     ......`.........
    c5d4:	0400 0000 0000 0000 0000 0000 0400 0000     ................
    c5e4:	0600 0000 0700 00c0 0700 00fc 0400 803f     ..............?.
    c5f4:	0000 e003 0400 800f 0600 00f0 0700 00f0     ................
    c604:	0700 80ff 0400 e00f 0000 8003 0400 003c     ..............<.
    c614:	0700 00c0 0600 0000 0400 0000 0000 0000     ................
    c624:	0000 2000 0400 2000 0400 6000 0700 e000     ... ... ...`....
    c634:	0700 2083 0700 00e6 0400 00f8 0000 003c     ... ..........<.
    c644:	0400 205e 0500 a087 0600 e001 0400 6000     ..^ ...........`
    c654:	0400 2000 0000 2000 0000 0000 0000 0000     ... ... ........
    c664:	0400 0000 0400 0300 0700 0300 0700 01e0     ................
    c674:	0400 01f8 0400 021f 0000 fc07 0000 e000     ................
    c684:	0000 0007 0400 0038 0700 00c0 0600 0000     ......8.........
    c694:	0400 0000 0400 0000 0000 0000 0000 0000     ................
    c6a4:	0000 0000 0700 6080 0600 e000 0400 e003     .......`........
    c6b4:	0400 a007 0400 200e 0400 203c 0400 2070     ....... ..< ..p 
    c6c4:	0500 20e0 0700 2080 0700 6000 0400 e000     ... ... ...`....
    c6d4:	0000 8003 0000 0000 0000 0000 0000 0000     ................
	...
    c6fc:	0000 0080 0000 0080 0100 0040 fe07 f83f     ..........@...?.
    c70c:	0008 0400 0010 0200 0010 0200 0000 0000     ................
	...
    c740:	ffff ffff 0000 0000 0000 0000 0000 0000     ................
	...
    c768:	0010 0200 0010 0200 0008 0400 fe07 f83f     ..............?.
    c778:	0100 0040 0000 0080 0000 0080 0000 0000     ..@.............
	...
    c7a4:	0018 0000 0030 0000 0040 0000 0040 0000     ....0...@...@...
    c7b4:	0040 0000 0020 0000 0030 0000 0008 0000     @... ...0.......
    c7c4:	0004 0000 0002 0000 0002 0000 0002 0000     ................
    c7d4:	000c 0000 0018 0000 0000 0000 6564 656c     ............dele
    c7e4:	6574 0000 94e6 e5b6 b088 7270 646f 6375     te........produc
    c7f4:	ef74 9abc 7270 646f 6375 4974 3d44 7325     t...productID=%s
    c804:	000a 0000 6461 0064 4c50 4145 4553 5020     ....add.PLEASE P
    c814:	5941 0000 5251 4320 444f 0045 2e25 6632     AY..QR CODE.%.2f
    c824:	0000 0000 6c50 6165 6573 7320 6f68 0077     ....Please show.
    c834:	6577 6769 7468 6520 7272 726f 0021 0000     weight error!...
    c844:	614e 656d 203a 7325 0000 0000 754e 3a6d     Name: %s....Num:
    c854:	2520 0064 0031 0000 7250 6369 3a65 2520      %d.1...Price: %
    c864:	0073 0000 4d53 5241 2054 4853 504f 4950     s...SMART SHOPPI
    c874:	474e 4143 5452 0000 3a41 6441 0064 0000     NGCART..A:Add...
    c884:	3a42 6544 656c 6574 0000 0000 3a43 6150     B:Delete....C:Pa
    c894:	0079 0000 3a44 7563 7272 6e65 0074 0000     y...D:current...
    c8a4:	7469 6d65 0000 0000 3a45 6142 6b63 0000     item....E:Back..
    c8b4:	3a46 5057 0055 0000 0043 0000 4f50 4953     F:WPU...C...POSI
    c8c4:	0058 0000 002e 0000 7c4a ffff 7c36 ffff     X.......J|..6|..
    c8d4:	7c68 ffff 7c6e ffff 7c4a ffff 0000 0000     h|..n|..J|......
    c8e4:	0000 3fe0 0000 0000 0000 3ff0 0000 0000     ...?.......?....
    c8f4:	0000 4000 0000 ffc0 ffff 41df 3595 94a0     ...@.......A.5..
    c904:	ffff 3fdf e535 35af 0000 3fe0 3595 94a0     ...?5..5...?.5..
    c914:	ffff 3fcf 666e 0000 6e69 7469 0079 0000     ...?nf..inity...
    c924:	6e61 0000                                   an..

0000c928 <fpi.3395>:
    c928:	0035 0000 fbce ffff 03cb 0000 0001 0000     5...............
    c938:	0000 0000                                   ....

0000c93c <fpinan.3431>:
    c93c:	0034 0000 fbce ffff 03cb 0000 0001 0000     4...............
    c94c:	0000 0000 ffff 7f7f 0000 0000 ffff ffff     ................
    c95c:	ffff 7fef                                   ....

0000c960 <tinytens>:
    c960:	89bc 97d8 d2b2 3c9c a733 d5a8 f623 3949     .......<3...#.I9
    c970:	a73d 44f4 0ffd 32a5 979d cf8c ba08 255b     =..D...2......[%
    c980:	6f43 64ac 0628 1168                         Co.d(.h.

0000c988 <_ctype_>:
    c988:	2000 2020 2020 2020 2020 2828 2828 2028     .         ((((( 
    c998:	2020 2020 2020 2020 2020 2020 2020 2020                     
    c9a8:	8820 1010 1010 1010 1010 1010 1010 1010      ...............
    c9b8:	0410 0404 0404 0404 0404 1004 1010 1010     ................
    c9c8:	1010 4141 4141 4141 0101 0101 0101 0101     ..AAAAAA........
    c9d8:	0101 0101 0101 0101 0101 0101 1010 1010     ................
    c9e8:	1010 4242 4242 4242 0202 0202 0202 0202     ..BBBBBB........
    c9f8:	0202 0202 0202 0202 0202 0202 1010 1010     ................
    ca08:	0020 0000 0000 0000 0000 0000 0000 0000      ...............
	...

0000ca8c <__sf_fake_stderr>:
	...

0000caac <__sf_fake_stdin>:
	...

0000cacc <__sf_fake_stdout>:
	...

0000caf0 <__mprec_bigtens>:
    caf0:	8000 37e0 c379 4341 6e17 b505 b8b5 4693     ...7y.AC.n.....F
    cb00:	f9f5 e93f 4f03 4d38 1d32 f930 7748 5a82     ..?..O8M2.0.Hw.Z
    cb10:	bf3c 7f73 4fdd 7515                         <.s..O.u

0000cb18 <__mprec_tens>:
    cb18:	0000 0000 0000 3ff0 0000 0000 0000 4024     .......?......$@
    cb28:	0000 0000 0000 4059 0000 0000 4000 408f     ......Y@.....@.@
    cb38:	0000 0000 8800 40c3 0000 0000 6a00 40f8     .......@.....j.@
    cb48:	0000 0000 8480 412e 0000 0000 12d0 4163     .......A......cA
    cb58:	0000 0000 d784 4197 0000 0000 cd65 41cd     .......A....e..A
    cb68:	0000 2000 a05f 4202 0000 e800 4876 4237     ... _..B....vH7B
    cb78:	0000 a200 1a94 426d 0000 e540 309c 42a2     ......mB..@..0.B
    cb88:	0000 1e90 bcc4 42d6 0000 2634 6bf5 430c     .......B..4&.k.C
    cb98:	8000 37e0 c379 4341 a000 85d8 3457 4376     ...7y.AC....W4vC
    cba8:	c800 674e c16d 43ab 3d00 6091 58e4 43e1     ..Ngm..C.=.`.X.C
    cbb8:	8c40 78b5 af1d 4415 ef50 d6e2 1ae4 444b     @..x...DP.....KD
    cbc8:	d592 064d f0cf 4480 4af6 c7e1 2d02 44b5     ..M....D.J...-.D
    cbd8:	9db4 79d9 7843 44ea                         ...yCx.D

0000cbe0 <p05.3319>:
    cbe0:	0005 0000 0019 0000 007d 0000 2d23 2b30     ........}...#-0+
    cbf0:	0020 0000 6c68 004c 6665 4567 4746 0000      ...hlL.efgEFG..
    cc00:	3130 3332 3534 3736 3938 4241 4443 4645     0123456789ABCDEF
    cc10:	0000 0000 3130 3332 3534 3736 3938 6261     ....0123456789ab
    cc20:	6463 6665 0000 0000 0000 7fc0 b47a ffff     cdef........z...
    cc30:	b2fe ffff b40e ffff b416 ffff b40e ffff     ................
    cc40:	b32e ffff b40e ffff b416 ffff b2fe ffff     ................
    cc50:	b2fe ffff b32e ffff b416 ffff b470 ffff     ............p...
    cc60:	b470 ffff b470 ffff b32e ffff bb8a ffff     p...p...........
    cc70:	ba7c ffff ba7c ffff ba7a ffff ba82 ffff     |...|...z.......
    cc80:	ba82 ffff ba48 ffff ba7a ffff ba82 ffff     ....H...z.......
    cc90:	ba48 ffff ba82 ffff ba7a ffff bb76 ffff     H.......z...v...
    cca0:	bb76 ffff bb76 ffff ba48 ffff               v...v...H...

0000ccac <__clz_tab>:
    ccac:	0100 0202 0303 0303 0404 0404 0404 0404     ................
    ccbc:	0505 0505 0505 0505 0505 0505 0505 0505     ................
    cccc:	0606 0606 0606 0606 0606 0606 0606 0606     ................
    ccdc:	0606 0606 0606 0606 0606 0606 0606 0606     ................
    ccec:	0707 0707 0707 0707 0707 0707 0707 0707     ................
    ccfc:	0707 0707 0707 0707 0707 0707 0707 0707     ................
    cd0c:	0707 0707 0707 0707 0707 0707 0707 0707     ................
    cd1c:	0707 0707 0707 0707 0707 0707 0707 0707     ................
    cd2c:	0808 0808 0808 0808 0808 0808 0808 0808     ................
    cd3c:	0808 0808 0808 0808 0808 0808 0808 0808     ................
    cd4c:	0808 0808 0808 0808 0808 0808 0808 0808     ................
    cd5c:	0808 0808 0808 0808 0808 0808 0808 0808     ................
    cd6c:	0808 0808 0808 0808 0808 0808 0808 0808     ................
    cd7c:	0808 0808 0808 0808 0808 0808 0808 0808     ................
    cd8c:	0808 0808 0808 0808 0808 0808 0808 0808     ................
    cd9c:	0808 0808 0808 0808 0808 0808 0808 0808     ................
